
RT-thread-for-project.elf:     file format elf32-littleriscv
RT-thread-for-project.elf
architecture: riscv:rv32, flags 0x00000112:
EXEC_P, HAS_SYMS, D_PAGED
start address 0x00000000

Program Header:
    LOAD off    0x00001000 vaddr 0x00000000 paddr 0x00000000 align 2**12
         filesz 0x00011940 memsz 0x00011940 flags r-x
    LOAD off    0x00013000 vaddr 0x20000000 paddr 0x00011940 align 2**12
         filesz 0x00003368 memsz 0x00005428 flags rw-
    LOAD off    0x00016800 vaddr 0x2000f800 paddr 0x2000f800 align 2**12
         filesz 0x00000000 memsz 0x00000800 flags rw-

Sections:
Idx Name          Size      VMA       LMA       File off  Algn
  0 .init         00000038  00000000  00000000  00001000  2**1
                  CONTENTS, ALLOC, LOAD, READONLY, CODE
  1 .vector       000001c8  00000038  00000038  00001038  2**1
                  CONTENTS, ALLOC, LOAD, READONLY, CODE
  2 .text         00011740  00000200  00000200  00001200  2**3
                  CONTENTS, ALLOC, LOAD, READONLY, CODE
  3 .fini         00000000  00011940  00011940  00016368  2**0
                  CONTENTS, ALLOC, LOAD, CODE
  4 .dalign       00000000  20000000  20000000  00016368  2**0
                  CONTENTS
  5 .dlalign      00000000  00011940  00011940  00016368  2**0
                  CONTENTS
  6 .data         00003368  20000000  00011940  00013000  2**2
                  CONTENTS, ALLOC, LOAD, DATA
  7 .bss          000020c0  20003368  00014ca8  00016368  2**2
                  ALLOC
  8 .stack        00000800  2000f800  2000f800  00016800  2**0
                  ALLOC
  9 .debug_info   0003a85e  00000000  00000000  00016368  2**0
                  CONTENTS, READONLY, DEBUGGING
 10 .debug_abbrev 00009839  00000000  00000000  00050bc6  2**0
                  CONTENTS, READONLY, DEBUGGING
 11 .debug_loc    00012ce6  00000000  00000000  0005a3ff  2**0
                  CONTENTS, READONLY, DEBUGGING
 12 .debug_aranges 00001880  00000000  00000000  0006d0e8  2**3
                  CONTENTS, READONLY, DEBUGGING
 13 .debug_ranges 00003950  00000000  00000000  0006e968  2**3
                  CONTENTS, READONLY, DEBUGGING
 14 .debug_line   00030125  00000000  00000000  000722b8  2**0
                  CONTENTS, READONLY, DEBUGGING
 15 .debug_str    00007357  00000000  00000000  000a23dd  2**0
                  CONTENTS, READONLY, DEBUGGING
 16 .comment      00000033  00000000  00000000  000a9734  2**0
                  CONTENTS, READONLY
 17 .debug_frame  000052d0  00000000  00000000  000a9768  2**2
                  CONTENTS, READONLY, DEBUGGING
 18 .stab         00000084  00000000  00000000  000aea38  2**2
                  CONTENTS, READONLY, DEBUGGING
 19 .stabstr      00000117  00000000  00000000  000aeabc  2**0
                  CONTENTS, READONLY, DEBUGGING
SYMBOL TABLE:
00000000 l    d  .init	00000000 .init
00000038 l    d  .vector	00000000 .vector
00000200 l    d  .text	00000000 .text
00011940 l    d  .fini	00000000 .fini
20000000 l    d  .dalign	00000000 .dalign
00011940 l    d  .dlalign	00000000 .dlalign
20000000 l    d  .data	00000000 .data
20003368 l    d  .bss	00000000 .bss
2000f800 l    d  .stack	00000000 .stack
00000000 l    d  .debug_info	00000000 .debug_info
00000000 l    d  .debug_abbrev	00000000 .debug_abbrev
00000000 l    d  .debug_loc	00000000 .debug_loc
00000000 l    d  .debug_aranges	00000000 .debug_aranges
00000000 l    d  .debug_ranges	00000000 .debug_ranges
00000000 l    d  .debug_line	00000000 .debug_line
00000000 l    d  .debug_str	00000000 .debug_str
00000000 l    d  .comment	00000000 .comment
00000000 l    d  .debug_frame	00000000 .debug_frame
00000000 l    d  .stab	00000000 .stab
00000000 l    d  .stabstr	00000000 .stabstr
00000000 l    df *ABS*	00000000 ./Startup/startup_ch32v30x.o
00000038 l       .vector	00000000 _vector_base
00000000 l    df *ABS*	00000000 clock.c
20003368 l     O .bss	00000004 rt_tick
00000000 l    df *ABS*	00000000 components.c
00000516 l     F .text	00000004 rti_start
0000055e l     F .text	00000004 rti_board_end
00000556 l     F .text	00000004 rti_end
0000055a l     F .text	00000004 rti_board_start
00000000 l    df *ABS*	00000000 device.c
00000000 l    df *ABS*	00000000 idle.c
0000082a l     F .text	0000001e rt_thread_idle_entry
20003470 l     O .bss	00000080 idle
200034f0 l     O .bss	00000010 idle_hook_list
20003500 l     O .bss	00000200 rt_thread_stack
00000000 l    df *ABS*	00000000 ipc.c
00000000 l    df *ABS*	00000000 irq.c
2000336c l     O .bss	00000004 rt_interrupt_enter_hook
20003370 l     O .bss	00000004 rt_interrupt_leave_hook
00000000 l    df *ABS*	00000000 kservice.c
00000c5c l     F .text	00000206 print_number
20003700 l     O .bss	00000080 rt_log_buf.2693
0000cd3c l     O .text	00000011 large_digits.2583
0000cde0 l     O .text	00000011 small_digits.2582
20003378 l     O .bss	00000004 __rt_errno
2000337c l     O .bss	00000004 _console_device
00000000 l    df *ABS*	00000000 mem.c
00001540 l     F .text	00000060 plug_holes
20003780 l     O .bss	00000020 heap_sem
20003380 l     O .bss	00000004 heap_end
20003384 l     O .bss	00000004 heap_ptr
20003388 l     O .bss	00000004 lfree
2000338c l     O .bss	00000004 max_mem
20003390 l     O .bss	00000004 mem_size_aligned
20003394 l     O .bss	00000004 rt_free_hook
20003398 l     O .bss	00000004 rt_malloc_hook
2000339c l     O .bss	00000004 used_mem
00000000 l    df *ABS*	00000000 object.c
20000000 l     O .data	00000080 rt_object_container
200033a0 l     O .bss	00000004 rt_object_attach_hook
200033a4 l     O .bss	00000004 rt_object_detach_hook
00000000 l    df *ABS*	00000000 scheduler.c
200033bc l     O .bss	00000004 rt_scheduler_hook
200033c0 l     O .bss	00000002 rt_scheduler_lock_nest
00000000 l    df *ABS*	00000000 thread.c
00001c42 l     F .text	00000082 _rt_thread_init.isra.0
200033d0 l     O .bss	00000004 rt_thread_inited_hook
200033d4 l     O .bss	00000004 rt_thread_resume_hook
200033d8 l     O .bss	00000004 rt_thread_suspend_hook
00000000 l    df *ABS*	00000000 timer.c
200033dc l     O .bss	00000004 random_nr.2483
200033e0 l     O .bss	00000004 rt_timer_enter_hook
200033e4 l     O .bss	00000004 rt_timer_exit_hook
200033e8 l     O .bss	00000008 rt_timer_list
00000000 l    df *ABS*	00000000 cpuport.c
00000000 l    df *ABS*	00000000 cmd.c
000021fe l     F .text	0000003a show_wait_queue
00002238 l     F .text	00000046 object_name_maxlen
00000000 l    df *ABS*	00000000 msh.c
00000000 l    df *ABS*	00000000 msh_cmd.c
00000000 l    df *ABS*	00000000 shell.c
00002c82 l     F .text	00000012 finsh_rx_ind
00002d80 l     F .text	0000002e shell_handle_history
200038a0 l     O .bss	00000081 finsh_prompt.4315
00000000 l    df *ABS*	00000000 serial.c
000032f0 l     F .text	00000020 rt_serial_init
00003310 l     F .text	00000050 rt_serial_write
00003360 l     F .text	000000ba rt_serial_open
0000341a l     F .text	00000088 rt_serial_control
000034a2 l     F .text	000000b4 rt_serial_read
00003556 l     F .text	00000048 rt_serial_close
00000000 l    df *ABS*	00000000 pin.c
000036a8 l     F .text	00000020 _pin_control
00003714 l     F .text	00000030 _pin_read
00003744 l     F .text	00000030 _pin_write
20003924 l     O .bss	00000048 _hw_pin
00000000 l    df *ABS*	00000000 user_timer.c
2000396c l     O .bss	00000048 _hw_timer
00000000 l    df *ABS*	00000000 board.c
200039b4 l     O .bss	00001000 rt_heap
00000000 l    df *ABS*	00000000 drv_gpio.c
000038f0 l     F .text	00000012 GPIOD_CLK_ENABLE
00003902 l     F .text	00000010 GPIOB_CLK_ENABLE
00003912 l     F .text	00000010 GPIOA_CLK_ENABLE
00003922 l     F .text	00000010 GPIOC_CLK_ENABLE
00003932 l     F .text	00000012 GPIOE_CLK_ENABLE
0000d94c l     O .text	00000018 _ch32_pin_ops
0000d964 l     O .text	00000080 pin_irq_map
0000d9e4 l     O .text	00000650 pins
00000000 l    df *ABS*	00000000 drv_timer.c
0000e038 l     O .text	0000001c _ch32_timer_ops
20003410 l     O .bss	00000004 timer_irq
20003414 l     O .bss	00000004 timer_irq_args
00000000 l    df *ABS*	00000000 drv_usart.c
00004092 l     F .text	000000fa ch32_configure
00004254 l     F .text	00000024 ch32_getc
00004278 l     F .text	00000024 ch32_putc
0000429c l     F .text	0000006a ch32_control
0000e05c l     O .text	00000014 ch32_uart_ops
00000000 l    df *ABS*	00000000 Func.c
20003419 l     O .bss	00000001 UnusefulFlag.7236
2000341a l     O .bss	00000001 cnt.7238
00000000 l    df *ABS*	00000000 Peripheral.c
00000000 l    df *ABS*	00000000 ch32v30x_it.c
00000000 l    df *ABS*	00000000 lcd.c
00000000 l    df *ABS*	00000000 main.c
000068bc l     F .text	00000038 user_timer_irq
00000000 l    df *ABS*	00000000 peri_config.c
2000333c l     O .data	00000004 back_mode.7568
20003340 l     O .data	00000004 confirm_mode.7569
20003344 l     O .data	00000004 down_mode.7567
20003348 l     O .data	00000004 up_mode.7566
2000334c l     O .data	00000004 wakeup_mode.7565
00000000 l    df *ABS*	00000000 system_ch32v30x.c
00000000 l    df *ABS*	00000000 user_thread.c
20004a64 l     O .bss	00000080 DTW_thread
20004ae4 l     O .bss	00000080 LCD_thread
20004b64 l     O .bss	00000080 TEST_thread
20004be4 l     O .bss	00000400 rt_DTW_thread_stack
20004fe4 l     O .bss	00000400 rt_LCD_thread_stack
20003450 l     O .bss	00000001 LcdScreenSubOption
20003458 l     O .bss	00000004 mutex_lock
2000345c l     O .bss	00000001 offset_start
20003354 l     O .data	00000004 min_dtw
00000000 l    df *ABS*	00000000 ch32v30x_adc.c
00000000 l    df *ABS*	00000000 ch32v30x_dbgmcu.c
00000000 l    df *ABS*	00000000 ch32v30x_dma.c
00000000 l    df *ABS*	00000000 ch32v30x_exti.c
00000000 l    df *ABS*	00000000 ch32v30x_flash.c
00000000 l    df *ABS*	00000000 ch32v30x_fsmc.c
00000000 l    df *ABS*	00000000 ch32v30x_gpio.c
00000000 l    df *ABS*	00000000 ch32v30x_misc.c
00000000 l    df *ABS*	00000000 ch32v30x_rcc.c
200032b8 l     O .data	00000010 APBAHBPrescTable
20003358 l     O .data	00000004 ADCPrescTable
00000000 l    df *ABS*	00000000 ch32v30x_rng.c
00000000 l    df *ABS*	00000000 ch32v30x_tim.c
00000000 l    df *ABS*	00000000 ch32v30x_usart.c
00000000 l    df *ABS*	00000000 debug.c
20003464 l     O .bss	00000002 p_ms
20003466 l     O .bss	00000001 p_us
2000335c l     O .data	00000004 curbrk.5242
00000000 l    df *ABS*	00000000 adddf3.c
00000000 l    df *ABS*	00000000 gedf2.c
00000000 l    df *ABS*	00000000 ledf2.c
00000000 l    df *ABS*	00000000 subdf3.c
00000000 l    df *ABS*	00000000 addsf3.c
00000000 l    df *ABS*	00000000 divsf3.c
00000000 l    df *ABS*	00000000 gesf2.c
00000000 l    df *ABS*	00000000 mulsf3.c
00000000 l    df *ABS*	00000000 subsf3.c
00000000 l    df *ABS*	00000000 fixunssfsi.c
00000000 l    df *ABS*	00000000 floatunsisf.c
00000000 l    df *ABS*	00000000 extendsfdf2.c
00000000 l    df *ABS*	00000000 truncdfsf2.c
00000000 l    df *ABS*	00000000 libgcc2.c
00000000 l    df *ABS*	00000000 malloc.c
00000000 l    df *ABS*	00000000 memcmp.c
00000000 l    df *ABS*	00000000 memcpy.c
00000000 l    df *ABS*	00000000 nano-mallocr.c
00000000 l    df *ABS*	00000000 nano-mallocr.c
00000000 l    df *ABS*	00000000 printf.c
00000000 l    df *ABS*	00000000 sbrkr.c
00000000 l    df *ABS*	00000000 strlen.c
00000000 l    df *ABS*	00000000 strncmp.c
00000000 l    df *ABS*	00000000 vsnprintf.c
00000000 l    df *ABS*	00000000 findfp.c
0000b66e l     F .text	0000006a std
00000000 l    df *ABS*	00000000 fwalk.c
00000000 l    df *ABS*	00000000 mlock.c
00000000 l    df *ABS*	00000000 nano-vfprintf.c
00000000 l    df *ABS*	00000000 nano-vfprintf.c
0000bc14 l     F .text	00000028 __sfputc_r
00000000 l    df *ABS*	00000000 nano-vfprintf_i.c
00000000 l    df *ABS*	00000000 stdio.c
00000000 l    df *ABS*	00000000 wbuf.c
00000000 l    df *ABS*	00000000 writer.c
00000000 l    df *ABS*	00000000 wsetup.c
00000000 l    df *ABS*	00000000 closer.c
00000000 l    df *ABS*	00000000 fflush.c
00000000 l    df *ABS*	00000000 lseekr.c
00000000 l    df *ABS*	00000000 makebuf.c
00000000 l    df *ABS*	00000000 memchr.c
00000000 l    df *ABS*	00000000 memmove.c
00000000 l    df *ABS*	00000000 nano-mallocr.c
00000000 l    df *ABS*	00000000 readr.c
00000000 l    df *ABS*	00000000 fstatr.c
00000000 l    df *ABS*	00000000 isattyr.c
00000000 l    df *ABS*	00000000 nano-mallocr.c
00000000 l    df *ABS*	00000000 close.c
00000000 l    df *ABS*	00000000 fstat.c
00000000 l    df *ABS*	00000000 isatty.c
00000000 l    df *ABS*	00000000 lseek.c
00000000 l    df *ABS*	00000000 read.c
00000000 l    df *ABS*	00000000 libgcc2.c
00000000 l    df *ABS*	00000000 impure.c
200032c8 l     O .data	00000060 impure_data
00000000 l    df *ABS*	00000000 symbol.c
00000000 l    df *ABS*	00000000 reent.c
0000c9ee g     F .text	00000014 _malloc_usable_size_r
00003df0 g     F .text	00000032 EXTI2_IRQHandler
0000832e  w      .text	00000000 TIM8_TRG_COM_IRQHandler
00001790 g     F .text	0000001e rt_calloc
00008330  w      .text	00000000 TIM8_CC_IRQHandler
0001189c g     O .text	0000000c __fsym_list_thread
000005ea g     F .text	0000000a entry
0000c9be g     F .text	00000030 _isatty_r
20000170 g     O .data	00001068 D
20003455 g     O .bss	00000001 k_dtw
000088ee g     F .text	0000001a FLASH_Unlock
00004d1a g     F .text	00000210 GetTemplate
0000227e g     F .text	00000136 list_thread
00002e2a g     F .text	000004c6 finsh_thread_entry
00001a08 g     F .text	00000008 rt_object_is_systemobject
00000f4e g     F .text	00000036 rt_strncpy
0000215e g     F .text	00000034 rt_hw_stack_init
0000c770 g     F .text	00000034 _lseek_r
00001e5a g     F .text	0000000e rt_thread_mdelay
000087f8 g     F .text	00000016 DMA_Cmd
0001192c g     O .text	00000004 __rt_init_rt_hw_user_timer_init
0000382a g     F .text	00000010 rt_user_timer_attach_irq
00008366  w      .text	00000000 UART8_IRQHandler
00002984 g     F .text	00000214 msh_exec
0000d4a4 g     O .text	0000000d __fsym_list_mailbox_name
00006132 g     F .text	000003ca lcd_draw_circle
20003424 g     O .bss	00000002 BACK_COLOR
00001946 g     F .text	00000090 rt_object_allocate
0000403a g     F .text	0000001a ch32_timer_irq_enable
2000343a g     O .bss	00000001 LcdScreen
000118fc g     O .text	0000000c __fsym_pinRead
0000cc3c g     O .text	00000100 __lowest_bit_bitmap
0000b550 g     F .text	0000003e printf
20003b28 g       .data	00000000 __global_pointer$
00001a3e g     F .text	0000002c rt_system_scheduler_start
000003ba g     F .text	00000028 .hidden __riscv_save_8
20003436 g     O .bss	00000001 DtwRun
0000830a  w      .text	00000000 TIM1_CC_IRQHandler
200033f4 g     O .bss	00000004 rt_interrupt_to_thread
0000c356 g     F .text	00000036 __sseek
0000b72a g     F .text	0000006c __sinit
0000c392 g     F .text	000000c2 __swbuf_r
00005ad4 g     F .text	00000020 HardFault_Handler
00006bd2 g     F .text	00000020 user_EXTI1_IRQHandler
0000b6e2 g     F .text	00000048 __sfmoreglue
0000b8a4 g     F .text	00000002 __malloc_unlock
000050a8 g     F .text	00000768 train
000084d4 g     F .text	00000014 ADC_DMACmd
0000d59c g     O .text	00000009 __fsym_list_sem_name
00006c96 g     F .text	00000170 key_init
000058d2 g     F .text	00000064 DMA1_Init
00000406 g     F .text	0000000c .hidden __riscv_restore_3
00008340  w      .text	00000000 TIM6_IRQHandler
0000a5f4 g     F .text	000002b2 .hidden __divsf3
000007a2 g     F .text	00000006 rt_device_set_rx_indicate
000038d0 g     F .text	00000020 SysTick_Handler
000084fa g     F .text	0000000a ADC_StartCalibration
000017ae g     F .text	000000b0 rt_free
2000341e g     O .bss	00000001 j
200033f0 g     O .bss	00000004 rt_interrupt_from_thread
00008bbc g     F .text	000000e6 NVIC_Init
000015d2 g     F .text	00000086 rt_system_heap_init
000082d6  w      .text	00000000 PVD_IRQHandler
0000051a g     F .text	0000003c main_thread_entry
00008336  w      .text	00000000 SDIO_IRQHandler
0000c8b6 g     F .text	0000004a memmove
200053e4 g     O .bss	00000020 sem_key_lock
00008368  w      .text	00000000 TIM9_BRK_IRQHandler
0000d654 g     O .text	00000007 __fsym_reboot_name
000020cc g     F .text	00000086 rt_timer_check
000003f2 g     F .text	00000020 .hidden __riscv_restore_10
00001adc g     F .text	0000004c rt_schedule_insert_thread
000023b4 g     F .text	000000bc list_sem
0000067a g     F .text	0000008e rt_device_open
0000837c  w      .text	00000000 DMA2_Channel8_IRQHandler
00005ab4 g     F .text	00000020 NMI_Handler
00008356  w      .text	00000000 CAN2_RX1_IRQHandler
00003e22 g     F .text	00000032 EXTI3_IRQHandler
000003ba g     F .text	00000028 .hidden __riscv_save_11
000085fe g     F .text	0000000a DBGMCU_GetCHIPID
000028d2 g     F .text	00000050 list
000099e8 g     F .text	000000ae .hidden __gtdf2
0000ce5c g     O .text	00000009 __fsym_list_mem_name
20003408 g     O .bss	00000004 _sysvar_table_begin
0000d4cc g     O .text	00000011 __fsym___cmd_list_mutex_name
00011940 g       .text	00000000 __rtmsymtab_start
00008962 g     F .text	00000040 FLASH_ProgramHalfWord
000037c8 g     F .text	00000042 rt_device_timer_register
0000835e  w      .text	00000000 USBHS_IRQHandler
20003430 g     O .bss	00000004 DataStream
00009184 g     F .text	0000000c USART_GetFlagStatus
0000837e  w      .text	00000000 DMA2_Channel9_IRQHandler
0000c98c g     F .text	00000032 _fstat_r
000007a8 g     F .text	00000082 rt_thread_idle_excute
00001dd0 g     F .text	0000004a rt_thread_suspend
00001418 g     F .text	0000007e rt_kprintf
00008376  w      .text	00000000 TIM10_CC_IRQHandler
20005424 g     O .bss	00000004 errno
00000c56 g     F .text	00000006 rt_interrupt_get_nest
20003368 g       .bss	00000000 _sbss
00000800 g       *ABS*	00000000 __stack_size
00006bae g     F .text	00000024 user_EXTI0_IRQHandler
20003446 g     O .bss	00000001 offset_p
20003428 g     O .bss	00000001 DTWDataState
000087b8 g     F .text	00000040 DMA_Init
0000abc0 g     F .text	00000388 .hidden __subsf3
00001c22 g     F .text	00000020 rt_thread_timeout
0000d5f4 g     O .text	0000000c __fsym___cmd_clear_name
00002c74 g     F .text	0000000e cmd_free
00006c52 g     F .text	00000044 main_init
0000d530 g     O .text	00000015 __fsym_list_event_desc
00011824 g     O .text	0000000c __fsym_list_msgqueue
00011920 g       .text	00000000 __rt_init_start
000025c6 g     F .text	000000c0 list_mailbox
00000406 g     F .text	0000000c .hidden __riscv_restore_2
0000d924 g     O .text	00000016 __fsym_pinMode_desc
00011920 g       .text	00000000 __fsymtab_end
2000343c g     O .bss	00000002 TIMProcessFlag
000036e2 g     F .text	0000001a rt_pin_write
0000d5e0 g     O .text	00000014 __fsym___cmd_clear_desc
00008a7c g     F .text	00000020 FSMC_NORSRAMCmd
00000746 g     F .text	00000026 rt_device_read
200033fc g     O .bss	00000004 shell
00004362 g     F .text	00000234 DrawCurve
0000b328 g     F .text	000000b6 memcpy
000084c2 g     F .text	00000012 ADC_Cmd
2000332e g     O .data	00000001 KeyValue
0000b6d8 g     F .text	0000000a _cleanup_r
0000b994 g     F .text	00000280 _svfprintf_r
00002c94 g     F .text	00000098 finsh_system_init
00009a96 g     F .text	000000b6 .hidden __ltdf2
20003328 g     O .data	00000002 FORE_COLOR
00003d80 g     F .text	00000032 EXTI0_IRQHandler
00008316  w      .text	00000000 I2C2_EV_IRQHandler
00008374  w      .text	00000000 TIM10_TRG_COM_IRQHandler
00008fb2 g     F .text	00000020 TIM_Cmd
00001f58 g     F .text	00000038 rt_timer_init
00011940 g       .text	00000000 __rt_init_end
00000848 g     F .text	00000036 rt_thread_idle_init
00007b72 g     F .text	0000063a DTW_thread_entry
000068a2 g     F .text	0000001a lcd_show_num
0000381a g     F .text	00000010 rt_user_timer_init
20003350 g     O .data	00000004 SystemCoreClock
00011854 g     O .text	0000000c __fsym_list_mutex
20003404 g     O .bss	00000004 _syscall_table_end
20004a0c g     O .bss	00000018 uart1
0000b2f8 g     F .text	0000000a malloc
00001a10 g     F .text	0000002e rt_system_scheduler_init
0000900e g     F .text	0000000e TIM_ClearFlag
000005f4 g     F .text	00000052 rt_device_find
00000200 g       .text	00000000 rt_hw_context_switch_to
0000ca12 g     F .text	00000010 _fstat
00011928 g     O .text	00000004 __rt_init_rt_hw_pin_init
2000342c g     O .bss	00000002 DataLaserOn
00006bf2 g     F .text	00000020 user_EXTI2_IRQHandler
00000038 g       .init	00000000 _einit
200033f8 g     O .bss	00000004 rt_thread_switch_interrupt_flag
00005c2e g     F .text	00000058 lcd_gpio_init
0000b65c g     F .text	00000012 vsnprintf
00008e66 g     F .text	0000001e RCC_APB2PeriphClockCmd
000003b2 g     F .text	00000030 .hidden __riscv_save_12
00008358  w      .text	00000000 CAN2_SCE_IRQHandler
000082f8  w      .text	00000000 ADC1_2_IRQHandler
0001193c g     O .text	00000004 __rt_init_rti_end
00008a9c g     F .text	000000d4 GPIO_Init
0000d570 g     O .text	0000000f __fsym___cmd_list_sem_name
00008ca2 g     F .text	00000012 RCC_ADCCLKConfig
000082ce  w      .text	00000000 Break_Point_Handler
00011818 g     O .text	0000000c __fsym___cmd_list_msgqueue
00004f90 g     F .text	00000118 fasttraining
0000d338 g     O .text	0000001a __fsym_list_desc
000003f2 g     F .text	00000020 .hidden __riscv_restore_11
20003460 g     O .bss	00000004 NVIC_Priority_Group
0000831a  w      .text	00000000 SPI1_IRQHandler
000084e8 g     F .text	0000000a ADC_ResetCalibration
00001ee0 g     F .text	00000078 rt_thread_control
0000359e g     F .text	0000005a rt_hw_serial_register
0000911e g     F .text	00000020 USART_Cmd
0000d354 g     O .text	00000005 __fsym_list_name
000021b2 g     F .text	00000024 rt_hw_context_switch_interrupt
0000d630 g     O .text	0000000d __fsym___cmd_reboot_name
0000b58e g     F .text	00000032 _sbrk_r
20003451 g     O .bss	00000001 cnt_state
20005404 g     O .bss	00000020 sem_menu_lock
000082d8  w      .text	00000000 TAMPER_IRQHandler
000003e2 g     F .text	0000000c .hidden __riscv_save_1
0000e93c g     O .text	000011a0 asc2_2412
00000406 g     F .text	0000000c .hidden __riscv_restore_0
0000d5a8 g     O .text	0000000c __fsym___cmd_list_thread_desc
0000c958 g     F .text	00000034 _read_r
0000d614 g     O .text	00000006 __fsym_clear_name
00001cf8 g     F .text	00000042 rt_thread_create
00001d3a g     F .text	00000040 rt_thread_delete
20003454 g     O .bss	00000001 k
000003c8 g     F .text	0000001a .hidden __riscv_save_7
00011940 g       .text	00000000 __rtmsymtab_end
0000d3f0 g     O .text	0000000b __fsym_list_timer_name
000091d8 g     F .text	00000016 USART_ClearITPendingBit
00008354  w      .text	00000000 CAN2_RX0_IRQHandler
20004a54 g     O .bss	00000010 TemplateDataSample
00001d7a g     F .text	00000056 rt_thread_yield
0000b06c g     F .text	000000ac .hidden __extendsfdf2
0000832c  w      .text	00000000 TIM8_UP_IRQHandler
0000059a g     F .text	00000028 rt_application_init
00008e84 g     F .text	0000001e RCC_APB1PeriphClockCmd
000092b8 g     F .text	00000730 .hidden __adddf3
000082ca  w      .text	00000000 Ecall_M_Mode_Handler
00001658 g     F .text	00000138 rt_malloc
2000f800 g       .stack	00000000 _heap_end
0000ca22 g     F .text	00000010 _isatty
00000988 g     F .text	00000046 rt_sem_release
00011884 g     O .text	0000000c __fsym_list_sem
20003364 g     O .data	00000004 _global_impure_ptr
0000383a g     F .text	00000010 rt_user_timer_irq_enable
000003fc g     F .text	00000016 .hidden __riscv_restore_5
0000c900 g     F .text	00000058 _realloc_r
0000384a  w    F .text	0000000a rt_heap_begin_get
00008346  w      .text	00000000 DMA2_Channel2_IRQHandler
000117dc g     O .text	0000000c __fsym_list
00008e48 g     F .text	0000001e RCC_AHBPeriphClockCmd
000082f0  w      .text	00000000 DMA1_Channel4_IRQHandler
00008526 g     F .text	000000be ADC_RegularChannelConfig
00005c86 g     F .text	0000006c lcd_clear
0000928c g     F .text	0000002c _sbrk
20003457 g     O .bss	00000001 mallocFlag
20000080 g     O .data	000000c0 pin_irq_hdr_tab
0000d5b4 g     O .text	00000012 __fsym___cmd_list_thread_name
0000d93c g     O .text	00000008 __fsym_pinMode_name
20000150 g     O .data	00000010 AddrTempPeak
000118c0 g     O .text	0000000c __fsym___cmd_reboot
000069ee g     F .text	0000016e peripheral_init
20003338 g     O .data	00000004 fac_dtw
0000d48c g     O .text	00000018 __fsym_list_mailbox_desc
00001f90 g     F .text	00000026 rt_timer_detach
00008908 g     F .text	0000000e FLASH_Lock
0000836a  w      .text	00000000 TIM9_UP_IRQHandler
00002980 g     F .text	00000004 msh_is_used
000003fc g     F .text	00000016 .hidden __riscv_restore_6
00008322  w      .text	00000000 USART3_IRQHandler
000088e4 g     F .text	0000000a EXTI_ClearITPendingBit
00000562 g     F .text	00000038 rt_components_board_init
000082da  w      .text	00000000 RTC_IRQHandler
0000d640 g     O .text	00000011 __fsym_reboot_desc
00008504 g     F .text	00000008 ADC_GetCalibrationStatus
20000160 g     O .data	00000010 AddrTempSize
00001496 g     F .text	0000003e rt_show_version
20005428 g       .bss	00000000 _ebss
00003fec g     F .text	0000004e ch32_timer_init
00009190 g     F .text	00000048 USART_GetITStatus
00011920 g     O .text	00000004 __rt_init_rti_start
000082f6  w      .text	00000000 DMA1_Channel7_IRQHandler
0000850c g     F .text	0000001a ADC_SoftwareStartConvCmd
000064fc g     F .text	000002b0 lcd_show_char
0000385e g     F .text	00000072 rt_hw_board_init
00003774 g     F .text	00000054 rt_device_pin_register
0000b65c g     F .text	00000012 vsniprintf
000084f2 g     F .text	00000008 ADC_GetResetCalibrationStatus
000118a8 g     O .text	0000000c __fsym___cmd_clear
00000792 g     F .text	00000010 rt_device_control
000082fe  w      .text	00000000 CAN1_RX1_IRQHandler
00001e68 g     F .text	0000004c rt_thread_resume
000091ee g     F .text	00000026 Delay_Init
000005c2 g     F .text	00000028 rtthread_startup
00003b2c g     F .text	00000088 ch32_pin_dettach_irq
00008360  w      .text	00000000 DVP_IRQHandler
0000833e  w      .text	00000000 UART5_IRQHandler
0000d450 g     O .text	0000000e __fsym_list_msgqueue_name
00006c12 g     F .text	00000020 user_EXTI4_IRQHandler
00002086 g     F .text	00000046 rt_timer_control
0000a8a6 g     F .text	00000086 .hidden __gtsf2
0000185e g     F .text	0000002a rt_object_get_information
2000332a g     O .data	00000001 DtwResultReg
200037a0 g     O .bss	00000100 rt_thread_priority_table
00008b7a g     F .text	00000004 GPIO_SetBits
200049b4 g     O .bss	00000058 serial1
00008310  w      .text	00000000 TIM4_IRQHandler
0000d8d4 g     O .text	0000001e __fsym_pinRead_desc
000068f4 g     F .text	000000d0 data_init
000021e8 g     F .text	00000016 clear
00009a96 g     F .text	000000b6 .hidden __ledf2
200033a8 g     O .bss	00000004 rt_object_put_hook
00008fec g     F .text	00000022 TIM_ARRPreloadConfig
000003ba g     F .text	00000028 .hidden __riscv_save_9
00008b82 g     F .text	0000000a GPIO_WriteBit
00003fba g     F .text	0000000a ch32_timer_attach_irq
00006c32 g     F .text	00000020 user_EXTI9_5_IRQHandler
00001bce g     F .text	00000054 rt_thread_exit
00008344  w      .text	00000000 DMA2_Channel1_IRQHandler
0000d504 g     O .text	00000015 __fsym___cmd_list_event_desc
00000646 g     F .text	00000034 rt_device_register
00000f0e g     F .text	00000040 rt_memmove
00011734 g     O .text	00000020 __sf_fake_stderr
000003c8 g     F .text	0000001a .hidden __riscv_save_4
000021d6 g     F .text	00000012 reboot
00008312  w      .text	00000000 I2C1_EV_IRQHandler
00011830 g     O .text	0000000c __fsym___cmd_list_mailbox
0000b8a6 g     F .text	000000ee __ssputs_r
2000341c g     O .bss	00000002 i
00008cb4 g     F .text	00000194 RCC_GetClocksFreq
0000d918 g     O .text	00000009 __fsym_pinWrite_name
000082f4  w      .text	00000000 DMA1_Channel6_IRQHandler
0000b282 g     F .text	00000076 .hidden __clzsi2
00002686 g     F .text	000000bc list_msgqueue
0000bc3c g     F .text	00000044 __sfputs_r
00004f2a g     F .text	00000066 TemplateSave
00008ec0 g     F .text	0000001c RNG_Cmd
0000833c  w      .text	00000000 UART4_IRQHandler
0000834a  w      .text	00000000 DMA2_Channel4_IRQHandler
0000c89c g     F .text	0000001a memchr
0000901c g     F .text	00000102 USART_Init
0000b3de g     F .text	000000a4 _free_r
0000830e  w      .text	00000000 TIM3_IRQHandler
000082de  w      .text	00000000 RCC_IRQHandler
00000fc8 g     F .text	0000001a rt_strlen
000003e2 g     F .text	0000000c .hidden __riscv_save_3
00008308  w      .text	00000000 TIM1_TRG_COM_IRQHandler
2000341b g     O .bss	00000001 dma_cnt
000118cc g     O .text	0000000c __fsym_reboot
000118d8 g     O .text	0000000c __fsym___cmd_help
0000595e g     F .text	00000156 DMA1_Channel1_IRQHandler
200033b4 g     O .bss	00000001 rt_current_priority
000039b2 g     F .text	000000b0 ch32_pin_mode
00011800 g     O .text	0000000c __fsym___cmd_list_timer
00000000 g       .init	00000000 _start
0000d460 g     O .text	00000018 __fsym___cmd_list_mailbox_desc
0000837a  w      .text	00000000 DMA2_Channel7_IRQHandler
200032a8 g     O .data	00000010 AHBPrescTable
000088bc g     F .text	0000000a EXTI_ClearFlag
000009ce g     F .text	0000002c rt_mutex_create
0000ca32 g     F .text	00000010 _lseek
00008916 g     F .text	0000004c FLASH_WaitForLastOperation
00002470 g     F .text	000000ba list_event
00003f0e g     F .text	000000ac EXTI15_10_IRQHandler
00008fd2 g     F .text	0000001a TIM_ITConfig
0000b5d2 g     F .text	0000002c strncmp
000036c8 g     F .text	0000001a rt_pin_mode
0000913e g     F .text	0000003c USART_ITConfig
00011914 g     O .text	0000000c __fsym_pinMode
0000d35c g     O .text	00000016 __fsym___cmd_list_device_desc
0000884e g     F .text	0000006e EXTI_Init
000069c4 g     F .text	0000002a user_timer_init
000117f4 g     O .text	0000000c __fsym_list_device
00011848 g     O .text	0000000c __fsym___cmd_list_mutex
20003452 g     O .bss	00000001 i_dtw
2000343e g     O .bss	00000001 TemplateWanted
000036fc g     F .text	00000018 rt_pin_read
0000d804 g     O .text	0000000b __fsym___cmd_help_name
000004c0 g     F .text	0000002e rt_tick_increase
000015a0 g     F .text	00000032 list_mem
0000d840 g     O .text	0000001b __fsym___cmd_ps_desc
00008b7e g     F .text	00000004 GPIO_ResetBits
00004070 g     F .text	0000001e TIM7_IRQHandler
0000d4e0 g     O .text	00000015 __fsym_list_mutex_desc
00002048 g     F .text	0000003e rt_timer_stop
0000c59a g     F .text	00000030 _close_r
00008352  w      .text	00000000 CAN2_TX_IRQHandler
0000d810 g     O .text	00000024 __fsym___cmd_free_desc
20000000 g       .dalign	00000000 _data_vma
00000fe2 g     F .text	00000400 rt_vsnprintf
00011890 g     O .text	0000000c __fsym___cmd_list_thread
00008338  w      .text	00000000 TIM5_IRQHandler
0000b302 g     F .text	00000026 memcmp
00003944 g     F .text	00000036 ch32_pin_write
000089a2 g     F .text	000000da FSMC_NORSRAMInit
0000c48a g     F .text	00000110 __swsetup_r
00003e86 g     F .text	00000088 EXTI9_5_IRQHandler
0000d600 g     O .text	00000014 __fsym_clear_desc
2000344c g     O .bss	00000004 tick
00002192 g     F .text	0000000e sw_clearpend
0000b796 g     F .text	000000a0 __sfp
000004ee g     F .text	00000028 rt_tick_from_millisecond
20003400 g     O .bss	00000004 _syscall_table_begin
00003854  w    F .text	0000000a rt_heap_end_get
00005af4 g     F .text	0000013a lcd_fsmc_init
00008b8c g     F .text	0000002a GPIO_EXTILineConfig
0000b5fe g     F .text	0000005e _vsnprintf_r
20003444 g     O .bss	00000002 ThreshVolt
000003ba g     F .text	00000028 .hidden __riscv_save_10
0000408e g     F .text	00000004 ch32dma_transmit
0000c2d8 g     F .text	00000030 __sread
00005f6e g     F .text	000001c4 lcd_draw_line
00002d2c g     F .text	00000054 finsh_get_prompt
00004ccc g     F .text	0000004e GetThreshHoldVolt
00008350  w      .text	00000000 ETH_WKUP_IRQHandler
0000b8a2 g     F .text	00000002 __malloc_lock
000003fc g     F .text	00000016 .hidden __riscv_restore_4
000003f2 g     F .text	00000020 .hidden __riscv_restore_8
0000c708 g     F .text	00000068 _fflush_r
000014d4 g     F .text	0000006c __rt_ffs
000003c8 g     F .text	0000001a .hidden __riscv_save_6
000088c6 g     F .text	0000001e EXTI_GetITStatus
0000831c  w      .text	00000000 SPI2_IRQHandler
00011754 g     O .text	00000020 __sf_fake_stdin
00002b98 g     F .text	000000ce msh_auto_complete
2000340c g     O .bss	00000004 _sysvar_table_end
00001b76 g     F .text	0000001e rt_enter_critical
00001e1a g     F .text	00000040 rt_thread_sleep
00000412 g     F .text	000000a8 memset
000003f2 g     F .text	00000020 .hidden __riscv_restore_9
00005cf2 g     F .text	000001ec lcd_init
000003fc g     F .text	00000016 .hidden __riscv_restore_7
00006b5c g     F .text	00000052 main
0000e35c g     O .text	000005e0 asc2_1608
0000d7ec g     O .text	00000015 __fsym___cmd_help_desc
00008370  w      .text	00000000 TIM10_BRK_IRQHandler
00000c24 g     F .text	00000032 rt_interrupt_leave
0000836e  w      .text	00000000 TIM9_CC_IRQHandler
20003330 g     O .data	00000002 Thresh
0000d3c4 g     O .text	00000011 __fsym___cmd_list_timer_name
0000c38c g     F .text	00000006 __sclose
0000834c  w      .text	00000000 DMA2_Channel5_IRQHandler
0000215c g     F .text	00000002 rt_system_timer_thread_init
0000b118 g     F .text	0000016a .hidden __truncdfsf2
00001cc4 g     F .text	0000002e rt_thread_init
0000b482 g     F .text	000000ce _malloc_r
0000d3ac g     O .text	00000015 __fsym___cmd_list_timer_desc
00011920 g       .text	00000000 __vsymtab_start
00003fc4 g     F .text	00000028 ch32_timer_mode
000082f2  w      .text	00000000 DMA1_Channel5_IRQHandler
00005ede g     F .text	00000090 lcd_fill
00003e54 g     F .text	00000032 EXTI4_IRQHandler
00009214 g     F .text	0000003a Delay_Ms
0000d554 g     O .text	00000019 __fsym___cmd_list_sem_desc
20003374 g     O .bss	00000001 rt_interrupt_nest
000082fc  w      .text	00000000 USB_LP_CAN1_RX0_IRQHandler
0000d61c g     O .text	00000011 __fsym___cmd_reboot_desc
0000d4b4 g     O .text	00000015 __fsym___cmd_list_mutex_desc
00001416  w    F .text	00000002 rt_hw_console_output
0000a92c g     F .text	00000294 .hidden __mulsf3
000085e4 g     F .text	0000001a ADC_BufferCmd
00004054 g     F .text	0000001c rt_hw_user_timer_init
200033ac g     O .bss	00000004 rt_object_take_hook
00002820 g     F .text	000000b2 list_timer
0000d3fc g     O .text	0000001d __fsym___cmd_list_msgqueue_desc
00006e06 g     F .text	0000010a SystemInit
00008332  w      .text	00000000 RNG_IRQHandler
0000d834 g     O .text	0000000b __fsym___cmd_free_name
000021a0 g     F .text	0000000c rt_hw_interrupt_disable
000009fa g     F .text	00000148 rt_mutex_take
00001eb4 g     F .text	0000002c rt_thread_startup
200033b8 g     O .bss	00000004 rt_current_thread
0000b550 g     F .text	0000003e iprintf
000013e2 g     F .text	00000006 rt_console_get_device
000082fa  w      .text	00000000 USB_HP_CAN1_TX_IRQHandler
00011634 g     O .text	00000100 .hidden __clz_tab
00000000 g       .init	00000000 _sinit
20003440 g     O .bss	00000004 Template_Sample
0000d4f8 g     O .text	0000000b __fsym_list_mutex_name
0000a8a6 g     F .text	00000086 .hidden __gesf2
0000c454 g     F .text	00000036 _write_r
000082ee  w      .text	00000000 DMA1_Channel3_IRQHandler
200033cc g     O .bss	00000004 rt_thread_ready_priority_group
00008334  w      .text	00000000 FSMC_IRQHandler
0000834e  w      .text	00000000 ETH_IRQHandler
0000bf20 g     F .text	0000010c _printf_common
000118e4 g     O .text	0000000c __fsym___cmd_free
20003360 g     O .data	00000004 _impure_ptr
00005810 g     F .text	000000c2 ADC_Function_Init
00008306  w      .text	00000000 TIM1_UP_IRQHandler
0000d478 g     O .text	00000013 __fsym___cmd_list_mailbox_name
20003334 g     O .data	00000004 fac_Odist
0000c5ca g     F .text	0000013e __sflush_r
20003420 g     O .bss	00000002 s
0000d374 g     O .text	00000012 __fsym___cmd_list_device_name
200033c4 g     O .bss	00000008 rt_thread_defunct
00011934 g     O .text	00000004 __rt_init_rti_board_end
0000b994 g     F .text	00000280 _svfiprintf_r
000082d4  w      .text	00000000 WWDG_IRQHandler
00011908 g     O .text	0000000c __fsym_pinWrite
0000087e g     F .text	00000026 rt_sem_init
00000276 g       .text	00000000 rt_hw_context_switch_exit
0000835c  w      .text	00000000 USBHSWakeup_IRQHandler
2000342a g     O .bss	00000002 DataLaserOff
00000e80 g     F .text	0000008e rt_memset
00008382  w      .text	00000000 DMA2_Channel11_IRQHandler
00002742 g     F .text	000000de list_device
20004a34 g     O .bss	00000010 Finaldist
000082cc  w      .text	00000000 Ecall_U_Mode_Handler
0001183c g     O .text	0000000c __fsym_list_mailbox
00000f84 g     F .text	00000044 rt_strncmp
00011860 g     O .text	0000000c __fsym___cmd_list_event
0000880e g     F .text	00000014 DMA_ITConfig
00008378  w      .text	00000000 DMA2_Channel6_IRQHandler
00011920 g       .text	00000000 __vsymtab_end
0000d8f4 g     O .text	00000008 __fsym_pinRead_name
0000d85c g     O .text	00000009 __fsym___cmd_ps_name
0001180c g     O .text	0000000c __fsym_list_timer
0000830c  w      .text	00000000 TIM2_IRQHandler
20010000 g       .stack	00000000 _eusrstack
00001918 g     F .text	0000002e rt_object_detach
000003e2 g     F .text	0000000c .hidden __riscv_save_2
0000b5fe g     F .text	0000005e _vsniprintf_r
000002d0 g       .text	00000000 SW_Handler
000067ac g     F .text	000000f6 lcd_show_string
00006fda g     F .text	00000b98 LCD_thread_entry
00008416 g     F .text	00000050 ADC_DeInit
00011930 g     O .text	00000004 __rt_init_rt_hw_usart_init
00000e62 g     F .text	0000001e rt_set_errno
00002152 g     F .text	0000000a rt_system_timer_init
00008304  w      .text	00000000 TIM1_BRK_IRQHandler
00001b28 g     F .text	0000004e rt_schedule_remove_thread
0000c7a4 g     F .text	00000058 __swhatbuf_r
00008466 g     F .text	0000005c ADC_Init
0000917a g     F .text	0000000a USART_SendData
00000bf2 g     F .text	00000032 rt_interrupt_enter
00008380  w      .text	00000000 DMA2_Channel10_IRQHandler
20000140 g     O .data	00000010 AddrTemp
00003db2 g     F .text	0000003e EXTI1_IRQHandler
20003437 g     O .bss	00000001 KeyReg
20004a44 g     O .bss	00000010 MedistanceValue
20003422 g     O .bss	00000002 s_dif
000021ac g     F .text	00000006 rt_hw_interrupt_enable
000003c8 g     F .text	0000001a .hidden __riscv_save_5
20003456 g     O .bss	00000001 kk
000117d0 g     O .text	0000000c __fsym_list_mem
0000924e g     F .text	0000003e _write
20003368 g       .data	00000000 _edata
000117e8 g     O .text	0000000c __fsym___cmd_list_device
20005428 g       .bss	00000000 _end
0000d41c g     O .text	00000014 __fsym___cmd_list_msgqueue_name
0000fadc g     O .text	00001780 asc2_3216
00001b94 g     F .text	0000003a rt_exit_critical
00008edc g     F .text	000000d6 TIM_TimeBaseInit
00008326  w      .text	00000000 RTCAlarm_IRQHandler
0000252a g     F .text	0000009c list_mutex
00002c66 g     F .text	0000000e cmd_ps
00004596 g     F .text	00000736 DrawMenu
00011940 g       .dlalign	00000000 _data_lma
00002dae g     F .text	0000007c finsh_set_device
00008372  w      .text	00000000 TIM10_UP_IRQHandler
0000836c  w      .text	00000000 TIM9_TRG_COM_IRQHandler
00008364  w      .text	00000000 UART7_IRQHandler
00008320  w      .text	00000000 USART2_IRQHandler
00008362  w      .text	00000000 UART6_IRQHandler
0000c308 g     F .text	0000004e __swrite
20003448 g     O .bss	00000004 p_AdcDmaData
00005936 g     F .text	00000028 DMA1Interrupt_Init
00000708 g     F .text	0000003e rt_device_close
00001cf2 g     F .text	00000006 rt_thread_self
0000bc80 g     F .text	000002a0 _vfiprintf_r
00011938 g     O .text	00000004 __rt_init_finsh_system_init
0000d388 g     O .text	00000016 __fsym_list_device_desc
0000b836 g     F .text	0000006c _fwalk_reent
00006f10 g     F .text	000000ca SystemCoreClockUpdate
0000af9e g     F .text	000000ce .hidden __floatunsisf
20003426 g     O .bss	00000002 DMAProcessFlag
20003453 g     O .bss	00000001 j_dtw
0000380a g     F .text	00000010 rt_user_timer_mode
0000d5c8 g     O .text	0000000c __fsym_list_thread_desc
20003434 g     O .bss	00000002 DifData
00008318  w      .text	00000000 I2C2_ER_IRQHandler
000082ec  w      .text	00000000 DMA1_Channel2_IRQHandler
00000b42 g     F .text	000000b0 rt_mutex_release
000019d6 g     F .text	00000032 rt_object_delete
0000418c g     F .text	000000c8 rt_hw_usart_init
000004ba g     F .text	00000006 rt_tick_get
00011774 g     O .text	00000020 __sf_fake_stdout
000003ee g     F .text	00000024 .hidden __riscv_restore_12
0000832a  w      .text	00000000 TIM8_BRK_IRQHandler
00008822 g     F .text	0000002c DMA_ClearFlag
0000ca42 g     F .text	00000010 _read
0000d548 g     O .text	0000000b __fsym_list_event_name
00008384  w      .text	00000000 handle_reset
00008300  w      .text	00000000 CAN1_SCE_IRQHandler
0000af48 g     F .text	00000056 .hidden __fixunssfsi
0001186c g     O .text	0000000c __fsym_list_event
200033b0 g     O .bss	00000004 rt_object_trytake_hook
000082dc  w      .text	00000000 FLASH_IRQHandler
000003e2 g     F .text	0000000c .hidden __riscv_save_0
0000d51c g     O .text	00000011 __fsym___cmd_list_event_name
0000ce3c g     O .text	0000001e __fsym_list_mem_desc
000008a4 g     F .text	000000e4 rt_sem_take
00004306 g     F .text	0000005c USART1_IRQHandler
00011878 g     O .text	0000000c __fsym___cmd_list_sem
0000c7fc g     F .text	000000a0 __smakebuf_r
0000b5c0 g     F .text	00000012 strlen
0000835a  w      .text	00000000 OTG_FS_IRQHandler
0000c02c g     F .text	000002ac _printf_i
0000833a  w      .text	00000000 SPI3_IRQHandler
0000d3d8 g     O .text	00000015 __fsym_list_timer_desc
000099e8 g     F .text	000000ae .hidden __gedf2
2000346c g     O .bss	00000004 __malloc_sbrk_start
00008ea2 g     F .text	0000001e RCC_APB2PeriphResetCmd
000013e8 g     F .text	0000002e rt_console_set_device
00003a62 g     F .text	000000ca ch32_pin_attach_irq
00008314  w      .text	00000000 I2C1_ER_IRQHandler
00008bb6 g     F .text	00000006 NVIC_PriorityGroupConfig
00008608 g     F .text	000001b0 DMA_DeInit
00011924 g     O .text	00000004 __rt_init_rti_board_start
0000076c g     F .text	00000026 rt_device_write
20003468 g     O .bss	00000004 __malloc_free_list
0000d5d4 g     O .text	0000000c __fsym_list_thread_name
000117d0 g       .text	00000000 __fsymtab_start
00000406 g     F .text	0000000c .hidden __riscv_restore_1
00003d64 g     F .text	0000001c rt_hw_pin_init
00009b4c g     F .text	0000073e .hidden __subdf3
0000bc80 g     F .text	000002a0 _vfprintf_r
000118b4 g     O .text	0000000c __fsym_clear
00001a6a g     F .text	00000072 rt_schedule
00001888 g     F .text	00000090 rt_object_init
0000397a g     F .text	00000038 ch32_pin_read
000118f0 g     O .text	0000000c __fsym___cmd_ps
200011d8 g     O .data	000020d0 DTW
00008b70 g     F .text	0000000a GPIO_ReadInputDataBit
0000d8fc g     O .text	0000001c __fsym_pinWrite_desc
20003438 g     O .bss	00000002 LaserFlag
00001fb6 g     F .text	00000092 rt_timer_start
000081ac g     F .text	0000011a thread_sema_init
0000a28a g     F .text	0000036a .hidden __addsf3
00002922 g     F .text	0000005e msh_help
20003418 g     O .bss	00000001 Flag
000035f8 g     F .text	000000b0 rt_hw_serial_isr
00008328  w      .text	00000000 USBWakeUp_IRQHandler
0000021c g       .text	00000000 rt_hw_context_switch
20004a24 g     O .bss	00000010 BestDtwValue
2000332c g     O .data	00000002 JudgeThresh
0000ca02 g     F .text	00000010 _close
00008348  w      .text	00000000 DMA2_Channel3_IRQHandler
00003bb4 g     F .text	000001b0 ch32_pin_irq_enable
0000d3a0 g     O .text	0000000c __fsym_list_device_name
0000d430 g     O .text	0000001d __fsym_list_msgqueue_desc
0000d580 g     O .text	00000019 __fsym_list_sem_desc



Disassembly of section .init:

00000000 <_sinit>:
   0:	3840806f          	j	8384 <handle_reset>
   4:	00000013          	nop
   8:	00000013          	nop
   c:	00000013          	nop
  10:	00000013          	nop
  14:	00000013          	nop
  18:	00000013          	nop
  1c:	00000013          	nop
  20:	00000013          	nop
  24:	00000013          	nop
  28:	00000013          	nop
  2c:	00000013          	nop
  30:	00000013          	nop
  34:	00100073          	ebreak

Disassembly of section .vector:

00000038 <_vector_base>:
	...
  40:	5ab4                	lw	a3,112(a3)
  42:	0000                	unimp
  44:	5ad4                	lw	a3,52(a3)
  46:	0000                	unimp
  48:	0000                	unimp
  4a:	0000                	unimp
  4c:	82ca                	mv	t0,s2
	...
  56:	0000                	unimp
  58:	82cc                	0x82cc
  5a:	0000                	unimp
  5c:	82ce                	mv	t0,s3
	...
  66:	0000                	unimp
  68:	38d0                	fld	fa2,176(s1)
  6a:	0000                	unimp
  6c:	0000                	unimp
  6e:	0000                	unimp
  70:	02d0                	addi	a2,sp,324
  72:	0000                	unimp
  74:	0000                	unimp
  76:	0000                	unimp
  78:	82d4                	0x82d4
  7a:	0000                	unimp
  7c:	82d6                	mv	t0,s5
  7e:	0000                	unimp
  80:	82d8                	0x82d8
  82:	0000                	unimp
  84:	82da                	mv	t0,s6
  86:	0000                	unimp
  88:	82dc                	0x82dc
  8a:	0000                	unimp
  8c:	82de                	mv	t0,s7
  8e:	0000                	unimp
  90:	3d80                	fld	fs0,56(a1)
  92:	0000                	unimp
  94:	3db2                	fld	fs11,296(sp)
  96:	0000                	unimp
  98:	3df0                	fld	fa2,248(a1)
  9a:	0000                	unimp
  9c:	3e22                	fld	ft8,40(sp)
  9e:	0000                	unimp
  a0:	3e54                	fld	fa3,184(a2)
  a2:	0000                	unimp
  a4:	595e                	lw	s2,244(sp)
  a6:	0000                	unimp
  a8:	82ec                	0x82ec
  aa:	0000                	unimp
  ac:	82ee                	mv	t0,s11
  ae:	0000                	unimp
  b0:	82f0                	0x82f0
  b2:	0000                	unimp
  b4:	82f2                	mv	t0,t3
  b6:	0000                	unimp
  b8:	82f4                	0x82f4
  ba:	0000                	unimp
  bc:	82f6                	mv	t0,t4
  be:	0000                	unimp
  c0:	82f8                	0x82f8
  c2:	0000                	unimp
  c4:	82fa                	mv	t0,t5
  c6:	0000                	unimp
  c8:	82fc                	0x82fc
  ca:	0000                	unimp
  cc:	82fe                	mv	t0,t6
  ce:	0000                	unimp
  d0:	8300                	0x8300
  d2:	0000                	unimp
  d4:	3e86                	fld	ft9,96(sp)
  d6:	0000                	unimp
  d8:	8304                	0x8304
  da:	0000                	unimp
  dc:	8306                	mv	t1,ra
  de:	0000                	unimp
  e0:	8308                	0x8308
  e2:	0000                	unimp
  e4:	830a                	mv	t1,sp
  e6:	0000                	unimp
  e8:	830c                	0x830c
  ea:	0000                	unimp
  ec:	830e                	mv	t1,gp
  ee:	0000                	unimp
  f0:	8310                	0x8310
  f2:	0000                	unimp
  f4:	8312                	mv	t1,tp
  f6:	0000                	unimp
  f8:	8314                	0x8314
  fa:	0000                	unimp
  fc:	8316                	mv	t1,t0
  fe:	0000                	unimp
 100:	8318                	0x8318
 102:	0000                	unimp
 104:	831a                	mv	t1,t1
 106:	0000                	unimp
 108:	831c                	0x831c
 10a:	0000                	unimp
 10c:	4306                	lw	t1,64(sp)
 10e:	0000                	unimp
 110:	8320                	0x8320
 112:	0000                	unimp
 114:	8322                	mv	t1,s0
 116:	0000                	unimp
 118:	3f0e                	fld	ft10,224(sp)
 11a:	0000                	unimp
 11c:	8326                	mv	t1,s1
 11e:	0000                	unimp
 120:	8328                	0x8328
 122:	0000                	unimp
 124:	832a                	mv	t1,a0
 126:	0000                	unimp
 128:	832c                	0x832c
 12a:	0000                	unimp
 12c:	832e                	mv	t1,a1
 12e:	0000                	unimp
 130:	8330                	0x8330
 132:	0000                	unimp
 134:	8332                	mv	t1,a2
 136:	0000                	unimp
 138:	8334                	0x8334
 13a:	0000                	unimp
 13c:	8336                	mv	t1,a3
 13e:	0000                	unimp
 140:	8338                	0x8338
 142:	0000                	unimp
 144:	833a                	mv	t1,a4
 146:	0000                	unimp
 148:	833c                	0x833c
 14a:	0000                	unimp
 14c:	833e                	mv	t1,a5
 14e:	0000                	unimp
 150:	8340                	0x8340
 152:	0000                	unimp
 154:	4070                	lw	a2,68(s0)
 156:	0000                	unimp
 158:	8344                	0x8344
 15a:	0000                	unimp
 15c:	8346                	mv	t1,a7
 15e:	0000                	unimp
 160:	8348                	0x8348
 162:	0000                	unimp
 164:	834a                	mv	t1,s2
 166:	0000                	unimp
 168:	834c                	0x834c
 16a:	0000                	unimp
 16c:	834e                	mv	t1,s3
 16e:	0000                	unimp
 170:	8350                	0x8350
 172:	0000                	unimp
 174:	8352                	mv	t1,s4
 176:	0000                	unimp
 178:	8354                	0x8354
 17a:	0000                	unimp
 17c:	8356                	mv	t1,s5
 17e:	0000                	unimp
 180:	8358                	0x8358
 182:	0000                	unimp
 184:	835a                	mv	t1,s6
 186:	0000                	unimp
 188:	835c                	0x835c
 18a:	0000                	unimp
 18c:	835e                	mv	t1,s7
 18e:	0000                	unimp
 190:	8360                	0x8360
 192:	0000                	unimp
 194:	8362                	mv	t1,s8
 196:	0000                	unimp
 198:	8364                	0x8364
 19a:	0000                	unimp
 19c:	8366                	mv	t1,s9
 19e:	0000                	unimp
 1a0:	8368                	0x8368
 1a2:	0000                	unimp
 1a4:	836a                	mv	t1,s10
 1a6:	0000                	unimp
 1a8:	836c                	0x836c
 1aa:	0000                	unimp
 1ac:	836e                	mv	t1,s11
 1ae:	0000                	unimp
 1b0:	8370                	0x8370
 1b2:	0000                	unimp
 1b4:	8372                	mv	t1,t3
 1b6:	0000                	unimp
 1b8:	8374                	0x8374
 1ba:	0000                	unimp
 1bc:	8376                	mv	t1,t4
 1be:	0000                	unimp
 1c0:	8378                	0x8378
 1c2:	0000                	unimp
 1c4:	837a                	mv	t1,t5
 1c6:	0000                	unimp
 1c8:	837c                	0x837c
 1ca:	0000                	unimp
 1cc:	837e                	mv	t1,t6
 1ce:	0000                	unimp
 1d0:	8380                	0x8380
 1d2:	0000                	unimp
 1d4:	8382                	jr	t2
	...

Disassembly of section .text:

00000200 <rt_hw_context_switch_to>:
     200:	20010297          	auipc	t0,0x20010
     204:	e0028293          	addi	t0,t0,-512 # 20010000 <_eusrstack>
     208:	e0028293          	addi	t0,t0,-512
     20c:	34029073          	csrw	mscratch,t0
     210:	00052103          	lw	sp,0(a0)
     214:	4522                	lw	a0,8(sp)
     216:	30051073          	csrw	mstatus,a0
     21a:	a8b1                	j	276 <rt_hw_context_switch_exit>

0000021c <rt_hw_context_switch>:
     21c:	7119                	addi	sp,sp,-128
     21e:	00252023          	sw	sp,0(a0)
     222:	c006                	sw	ra,0(sp)
     224:	c206                	sw	ra,4(sp)
     226:	ca16                	sw	t0,20(sp)
     228:	300022f3          	csrr	t0,mstatus
     22c:	0082f293          	andi	t0,t0,8
     230:	00028463          	beqz	t0,238 <rt_hw_context_switch+0x1c>
     234:	08000293          	li	t0,128
     238:	c416                	sw	t0,8(sp)
     23a:	c812                	sw	tp,16(sp)
     23c:	cc1a                	sw	t1,24(sp)
     23e:	ce1e                	sw	t2,28(sp)
     240:	d022                	sw	s0,32(sp)
     242:	d226                	sw	s1,36(sp)
     244:	d42a                	sw	a0,40(sp)
     246:	d62e                	sw	a1,44(sp)
     248:	d832                	sw	a2,48(sp)
     24a:	da36                	sw	a3,52(sp)
     24c:	dc3a                	sw	a4,56(sp)
     24e:	de3e                	sw	a5,60(sp)
     250:	c0c2                	sw	a6,64(sp)
     252:	c2c6                	sw	a7,68(sp)
     254:	c4ca                	sw	s2,72(sp)
     256:	c6ce                	sw	s3,76(sp)
     258:	c8d2                	sw	s4,80(sp)
     25a:	cad6                	sw	s5,84(sp)
     25c:	ccda                	sw	s6,88(sp)
     25e:	cede                	sw	s7,92(sp)
     260:	d0e2                	sw	s8,96(sp)
     262:	d2e6                	sw	s9,100(sp)
     264:	d4ea                	sw	s10,104(sp)
     266:	d6ee                	sw	s11,108(sp)
     268:	d8f2                	sw	t3,112(sp)
     26a:	daf6                	sw	t4,116(sp)
     26c:	dcfa                	sw	t5,120(sp)
     26e:	defe                	sw	t6,124(sp)
     270:	0005a103          	lw	sp,0(a1)
     274:	a009                	j	276 <rt_hw_context_switch_exit>

00000276 <rt_hw_context_switch_exit>:
     276:	4502                	lw	a0,0(sp)
     278:	34151073          	csrw	mepc,a0
     27c:	4092                	lw	ra,4(sp)
     27e:	00008537          	lui	a0,0x8
     282:	80050513          	addi	a0,a0,-2048 # 7800 <LCD_thread_entry+0x826>
     286:	30052073          	csrs	mstatus,a0
     28a:	4522                	lw	a0,8(sp)
     28c:	30052073          	csrs	mstatus,a0
     290:	4242                	lw	tp,16(sp)
     292:	42d2                	lw	t0,20(sp)
     294:	4362                	lw	t1,24(sp)
     296:	43f2                	lw	t2,28(sp)
     298:	5402                	lw	s0,32(sp)
     29a:	5492                	lw	s1,36(sp)
     29c:	5522                	lw	a0,40(sp)
     29e:	55b2                	lw	a1,44(sp)
     2a0:	5642                	lw	a2,48(sp)
     2a2:	56d2                	lw	a3,52(sp)
     2a4:	5762                	lw	a4,56(sp)
     2a6:	57f2                	lw	a5,60(sp)
     2a8:	4806                	lw	a6,64(sp)
     2aa:	4896                	lw	a7,68(sp)
     2ac:	4926                	lw	s2,72(sp)
     2ae:	49b6                	lw	s3,76(sp)
     2b0:	4a46                	lw	s4,80(sp)
     2b2:	4ad6                	lw	s5,84(sp)
     2b4:	4b66                	lw	s6,88(sp)
     2b6:	4bf6                	lw	s7,92(sp)
     2b8:	5c06                	lw	s8,96(sp)
     2ba:	5c96                	lw	s9,100(sp)
     2bc:	5d26                	lw	s10,104(sp)
     2be:	5db6                	lw	s11,108(sp)
     2c0:	5e46                	lw	t3,112(sp)
     2c2:	5ed6                	lw	t4,116(sp)
     2c4:	5f66                	lw	t5,120(sp)
     2c6:	5ff6                	lw	t6,124(sp)
     2c8:	6109                	addi	sp,sp,128
     2ca:	30200073          	mret
	...

000002d0 <SW_Handler>:
     2d0:	7119                	addi	sp,sp,-128
     2d2:	ca16                	sw	t0,20(sp)
     2d4:	08000293          	li	t0,128
     2d8:	c416                	sw	t0,8(sp)
     2da:	02000293          	li	t0,32
     2de:	8042a073          	csrs	0x804,t0
     2e2:	c206                	sw	ra,4(sp)
     2e4:	c812                	sw	tp,16(sp)
     2e6:	cc1a                	sw	t1,24(sp)
     2e8:	ce1e                	sw	t2,28(sp)
     2ea:	d022                	sw	s0,32(sp)
     2ec:	d226                	sw	s1,36(sp)
     2ee:	d42a                	sw	a0,40(sp)
     2f0:	d62e                	sw	a1,44(sp)
     2f2:	d832                	sw	a2,48(sp)
     2f4:	da36                	sw	a3,52(sp)
     2f6:	dc3a                	sw	a4,56(sp)
     2f8:	de3e                	sw	a5,60(sp)
     2fa:	c0c2                	sw	a6,64(sp)
     2fc:	c2c6                	sw	a7,68(sp)
     2fe:	c4ca                	sw	s2,72(sp)
     300:	c6ce                	sw	s3,76(sp)
     302:	c8d2                	sw	s4,80(sp)
     304:	cad6                	sw	s5,84(sp)
     306:	ccda                	sw	s6,88(sp)
     308:	cede                	sw	s7,92(sp)
     30a:	d0e2                	sw	s8,96(sp)
     30c:	d2e6                	sw	s9,100(sp)
     30e:	d4ea                	sw	s10,104(sp)
     310:	d6ee                	sw	s11,108(sp)
     312:	d8f2                	sw	t3,112(sp)
     314:	daf6                	sw	t4,116(sp)
     316:	dcfa                	sw	t5,120(sp)
     318:	defe                	sw	t6,124(sp)
     31a:	34011173          	csrrw	sp,mscratch,sp
     31e:	0d5000ef          	jal	ra,bf2 <rt_interrupt_enter>
     322:	671010ef          	jal	ra,2192 <sw_clearpend>
     326:	0ff000ef          	jal	ra,c24 <rt_interrupt_leave>
     32a:	34011173          	csrrw	sp,mscratch,sp
     32e:	8d018413          	addi	s0,gp,-1840 # 200033f8 <rt_thread_switch_interrupt_flag>
     332:	00042903          	lw	s2,0(s0)
     336:	02090463          	beqz	s2,35e <SW_Handler+0x8e>
     33a:	00042023          	sw	zero,0(s0)
     33e:	34102573          	csrr	a0,mepc
     342:	c02a                	sw	a0,0(sp)
     344:	8c818413          	addi	s0,gp,-1848 # 200033f0 <rt_interrupt_from_thread>
     348:	4004                	lw	s1,0(s0)
     34a:	0024a023          	sw	sp,0(s1)
     34e:	8cc18413          	addi	s0,gp,-1844 # 200033f4 <rt_interrupt_to_thread>
     352:	4004                	lw	s1,0(s0)
     354:	0004a103          	lw	sp,0(s1)
     358:	4502                	lw	a0,0(sp)
     35a:	34151073          	csrw	mepc,a0
     35e:	4092                	lw	ra,4(sp)
     360:	000082b7          	lui	t0,0x8
     364:	80028293          	addi	t0,t0,-2048 # 7800 <LCD_thread_entry+0x826>
     368:	3002a073          	csrs	mstatus,t0
     36c:	42a2                	lw	t0,8(sp)
     36e:	3002a073          	csrs	mstatus,t0
     372:	4242                	lw	tp,16(sp)
     374:	42d2                	lw	t0,20(sp)
     376:	4362                	lw	t1,24(sp)
     378:	43f2                	lw	t2,28(sp)
     37a:	5402                	lw	s0,32(sp)
     37c:	5492                	lw	s1,36(sp)
     37e:	5522                	lw	a0,40(sp)
     380:	55b2                	lw	a1,44(sp)
     382:	5642                	lw	a2,48(sp)
     384:	56d2                	lw	a3,52(sp)
     386:	5762                	lw	a4,56(sp)
     388:	57f2                	lw	a5,60(sp)
     38a:	4806                	lw	a6,64(sp)
     38c:	4896                	lw	a7,68(sp)
     38e:	4926                	lw	s2,72(sp)
     390:	49b6                	lw	s3,76(sp)
     392:	4a46                	lw	s4,80(sp)
     394:	4ad6                	lw	s5,84(sp)
     396:	4b66                	lw	s6,88(sp)
     398:	4bf6                	lw	s7,92(sp)
     39a:	5c06                	lw	s8,96(sp)
     39c:	5c96                	lw	s9,100(sp)
     39e:	5d26                	lw	s10,104(sp)
     3a0:	5db6                	lw	s11,108(sp)
     3a2:	5e46                	lw	t3,112(sp)
     3a4:	5ed6                	lw	t4,116(sp)
     3a6:	5f66                	lw	t5,120(sp)
     3a8:	5ff6                	lw	t6,124(sp)
     3aa:	6109                	addi	sp,sp,128
     3ac:	30200073          	mret
	...

000003b2 <__riscv_save_12>:
     3b2:	7139                	addi	sp,sp,-64
     3b4:	4301                	li	t1,0
     3b6:	c66e                	sw	s11,12(sp)
     3b8:	a019                	j	3be <__riscv_save_10+0x4>

000003ba <__riscv_save_10>:
     3ba:	7139                	addi	sp,sp,-64
     3bc:	5341                	li	t1,-16
     3be:	c86a                	sw	s10,16(sp)
     3c0:	ca66                	sw	s9,20(sp)
     3c2:	cc62                	sw	s8,24(sp)
     3c4:	ce5e                	sw	s7,28(sp)
     3c6:	a019                	j	3cc <__riscv_save_4+0x4>

000003c8 <__riscv_save_4>:
     3c8:	7139                	addi	sp,sp,-64
     3ca:	5301                	li	t1,-32
     3cc:	d05a                	sw	s6,32(sp)
     3ce:	d256                	sw	s5,36(sp)
     3d0:	d452                	sw	s4,40(sp)
     3d2:	d64e                	sw	s3,44(sp)
     3d4:	d84a                	sw	s2,48(sp)
     3d6:	da26                	sw	s1,52(sp)
     3d8:	dc22                	sw	s0,56(sp)
     3da:	de06                	sw	ra,60(sp)
     3dc:	40610133          	sub	sp,sp,t1
     3e0:	8282                	jr	t0

000003e2 <__riscv_save_0>:
     3e2:	1141                	addi	sp,sp,-16
     3e4:	c04a                	sw	s2,0(sp)
     3e6:	c226                	sw	s1,4(sp)
     3e8:	c422                	sw	s0,8(sp)
     3ea:	c606                	sw	ra,12(sp)
     3ec:	8282                	jr	t0

000003ee <__riscv_restore_12>:
     3ee:	4db2                	lw	s11,12(sp)
     3f0:	0141                	addi	sp,sp,16

000003f2 <__riscv_restore_10>:
     3f2:	4d02                	lw	s10,0(sp)
     3f4:	4c92                	lw	s9,4(sp)
     3f6:	4c22                	lw	s8,8(sp)
     3f8:	4bb2                	lw	s7,12(sp)
     3fa:	0141                	addi	sp,sp,16

000003fc <__riscv_restore_4>:
     3fc:	4b02                	lw	s6,0(sp)
     3fe:	4a92                	lw	s5,4(sp)
     400:	4a22                	lw	s4,8(sp)
     402:	49b2                	lw	s3,12(sp)
     404:	0141                	addi	sp,sp,16

00000406 <__riscv_restore_0>:
     406:	4902                	lw	s2,0(sp)
     408:	4492                	lw	s1,4(sp)
     40a:	4422                	lw	s0,8(sp)
     40c:	40b2                	lw	ra,12(sp)
     40e:	0141                	addi	sp,sp,16
     410:	8082                	ret

00000412 <memset>:
     412:	433d                	li	t1,15
     414:	872a                	mv	a4,a0
     416:	02c37363          	bgeu	t1,a2,43c <memset+0x2a>
     41a:	00f77793          	andi	a5,a4,15
     41e:	efbd                	bnez	a5,49c <memset+0x8a>
     420:	e5ad                	bnez	a1,48a <memset+0x78>
     422:	ff067693          	andi	a3,a2,-16
     426:	8a3d                	andi	a2,a2,15
     428:	96ba                	add	a3,a3,a4
     42a:	c30c                	sw	a1,0(a4)
     42c:	c34c                	sw	a1,4(a4)
     42e:	c70c                	sw	a1,8(a4)
     430:	c74c                	sw	a1,12(a4)
     432:	0741                	addi	a4,a4,16
     434:	fed76be3          	bltu	a4,a3,42a <memset+0x18>
     438:	e211                	bnez	a2,43c <memset+0x2a>
     43a:	8082                	ret
     43c:	40c306b3          	sub	a3,t1,a2
     440:	068a                	slli	a3,a3,0x2
     442:	00000297          	auipc	t0,0x0
     446:	9696                	add	a3,a3,t0
     448:	00a68067          	jr	10(a3)
     44c:	00b70723          	sb	a1,14(a4)
     450:	00b706a3          	sb	a1,13(a4)
     454:	00b70623          	sb	a1,12(a4)
     458:	00b705a3          	sb	a1,11(a4)
     45c:	00b70523          	sb	a1,10(a4)
     460:	00b704a3          	sb	a1,9(a4)
     464:	00b70423          	sb	a1,8(a4)
     468:	00b703a3          	sb	a1,7(a4)
     46c:	00b70323          	sb	a1,6(a4)
     470:	00b702a3          	sb	a1,5(a4)
     474:	00b70223          	sb	a1,4(a4)
     478:	00b701a3          	sb	a1,3(a4)
     47c:	00b70123          	sb	a1,2(a4)
     480:	00b700a3          	sb	a1,1(a4)
     484:	00b70023          	sb	a1,0(a4)
     488:	8082                	ret
     48a:	0ff5f593          	andi	a1,a1,255
     48e:	00859693          	slli	a3,a1,0x8
     492:	8dd5                	or	a1,a1,a3
     494:	01059693          	slli	a3,a1,0x10
     498:	8dd5                	or	a1,a1,a3
     49a:	b761                	j	422 <memset+0x10>
     49c:	00279693          	slli	a3,a5,0x2
     4a0:	00000297          	auipc	t0,0x0
     4a4:	9696                	add	a3,a3,t0
     4a6:	8286                	mv	t0,ra
     4a8:	fa8680e7          	jalr	-88(a3)
     4ac:	8096                	mv	ra,t0
     4ae:	17c1                	addi	a5,a5,-16
     4b0:	8f1d                	sub	a4,a4,a5
     4b2:	963e                	add	a2,a2,a5
     4b4:	f8c374e3          	bgeu	t1,a2,43c <memset+0x2a>
     4b8:	b7a5                	j	420 <memset+0xe>

000004ba <rt_tick_get>:
     4ba:	8401a503          	lw	a0,-1984(gp) # 20003368 <_edata>
     4be:	8082                	ret

000004c0 <rt_tick_increase>:
     4c0:	f23ff2ef          	jal	t0,3e2 <__riscv_save_0>
     4c4:	84018793          	addi	a5,gp,-1984 # 20003368 <_edata>
     4c8:	4398                	lw	a4,0(a5)
     4ca:	0705                	addi	a4,a4,1
     4cc:	c398                	sw	a4,0(a5)
     4ce:	025010ef          	jal	ra,1cf2 <rt_thread_self>
     4d2:	453c                	lw	a5,72(a0)
     4d4:	17fd                	addi	a5,a5,-1
     4d6:	c53c                	sw	a5,72(a0)
     4d8:	c781                	beqz	a5,4e0 <rt_tick_increase+0x20>
     4da:	3f3010ef          	jal	ra,20cc <rt_timer_check>
     4de:	b725                	j	406 <__riscv_restore_0>
     4e0:	417c                	lw	a5,68(a0)
     4e2:	c53c                	sw	a5,72(a0)
     4e4:	097010ef          	jal	ra,1d7a <rt_thread_yield>
     4e8:	3e5010ef          	jal	ra,20cc <rt_timer_check>
     4ec:	bf29                	j	406 <__riscv_restore_0>

000004ee <rt_tick_from_millisecond>:
     4ee:	02054263          	bltz	a0,512 <rt_tick_from_millisecond+0x24>
     4f2:	3e800693          	li	a3,1000
     4f6:	02d567b3          	rem	a5,a0,a3
     4fa:	02d787b3          	mul	a5,a5,a3
     4fe:	02d54733          	div	a4,a0,a3
     502:	3e778513          	addi	a0,a5,999
     506:	02d54533          	div	a0,a0,a3
     50a:	02d707b3          	mul	a5,a4,a3
     50e:	953e                	add	a0,a0,a5
     510:	8082                	ret
     512:	557d                	li	a0,-1
     514:	8082                	ret

00000516 <rti_start>:
     516:	4501                	li	a0,0
     518:	8082                	ret

0000051a <main_thread_entry>:
     51a:	ec9ff2ef          	jal	t0,3e2 <__riscv_save_0>
     51e:	6449                	lui	s0,0x12
     520:	67c9                	lui	a5,0x12
     522:	93440493          	addi	s1,s0,-1740 # 11934 <__rt_init_rti_board_end>
     526:	93c78793          	addi	a5,a5,-1732 # 1193c <__rt_init_rti_end>
     52a:	02f4f363          	bgeu	s1,a5,550 <main_thread_entry+0x36>
     52e:	17fd                	addi	a5,a5,-1
     530:	8f85                	sub	a5,a5,s1
     532:	9bf1                	andi	a5,a5,-4
     534:	0791                	addi	a5,a5,4
     536:	94be                	add	s1,s1,a5
     538:	000007b7          	lui	a5,0x0
     53c:	55e78793          	addi	a5,a5,1374 # 55e <rti_board_end>
     540:	93440413          	addi	s0,s0,-1740
     544:	a011                	j	548 <main_thread_entry+0x2e>
     546:	401c                	lw	a5,0(s0)
     548:	0411                	addi	s0,s0,4
     54a:	9782                	jalr	a5
     54c:	fe941de3          	bne	s0,s1,546 <main_thread_entry+0x2c>
     550:	60c060ef          	jal	ra,6b5c <main>
     554:	bd4d                	j	406 <__riscv_restore_0>

00000556 <rti_end>:
     556:	4501                	li	a0,0
     558:	8082                	ret

0000055a <rti_board_start>:
     55a:	4501                	li	a0,0
     55c:	8082                	ret

0000055e <rti_board_end>:
     55e:	4501                	li	a0,0
     560:	8082                	ret

00000562 <rt_components_board_init>:
     562:	e81ff2ef          	jal	t0,3e2 <__riscv_save_0>
     566:	6449                	lui	s0,0x12
     568:	67c9                	lui	a5,0x12
     56a:	92440493          	addi	s1,s0,-1756 # 11924 <__rt_init_rti_board_start>
     56e:	93478793          	addi	a5,a5,-1740 # 11934 <__rt_init_rti_board_end>
     572:	02f4f363          	bgeu	s1,a5,598 <rt_components_board_init+0x36>
     576:	17fd                	addi	a5,a5,-1
     578:	8f85                	sub	a5,a5,s1
     57a:	9bf1                	andi	a5,a5,-4
     57c:	0791                	addi	a5,a5,4
     57e:	94be                	add	s1,s1,a5
     580:	000007b7          	lui	a5,0x0
     584:	55a78793          	addi	a5,a5,1370 # 55a <rti_board_start>
     588:	92440413          	addi	s0,s0,-1756
     58c:	a011                	j	590 <rt_components_board_init+0x2e>
     58e:	401c                	lw	a5,0(s0)
     590:	0411                	addi	s0,s0,4
     592:	9782                	jalr	a5
     594:	fe941de3          	bne	s0,s1,58e <rt_components_board_init+0x2c>
     598:	b5bd                	j	406 <__riscv_restore_0>

0000059a <rt_application_init>:
     59a:	e49ff2ef          	jal	t0,3e2 <__riscv_save_0>
     59e:	000005b7          	lui	a1,0x0
     5a2:	0000d537          	lui	a0,0xd
     5a6:	47d1                	li	a5,20
     5a8:	4729                	li	a4,10
     5aa:	40000693          	li	a3,1024
     5ae:	4601                	li	a2,0
     5b0:	51a58593          	addi	a1,a1,1306 # 51a <main_thread_entry>
     5b4:	aa450513          	addi	a0,a0,-1372 # caa4 <_read+0x62>
     5b8:	740010ef          	jal	ra,1cf8 <rt_thread_create>
     5bc:	0f9010ef          	jal	ra,1eb4 <rt_thread_startup>
     5c0:	b599                	j	406 <__riscv_restore_0>

000005c2 <rtthread_startup>:
     5c2:	e21ff2ef          	jal	t0,3e2 <__riscv_save_0>
     5c6:	3db010ef          	jal	ra,21a0 <rt_hw_interrupt_disable>
     5ca:	294030ef          	jal	ra,385e <rt_hw_board_init>
     5ce:	6c9000ef          	jal	ra,1496 <rt_show_version>
     5d2:	381010ef          	jal	ra,2152 <rt_system_timer_init>
     5d6:	43a010ef          	jal	ra,1a10 <rt_system_scheduler_init>
     5da:	37c1                	jal	59a <rt_application_init>
     5dc:	381010ef          	jal	ra,215c <rt_system_timer_thread_init>
     5e0:	24a5                	jal	848 <rt_thread_idle_init>
     5e2:	45c010ef          	jal	ra,1a3e <rt_system_scheduler_start>
     5e6:	4501                	li	a0,0
     5e8:	bd39                	j	406 <__riscv_restore_0>

000005ea <entry>:
     5ea:	df9ff2ef          	jal	t0,3e2 <__riscv_save_0>
     5ee:	3fd1                	jal	5c2 <rtthread_startup>
     5f0:	4501                	li	a0,0
     5f2:	bd11                	j	406 <__riscv_restore_0>

000005f4 <rt_device_find>:
     5f4:	dd5ff2ef          	jal	t0,3c8 <__riscv_save_4>
     5f8:	89aa                	mv	s3,a0
     5fa:	6f8010ef          	jal	ra,1cf2 <rt_thread_self>
     5fe:	c119                	beqz	a0,604 <rt_device_find+0x10>
     600:	576010ef          	jal	ra,1b76 <rt_enter_critical>
     604:	4525                	li	a0,9
     606:	258010ef          	jal	ra,185e <rt_object_get_information>
     60a:	4140                	lw	s0,4(a0)
     60c:	00450913          	addi	s2,a0,4
     610:	01241663          	bne	s0,s2,61c <rt_device_find+0x28>
     614:	a01d                	j	63a <rt_device_find+0x46>
     616:	4000                	lw	s0,0(s0)
     618:	03240163          	beq	s0,s2,63a <rt_device_find+0x46>
     61c:	ff440493          	addi	s1,s0,-12
     620:	4621                	li	a2,8
     622:	85ce                	mv	a1,s3
     624:	8526                	mv	a0,s1
     626:	15f000ef          	jal	ra,f84 <rt_strncmp>
     62a:	f575                	bnez	a0,616 <rt_device_find+0x22>
     62c:	6c6010ef          	jal	ra,1cf2 <rt_thread_self>
     630:	c119                	beqz	a0,636 <rt_device_find+0x42>
     632:	562010ef          	jal	ra,1b94 <rt_exit_critical>
     636:	8526                	mv	a0,s1
     638:	b3d1                	j	3fc <__riscv_restore_4>
     63a:	6b8010ef          	jal	ra,1cf2 <rt_thread_self>
     63e:	4481                	li	s1,0
     640:	f96d                	bnez	a0,632 <rt_device_find+0x3e>
     642:	8526                	mv	a0,s1
     644:	bb65                	j	3fc <__riscv_restore_4>

00000646 <rt_device_register>:
     646:	c905                	beqz	a0,676 <rt_device_register+0x30>
     648:	d9bff2ef          	jal	t0,3e2 <__riscv_save_0>
     64c:	842a                	mv	s0,a0
     64e:	852e                	mv	a0,a1
     650:	8932                	mv	s2,a2
     652:	84ae                	mv	s1,a1
     654:	3745                	jal	5f4 <rt_device_find>
     656:	ed11                	bnez	a0,672 <rt_device_register+0x2c>
     658:	8522                	mv	a0,s0
     65a:	8626                	mv	a2,s1
     65c:	45a5                	li	a1,9
     65e:	22a010ef          	jal	ra,1888 <rt_object_init>
     662:	4501                	li	a0,0
     664:	01241c23          	sh	s2,24(s0)
     668:	00040e23          	sb	zero,28(s0)
     66c:	00041d23          	sh	zero,26(s0)
     670:	bb59                	j	406 <__riscv_restore_0>
     672:	557d                	li	a0,-1
     674:	bff5                	j	670 <rt_device_register+0x2a>
     676:	557d                	li	a0,-1
     678:	8082                	ret

0000067a <rt_device_open>:
     67a:	d69ff2ef          	jal	t0,3e2 <__riscv_save_0>
     67e:	01855783          	lhu	a5,24(a0)
     682:	1141                	addi	sp,sp,-16
     684:	842a                	mv	s0,a0
     686:	0107f713          	andi	a4,a5,16
     68a:	ef11                	bnez	a4,6a6 <rt_device_open+0x2c>
     68c:	5518                	lw	a4,40(a0)
     68e:	cb01                	beqz	a4,69e <rt_device_open+0x24>
     690:	c62e                	sw	a1,12(sp)
     692:	9702                	jalr	a4
     694:	84aa                	mv	s1,a0
     696:	e125                	bnez	a0,6f6 <rt_device_open+0x7c>
     698:	01845783          	lhu	a5,24(s0)
     69c:	45b2                	lw	a1,12(sp)
     69e:	0107e793          	ori	a5,a5,16
     6a2:	00f41c23          	sh	a5,24(s0)
     6a6:	8ba1                	andi	a5,a5,8
     6a8:	ef89                	bnez	a5,6c2 <rt_device_open+0x48>
     6aa:	545c                	lw	a5,44(s0)
     6ac:	cf9d                	beqz	a5,6ea <rt_device_open+0x70>
     6ae:	8522                	mv	a0,s0
     6b0:	9782                	jalr	a5
     6b2:	84aa                	mv	s1,a0
     6b4:	cd09                	beqz	a0,6ce <rt_device_open+0x54>
     6b6:	57e9                	li	a5,-6
     6b8:	00f50b63          	beq	a0,a5,6ce <rt_device_open+0x54>
     6bc:	8526                	mv	a0,s1
     6be:	0141                	addi	sp,sp,16
     6c0:	b399                	j	406 <__riscv_restore_0>
     6c2:	01a45783          	lhu	a5,26(s0)
     6c6:	8ba1                	andi	a5,a5,8
     6c8:	d3ed                	beqz	a5,6aa <rt_device_open+0x30>
     6ca:	54e5                	li	s1,-7
     6cc:	bfc5                	j	6bc <rt_device_open+0x42>
     6ce:	01a45583          	lhu	a1,26(s0)
     6d2:	01c44783          	lbu	a5,28(s0)
     6d6:	0085e593          	ori	a1,a1,8
     6da:	00b41d23          	sh	a1,26(s0)
     6de:	0785                	addi	a5,a5,1
     6e0:	00f40e23          	sb	a5,28(s0)
     6e4:	8526                	mv	a0,s1
     6e6:	0141                	addi	sp,sp,16
     6e8:	bb39                	j	406 <__riscv_restore_0>
     6ea:	6785                	lui	a5,0x1
     6ec:	f0f78793          	addi	a5,a5,-241 # f0f <rt_memmove+0x1>
     6f0:	8dfd                	and	a1,a1,a5
     6f2:	4481                	li	s1,0
     6f4:	bff9                	j	6d2 <rt_device_open+0x58>
     6f6:	862a                	mv	a2,a0
     6f8:	0000d537          	lui	a0,0xd
     6fc:	85a2                	mv	a1,s0
     6fe:	aac50513          	addi	a0,a0,-1364 # caac <_read+0x6a>
     702:	517000ef          	jal	ra,1418 <rt_kprintf>
     706:	bf5d                	j	6bc <rt_device_open+0x42>

00000708 <rt_device_close>:
     708:	01c54783          	lbu	a5,28(a0)
     70c:	cb95                	beqz	a5,740 <rt_device_close+0x38>
     70e:	cd5ff2ef          	jal	t0,3e2 <__riscv_save_0>
     712:	17fd                	addi	a5,a5,-1
     714:	0ff7f793          	andi	a5,a5,255
     718:	00f50e23          	sb	a5,28(a0)
     71c:	842a                	mv	s0,a0
     71e:	4681                	li	a3,0
     720:	eb89                	bnez	a5,732 <rt_device_close+0x2a>
     722:	591c                	lw	a5,48(a0)
     724:	cb89                	beqz	a5,736 <rt_device_close+0x2e>
     726:	9782                	jalr	a5
     728:	86aa                	mv	a3,a0
     72a:	c511                	beqz	a0,736 <rt_device_close+0x2e>
     72c:	57e9                	li	a5,-6
     72e:	00f50563          	beq	a0,a5,738 <rt_device_close+0x30>
     732:	8536                	mv	a0,a3
     734:	b9c9                	j	406 <__riscv_restore_0>
     736:	4681                	li	a3,0
     738:	00041d23          	sh	zero,26(s0)
     73c:	8536                	mv	a0,a3
     73e:	b1e1                	j	406 <__riscv_restore_0>
     740:	56fd                	li	a3,-1
     742:	8536                	mv	a0,a3
     744:	8082                	ret

00000746 <rt_device_read>:
     746:	c9dff2ef          	jal	t0,3e2 <__riscv_save_0>
     74a:	01c54703          	lbu	a4,28(a0)
     74e:	cb11                	beqz	a4,762 <rt_device_read+0x1c>
     750:	595c                	lw	a5,52(a0)
     752:	c399                	beqz	a5,758 <rt_device_read+0x12>
     754:	9782                	jalr	a5
     756:	b945                	j	406 <__riscv_restore_0>
     758:	5569                	li	a0,-6
     75a:	708000ef          	jal	ra,e62 <rt_set_errno>
     75e:	4501                	li	a0,0
     760:	b15d                	j	406 <__riscv_restore_0>
     762:	557d                	li	a0,-1
     764:	6fe000ef          	jal	ra,e62 <rt_set_errno>
     768:	4501                	li	a0,0
     76a:	b971                	j	406 <__riscv_restore_0>

0000076c <rt_device_write>:
     76c:	c77ff2ef          	jal	t0,3e2 <__riscv_save_0>
     770:	01c54703          	lbu	a4,28(a0)
     774:	cb11                	beqz	a4,788 <rt_device_write+0x1c>
     776:	5d1c                	lw	a5,56(a0)
     778:	c399                	beqz	a5,77e <rt_device_write+0x12>
     77a:	9782                	jalr	a5
     77c:	b169                	j	406 <__riscv_restore_0>
     77e:	5569                	li	a0,-6
     780:	6e2000ef          	jal	ra,e62 <rt_set_errno>
     784:	4501                	li	a0,0
     786:	b141                	j	406 <__riscv_restore_0>
     788:	557d                	li	a0,-1
     78a:	6d8000ef          	jal	ra,e62 <rt_set_errno>
     78e:	4501                	li	a0,0
     790:	b99d                	j	406 <__riscv_restore_0>

00000792 <rt_device_control>:
     792:	5d5c                	lw	a5,60(a0)
     794:	c789                	beqz	a5,79e <rt_device_control+0xc>
     796:	c4dff2ef          	jal	t0,3e2 <__riscv_save_0>
     79a:	9782                	jalr	a5
     79c:	b1ad                	j	406 <__riscv_restore_0>
     79e:	5569                	li	a0,-6
     7a0:	8082                	ret

000007a2 <rt_device_set_rx_indicate>:
     7a2:	d10c                	sw	a1,32(a0)
     7a4:	4501                	li	a0,0
     7a6:	8082                	ret

000007a8 <rt_thread_idle_excute>:
     7a8:	c21ff2ef          	jal	t0,3c8 <__riscv_save_4>
     7ac:	89c1a783          	lw	a5,-1892(gp) # 200033c4 <rt_thread_defunct>
     7b0:	89c18993          	addi	s3,gp,-1892 # 200033c4 <rt_thread_defunct>
     7b4:	07378163          	beq	a5,s3,816 <__stack_size+0x16>
     7b8:	4a85                	li	s5,1
     7ba:	a0a9                	j	804 <__stack_size+0x4>
     7bc:	89c1a403          	lw	s0,-1892(gp) # 200033c4 <rt_thread_defunct>
     7c0:	405c                	lw	a5,4(s0)
     7c2:	4018                	lw	a4,0(s0)
     7c4:	fec40493          	addi	s1,s0,-20
     7c8:	c35c                	sw	a5,4(a4)
     7ca:	c398                	sw	a4,0(a5)
     7cc:	c040                	sw	s0,4(s0)
     7ce:	c000                	sw	s0,0(s0)
     7d0:	3a6010ef          	jal	ra,1b76 <rt_enter_critical>
     7d4:	507c                	lw	a5,100(s0)
     7d6:	8526                	mv	a0,s1
     7d8:	c391                	beqz	a5,7dc <rt_thread_idle_excute+0x34>
     7da:	9782                	jalr	a5
     7dc:	8526                	mv	a0,s1
     7de:	22a010ef          	jal	ra,1a08 <rt_object_is_systemobject>
     7e2:	03550b63          	beq	a0,s5,818 <__stack_size+0x18>
     7e6:	3ae010ef          	jal	ra,1b94 <rt_exit_critical>
     7ea:	8552                	mv	a0,s4
     7ec:	1c1010ef          	jal	ra,21ac <rt_hw_interrupt_enable>
     7f0:	4848                	lw	a0,20(s0)
     7f2:	7bd000ef          	jal	ra,17ae <rt_free>
     7f6:	8526                	mv	a0,s1
     7f8:	1de010ef          	jal	ra,19d6 <rt_object_delete>
     7fc:	89c1a783          	lw	a5,-1892(gp) # 200033c4 <rt_thread_defunct>
     800:	01378b63          	beq	a5,s3,816 <__stack_size+0x16>
     804:	19d010ef          	jal	ra,21a0 <rt_hw_interrupt_disable>
     808:	89c1a783          	lw	a5,-1892(gp) # 200033c4 <rt_thread_defunct>
     80c:	8a2a                	mv	s4,a0
     80e:	fb3797e3          	bne	a5,s3,7bc <rt_thread_idle_excute+0x14>
     812:	19b010ef          	jal	ra,21ac <rt_hw_interrupt_enable>
     816:	b6dd                	j	3fc <__riscv_restore_4>
     818:	8526                	mv	a0,s1
     81a:	0fe010ef          	jal	ra,1918 <rt_object_detach>
     81e:	376010ef          	jal	ra,1b94 <rt_exit_critical>
     822:	8552                	mv	a0,s4
     824:	189010ef          	jal	ra,21ac <rt_hw_interrupt_enable>
     828:	bed1                	j	3fc <__riscv_restore_4>

0000082a <rt_thread_idle_entry>:
     82a:	bb9ff2ef          	jal	t0,3e2 <__riscv_save_0>
     82e:	9c818913          	addi	s2,gp,-1592 # 200034f0 <idle_hook_list>
     832:	9d818493          	addi	s1,gp,-1576 # 20003500 <rt_thread_stack>
     836:	844a                	mv	s0,s2
     838:	401c                	lw	a5,0(s0)
     83a:	0411                	addi	s0,s0,4
     83c:	c391                	beqz	a5,840 <rt_thread_idle_entry+0x16>
     83e:	9782                	jalr	a5
     840:	fe941ce3          	bne	s0,s1,838 <rt_thread_idle_entry+0xe>
     844:	3795                	jal	7a8 <rt_thread_idle_excute>
     846:	bfc5                	j	836 <rt_thread_idle_entry+0xc>

00000848 <rt_thread_idle_init>:
     848:	b9bff2ef          	jal	t0,3e2 <__riscv_save_0>
     84c:	00001637          	lui	a2,0x1
     850:	0000d5b7          	lui	a1,0xd
     854:	02000893          	li	a7,32
     858:	487d                	li	a6,31
     85a:	20000793          	li	a5,512
     85e:	9d818713          	addi	a4,gp,-1576 # 20003500 <rt_thread_stack>
     862:	4681                	li	a3,0
     864:	82a60613          	addi	a2,a2,-2006 # 82a <rt_thread_idle_entry>
     868:	ae458593          	addi	a1,a1,-1308 # cae4 <_read+0xa2>
     86c:	94818513          	addi	a0,gp,-1720 # 20003470 <idle>
     870:	454010ef          	jal	ra,1cc4 <rt_thread_init>
     874:	94818513          	addi	a0,gp,-1720 # 20003470 <idle>
     878:	63c010ef          	jal	ra,1eb4 <rt_thread_startup>
     87c:	b669                	j	406 <__riscv_restore_0>

0000087e <rt_sem_init>:
     87e:	b65ff2ef          	jal	t0,3e2 <__riscv_save_0>
     882:	8932                	mv	s2,a2
     884:	862e                	mv	a2,a1
     886:	4589                	li	a1,2
     888:	842a                	mv	s0,a0
     88a:	84b6                	mv	s1,a3
     88c:	7fd000ef          	jal	ra,1888 <rt_object_init>
     890:	01440793          	addi	a5,s0,20
     894:	cc1c                	sw	a5,24(s0)
     896:	c85c                	sw	a5,20(s0)
     898:	01241e23          	sh	s2,28(s0)
     89c:	009404a3          	sb	s1,9(s0)
     8a0:	4501                	li	a0,0
     8a2:	b695                	j	406 <__riscv_restore_0>

000008a4 <rt_sem_take>:
     8a4:	b25ff2ef          	jal	t0,3c8 <__riscv_save_4>
     8a8:	8881a783          	lw	a5,-1912(gp) # 200033b0 <rt_object_trytake_hook>
     8ac:	1141                	addi	sp,sp,-16
     8ae:	c62e                	sw	a1,12(sp)
     8b0:	842a                	mv	s0,a0
     8b2:	c391                	beqz	a5,8b6 <rt_sem_take+0x12>
     8b4:	9782                	jalr	a5
     8b6:	0eb010ef          	jal	ra,21a0 <rt_hw_interrupt_disable>
     8ba:	01c45783          	lhu	a5,28(s0)
     8be:	8a2a                	mv	s4,a0
     8c0:	ebd5                	bnez	a5,974 <rt_sem_take+0xd0>
     8c2:	47b2                	lw	a5,12(sp)
     8c4:	cfd5                	beqz	a5,980 <rt_sem_take+0xdc>
     8c6:	42c010ef          	jal	ra,1cf2 <rt_thread_self>
     8ca:	02052823          	sw	zero,48(a0)
     8ce:	00944983          	lbu	s3,9(s0)
     8d2:	84aa                	mv	s1,a0
     8d4:	01440913          	addi	s2,s0,20
     8d8:	4f8010ef          	jal	ra,1dd0 <rt_thread_suspend>
     8dc:	04098f63          	beqz	s3,93a <rt_sem_take+0x96>
     8e0:	4785                	li	a5,1
     8e2:	02f99263          	bne	s3,a5,906 <rt_sem_take+0x62>
     8e6:	485c                	lw	a5,20(s0)
     8e8:	04f90963          	beq	s2,a5,93a <rt_sem_take+0x96>
     8ec:	0354c683          	lbu	a3,53(s1)
     8f0:	0217c703          	lbu	a4,33(a5)
     8f4:	04e6f063          	bgeu	a3,a4,934 <rt_sem_take+0x90>
     8f8:	43d4                	lw	a3,4(a5)
     8fa:	01448713          	addi	a4,s1,20
     8fe:	c298                	sw	a4,0(a3)
     900:	cc94                	sw	a3,24(s1)
     902:	c3d8                	sw	a4,4(a5)
     904:	c8dc                	sw	a5,20(s1)
     906:	47b2                	lw	a5,12(sp)
     908:	04f04463          	bgtz	a5,950 <rt_sem_take+0xac>
     90c:	8552                	mv	a0,s4
     90e:	09f010ef          	jal	ra,21ac <rt_hw_interrupt_enable>
     912:	158010ef          	jal	ra,1a6a <rt_schedule>
     916:	5884                	lw	s1,48(s1)
     918:	e499                	bnez	s1,926 <rt_sem_take+0x82>
     91a:	8841a783          	lw	a5,-1916(gp) # 200033ac <rt_object_take_hook>
     91e:	4481                	li	s1,0
     920:	c399                	beqz	a5,926 <rt_sem_take+0x82>
     922:	8522                	mv	a0,s0
     924:	9782                	jalr	a5
     926:	8526                	mv	a0,s1
     928:	0141                	addi	sp,sp,16
     92a:	bcc9                	j	3fc <__riscv_restore_4>
     92c:	0217c703          	lbu	a4,33(a5)
     930:	fce6e4e3          	bltu	a3,a4,8f8 <rt_sem_take+0x54>
     934:	439c                	lw	a5,0(a5)
     936:	fef91be3          	bne	s2,a5,92c <rt_sem_take+0x88>
     93a:	4c18                	lw	a4,24(s0)
     93c:	01448793          	addi	a5,s1,20
     940:	c31c                	sw	a5,0(a4)
     942:	cc98                	sw	a4,24(s1)
     944:	cc1c                	sw	a5,24(s0)
     946:	47b2                	lw	a5,12(sp)
     948:	0124aa23          	sw	s2,20(s1)
     94c:	fcf050e3          	blez	a5,90c <rt_sem_take+0x68>
     950:	04c48913          	addi	s2,s1,76
     954:	0070                	addi	a2,sp,12
     956:	4581                	li	a1,0
     958:	854a                	mv	a0,s2
     95a:	72c010ef          	jal	ra,2086 <rt_timer_control>
     95e:	854a                	mv	a0,s2
     960:	656010ef          	jal	ra,1fb6 <rt_timer_start>
     964:	8552                	mv	a0,s4
     966:	047010ef          	jal	ra,21ac <rt_hw_interrupt_enable>
     96a:	100010ef          	jal	ra,1a6a <rt_schedule>
     96e:	5884                	lw	s1,48(s1)
     970:	d4cd                	beqz	s1,91a <rt_sem_take+0x76>
     972:	bf55                	j	926 <rt_sem_take+0x82>
     974:	17fd                	addi	a5,a5,-1
     976:	00f41e23          	sh	a5,28(s0)
     97a:	033010ef          	jal	ra,21ac <rt_hw_interrupt_enable>
     97e:	bf71                	j	91a <rt_sem_take+0x76>
     980:	02d010ef          	jal	ra,21ac <rt_hw_interrupt_enable>
     984:	54f9                	li	s1,-2
     986:	b745                	j	926 <rt_sem_take+0x82>

00000988 <rt_sem_release>:
     988:	a5bff2ef          	jal	t0,3e2 <__riscv_save_0>
     98c:	8801a783          	lw	a5,-1920(gp) # 200033a8 <rt_object_put_hook>
     990:	842a                	mv	s0,a0
     992:	c391                	beqz	a5,996 <rt_sem_release+0xe>
     994:	9782                	jalr	a5
     996:	00b010ef          	jal	ra,21a0 <rt_hw_interrupt_disable>
     99a:	485c                	lw	a5,20(s0)
     99c:	01440713          	addi	a4,s0,20
     9a0:	84aa                	mv	s1,a0
     9a2:	00e78d63          	beq	a5,a4,9bc <rt_sem_release+0x34>
     9a6:	fec78513          	addi	a0,a5,-20
     9aa:	4be010ef          	jal	ra,1e68 <rt_thread_resume>
     9ae:	8526                	mv	a0,s1
     9b0:	7fc010ef          	jal	ra,21ac <rt_hw_interrupt_enable>
     9b4:	0b6010ef          	jal	ra,1a6a <rt_schedule>
     9b8:	4501                	li	a0,0
     9ba:	b4b1                	j	406 <__riscv_restore_0>
     9bc:	01c45783          	lhu	a5,28(s0)
     9c0:	0785                	addi	a5,a5,1
     9c2:	00f41e23          	sh	a5,28(s0)
     9c6:	7e6010ef          	jal	ra,21ac <rt_hw_interrupt_enable>
     9ca:	4501                	li	a0,0
     9cc:	bc2d                	j	406 <__riscv_restore_0>

000009ce <rt_mutex_create>:
     9ce:	a15ff2ef          	jal	t0,3e2 <__riscv_save_0>
     9d2:	842e                	mv	s0,a1
     9d4:	85aa                	mv	a1,a0
     9d6:	450d                	li	a0,3
     9d8:	76f000ef          	jal	ra,1946 <rt_object_allocate>
     9dc:	cd09                	beqz	a0,9f6 <rt_mutex_create+0x28>
     9de:	01450793          	addi	a5,a0,20
     9e2:	cd1c                	sw	a5,24(a0)
     9e4:	c95c                	sw	a5,20(a0)
     9e6:	00ff07b7          	lui	a5,0xff0
     9ea:	0785                	addi	a5,a5,1
     9ec:	cd5c                	sw	a5,28(a0)
     9ee:	02052023          	sw	zero,32(a0)
     9f2:	008504a3          	sb	s0,9(a0)
     9f6:	a11ff06f          	j	406 <__riscv_restore_0>

000009fa <rt_mutex_take>:
     9fa:	9c1ff2ef          	jal	t0,3ba <__riscv_save_10>
     9fe:	1141                	addi	sp,sp,-16
     a00:	c62e                	sw	a1,12(sp)
     a02:	84aa                	mv	s1,a0
     a04:	2ee010ef          	jal	ra,1cf2 <rt_thread_self>
     a08:	842a                	mv	s0,a0
     a0a:	796010ef          	jal	ra,21a0 <rt_hw_interrupt_disable>
     a0e:	8881a783          	lw	a5,-1912(gp) # 200033b0 <rt_object_trytake_hook>
     a12:	8a2a                	mv	s4,a0
     a14:	c399                	beqz	a5,a1a <rt_mutex_take+0x20>
     a16:	8526                	mv	a0,s1
     a18:	9782                	jalr	a5
     a1a:	509c                	lw	a5,32(s1)
     a1c:	02042823          	sw	zero,48(s0)
     a20:	0c878263          	beq	a5,s0,ae4 <rt_mutex_take+0xea>
     a24:	03540c93          	addi	s9,s0,53
     a28:	01448993          	addi	s3,s1,20
     a2c:	01440a93          	addi	s5,s0,20
     a30:	4b05                	li	s6,1
     a32:	04c40c13          	addi	s8,s0,76
     a36:	5bdd                	li	s7,-9
     a38:	01c4d783          	lhu	a5,28(s1)
     a3c:	e7f1                	bnez	a5,b08 <rt_mutex_take+0x10e>
     a3e:	47b2                	lw	a5,12(sp)
     a40:	0e078363          	beqz	a5,b26 <rt_mutex_take+0x12c>
     a44:	5088                	lw	a0,32(s1)
     a46:	03544703          	lbu	a4,53(s0)
     a4a:	03554783          	lbu	a5,53(a0)
     a4e:	06f76e63          	bltu	a4,a5,aca <rt_mutex_take+0xd0>
     a52:	0094c903          	lbu	s2,9(s1)
     a56:	8522                	mv	a0,s0
     a58:	378010ef          	jal	ra,1dd0 <rt_thread_suspend>
     a5c:	02090563          	beqz	s2,a86 <rt_mutex_take+0x8c>
     a60:	03691b63          	bne	s2,s6,a96 <rt_mutex_take+0x9c>
     a64:	48dc                	lw	a5,20(s1)
     a66:	02f98063          	beq	s3,a5,a86 <rt_mutex_take+0x8c>
     a6a:	03544683          	lbu	a3,53(s0)
     a6e:	0217c703          	lbu	a4,33(a5) # ff0021 <__rt_init_end+0xfde6e1>
     a72:	00e6f763          	bgeu	a3,a4,a80 <rt_mutex_take+0x86>
     a76:	a8b9                	j	ad4 <rt_mutex_take+0xda>
     a78:	0217c703          	lbu	a4,33(a5)
     a7c:	04e6ec63          	bltu	a3,a4,ad4 <rt_mutex_take+0xda>
     a80:	439c                	lw	a5,0(a5)
     a82:	fef99be3          	bne	s3,a5,a78 <rt_mutex_take+0x7e>
     a86:	4c9c                	lw	a5,24(s1)
     a88:	0157a023          	sw	s5,0(a5)
     a8c:	cc1c                	sw	a5,24(s0)
     a8e:	0154ac23          	sw	s5,24(s1)
     a92:	01342a23          	sw	s3,20(s0)
     a96:	47b2                	lw	a5,12(sp)
     a98:	00f05a63          	blez	a5,aac <rt_mutex_take+0xb2>
     a9c:	0070                	addi	a2,sp,12
     a9e:	4581                	li	a1,0
     aa0:	8562                	mv	a0,s8
     aa2:	5e4010ef          	jal	ra,2086 <rt_timer_control>
     aa6:	8562                	mv	a0,s8
     aa8:	50e010ef          	jal	ra,1fb6 <rt_timer_start>
     aac:	8552                	mv	a0,s4
     aae:	6fe010ef          	jal	ra,21ac <rt_hw_interrupt_enable>
     ab2:	7b9000ef          	jal	ra,1a6a <rt_schedule>
     ab6:	03042903          	lw	s2,48(s0)
     aba:	08090063          	beqz	s2,b3a <rt_mutex_take+0x140>
     abe:	f7790de3          	beq	s2,s7,a38 <rt_mutex_take+0x3e>
     ac2:	854a                	mv	a0,s2
     ac4:	0141                	addi	sp,sp,16
     ac6:	92dff06f          	j	3f2 <__riscv_restore_10>
     aca:	8666                	mv	a2,s9
     acc:	4589                	li	a1,2
     ace:	412010ef          	jal	ra,1ee0 <rt_thread_control>
     ad2:	b741                	j	a52 <rt_mutex_take+0x58>
     ad4:	43d8                	lw	a4,4(a5)
     ad6:	01572023          	sw	s5,0(a4)
     ada:	cc18                	sw	a4,24(s0)
     adc:	0157a223          	sw	s5,4(a5)
     ae0:	c85c                	sw	a5,20(s0)
     ae2:	bf55                	j	a96 <rt_mutex_take+0x9c>
     ae4:	01f4c783          	lbu	a5,31(s1)
     ae8:	0785                	addi	a5,a5,1
     aea:	00f48fa3          	sb	a5,31(s1)
     aee:	8552                	mv	a0,s4
     af0:	6bc010ef          	jal	ra,21ac <rt_hw_interrupt_enable>
     af4:	8841a783          	lw	a5,-1916(gp) # 200033ac <rt_object_take_hook>
     af8:	4901                	li	s2,0
     afa:	d7e1                	beqz	a5,ac2 <rt_mutex_take+0xc8>
     afc:	8526                	mv	a0,s1
     afe:	9782                	jalr	a5
     b00:	854a                	mv	a0,s2
     b02:	0141                	addi	sp,sp,16
     b04:	8efff06f          	j	3f2 <__riscv_restore_10>
     b08:	17fd                	addi	a5,a5,-1
     b0a:	01f4c703          	lbu	a4,31(s1)
     b0e:	00f49e23          	sh	a5,28(s1)
     b12:	d080                	sw	s0,32(s1)
     b14:	03544683          	lbu	a3,53(s0)
     b18:	00170793          	addi	a5,a4,1
     b1c:	00f48fa3          	sb	a5,31(s1)
     b20:	00d48f23          	sb	a3,30(s1)
     b24:	b7e9                	j	aee <rt_mutex_take+0xf4>
     b26:	57f9                	li	a5,-2
     b28:	8552                	mv	a0,s4
     b2a:	d81c                	sw	a5,48(s0)
     b2c:	680010ef          	jal	ra,21ac <rt_hw_interrupt_enable>
     b30:	5979                	li	s2,-2
     b32:	854a                	mv	a0,s2
     b34:	0141                	addi	sp,sp,16
     b36:	8bdff06f          	j	3f2 <__riscv_restore_10>
     b3a:	666010ef          	jal	ra,21a0 <rt_hw_interrupt_disable>
     b3e:	8a2a                	mv	s4,a0
     b40:	b77d                	j	aee <rt_mutex_take+0xf4>

00000b42 <rt_mutex_release>:
     b42:	8a1ff2ef          	jal	t0,3e2 <__riscv_save_0>
     b46:	842a                	mv	s0,a0
     b48:	1aa010ef          	jal	ra,1cf2 <rt_thread_self>
     b4c:	84aa                	mv	s1,a0
     b4e:	652010ef          	jal	ra,21a0 <rt_hw_interrupt_disable>
     b52:	8801a783          	lw	a5,-1920(gp) # 200033a8 <rt_object_put_hook>
     b56:	892a                	mv	s2,a0
     b58:	c399                	beqz	a5,b5e <rt_mutex_release+0x1c>
     b5a:	8522                	mv	a0,s0
     b5c:	9782                	jalr	a5
     b5e:	501c                	lw	a5,32(s0)
     b60:	08979263          	bne	a5,s1,be4 <rt_mutex_release+0xa2>
     b64:	01f44783          	lbu	a5,31(s0)
     b68:	17fd                	addi	a5,a5,-1
     b6a:	0ff7f793          	andi	a5,a5,255
     b6e:	00f40fa3          	sb	a5,31(s0)
     b72:	e3bd                	bnez	a5,bd8 <rt_mutex_release+0x96>
     b74:	01e44703          	lbu	a4,30(s0)
     b78:	0354c783          	lbu	a5,53(s1)
     b7c:	00f70863          	beq	a4,a5,b8c <rt_mutex_release+0x4a>
     b80:	01e40613          	addi	a2,s0,30
     b84:	4589                	li	a1,2
     b86:	8526                	mv	a0,s1
     b88:	358010ef          	jal	ra,1ee0 <rt_thread_control>
     b8c:	485c                	lw	a5,20(s0)
     b8e:	01440713          	addi	a4,s0,20
     b92:	02e78963          	beq	a5,a4,bc4 <rt_mutex_release+0x82>
     b96:	fec78513          	addi	a0,a5,-20
     b9a:	01f44703          	lbu	a4,31(s0)
     b9e:	d008                	sw	a0,32(s0)
     ba0:	0217c683          	lbu	a3,33(a5)
     ba4:	00170793          	addi	a5,a4,1
     ba8:	00f40fa3          	sb	a5,31(s0)
     bac:	00d40f23          	sb	a3,30(s0)
     bb0:	2b8010ef          	jal	ra,1e68 <rt_thread_resume>
     bb4:	854a                	mv	a0,s2
     bb6:	5f6010ef          	jal	ra,21ac <rt_hw_interrupt_enable>
     bba:	6b1000ef          	jal	ra,1a6a <rt_schedule>
     bbe:	4501                	li	a0,0
     bc0:	847ff06f          	j	406 <__riscv_restore_0>
     bc4:	01c45783          	lhu	a5,28(s0)
     bc8:	02042023          	sw	zero,32(s0)
     bcc:	0785                	addi	a5,a5,1
     bce:	00f41e23          	sh	a5,28(s0)
     bd2:	57fd                	li	a5,-1
     bd4:	00f40f23          	sb	a5,30(s0)
     bd8:	854a                	mv	a0,s2
     bda:	5d2010ef          	jal	ra,21ac <rt_hw_interrupt_enable>
     bde:	4501                	li	a0,0
     be0:	827ff06f          	j	406 <__riscv_restore_0>
     be4:	57fd                	li	a5,-1
     be6:	854a                	mv	a0,s2
     be8:	d89c                	sw	a5,48(s1)
     bea:	5c2010ef          	jal	ra,21ac <rt_hw_interrupt_enable>
     bee:	557d                	li	a0,-1
     bf0:	bfc5                	j	be0 <rt_mutex_release+0x9e>

00000bf2 <rt_interrupt_enter>:
     bf2:	ff0ff2ef          	jal	t0,3e2 <__riscv_save_0>
     bf6:	1141                	addi	sp,sp,-16
     bf8:	5a8010ef          	jal	ra,21a0 <rt_hw_interrupt_disable>
     bfc:	84c18713          	addi	a4,gp,-1972 # 20003374 <rt_interrupt_nest>
     c00:	00074783          	lbu	a5,0(a4)
     c04:	8441a683          	lw	a3,-1980(gp) # 2000336c <rt_interrupt_enter_hook>
     c08:	0785                	addi	a5,a5,1
     c0a:	0ff7f793          	andi	a5,a5,255
     c0e:	00f70023          	sb	a5,0(a4)
     c12:	c681                	beqz	a3,c1a <rt_interrupt_enter+0x28>
     c14:	c62a                	sw	a0,12(sp)
     c16:	9682                	jalr	a3
     c18:	4532                	lw	a0,12(sp)
     c1a:	592010ef          	jal	ra,21ac <rt_hw_interrupt_enable>
     c1e:	0141                	addi	sp,sp,16
     c20:	fe6ff06f          	j	406 <__riscv_restore_0>

00000c24 <rt_interrupt_leave>:
     c24:	fbeff2ef          	jal	t0,3e2 <__riscv_save_0>
     c28:	1141                	addi	sp,sp,-16
     c2a:	576010ef          	jal	ra,21a0 <rt_hw_interrupt_disable>
     c2e:	84c18713          	addi	a4,gp,-1972 # 20003374 <rt_interrupt_nest>
     c32:	00074783          	lbu	a5,0(a4)
     c36:	8481a683          	lw	a3,-1976(gp) # 20003370 <rt_interrupt_leave_hook>
     c3a:	17fd                	addi	a5,a5,-1
     c3c:	0ff7f793          	andi	a5,a5,255
     c40:	00f70023          	sb	a5,0(a4)
     c44:	c681                	beqz	a3,c4c <rt_interrupt_leave+0x28>
     c46:	c62a                	sw	a0,12(sp)
     c48:	9682                	jalr	a3
     c4a:	4532                	lw	a0,12(sp)
     c4c:	560010ef          	jal	ra,21ac <rt_hw_interrupt_enable>
     c50:	0141                	addi	sp,sp,16
     c52:	fb4ff06f          	j	406 <__riscv_restore_0>

00000c56 <rt_interrupt_get_nest>:
     c56:	84c1c503          	lbu	a0,-1972(gp) # 20003374 <rt_interrupt_nest>
     c5a:	8082                	ret

00000c5c <print_number>:
     c5c:	f86ff2ef          	jal	t0,3e2 <__riscv_save_0>
     c60:	04087313          	andi	t1,a6,64
     c64:	1141                	addi	sp,sp,-16
     c66:	88aa                	mv	a7,a0
     c68:	16031263          	bnez	t1,dcc <print_number+0x170>
     c6c:	6f35                	lui	t5,0xd
     c6e:	de0f0f13          	addi	t5,t5,-544 # cde0 <small_digits.2582>
     c72:	01087393          	andi	t2,a6,16
     c76:	14038063          	beqz	t2,db6 <print_number+0x15a>
     c7a:	ffe87813          	andi	a6,a6,-2
     c7e:	849e                	mv	s1,t2
     c80:	02000f93          	li	t6,32
     c84:	00287513          	andi	a0,a6,2
     c88:	14050663          	beqz	a0,dd4 <print_number+0x178>
     c8c:	14064863          	bltz	a2,ddc <print_number+0x180>
     c90:	00487513          	andi	a0,a6,4
     c94:	02b00413          	li	s0,43
     c98:	1a050063          	beqz	a0,e38 <print_number+0x1dc>
     c9c:	14061463          	bnez	a2,de4 <print_number+0x188>
     ca0:	03000693          	li	a3,48
     ca4:	00d10023          	sb	a3,0(sp)
     ca8:	4301                	li	t1,0
     caa:	4e85                	li	t4,1
     cac:	8876                	mv	a6,t4
     cae:	00fed363          	bge	t4,a5,cb4 <print_number+0x58>
     cb2:	883e                	mv	a6,a5
     cb4:	41070733          	sub	a4,a4,a6
     cb8:	fff70e13          	addi	t3,a4,-1
     cbc:	e0a1                	bnez	s1,cfc <print_number+0xa0>
     cbe:	14041d63          	bnez	s0,e18 <print_number+0x1bc>
     cc2:	18e05b63          	blez	a4,e58 <print_number+0x1fc>
     cc6:	00188613          	addi	a2,a7,1
     cca:	8746                	mv	a4,a7
     ccc:	02000513          	li	a0,32
     cd0:	9672                	add	a2,a2,t3
     cd2:	00b77463          	bgeu	a4,a1,cda <print_number+0x7e>
     cd6:	00a70023          	sb	a0,0(a4)
     cda:	0705                	addi	a4,a4,1
     cdc:	40e606b3          	sub	a3,a2,a4
     ce0:	fed049e3          	bgtz	a3,cd2 <print_number+0x76>
     ce4:	fffe4693          	not	a3,t3
     ce8:	86fd                	srai	a3,a3,0x1f
     cea:	00de76b3          	and	a3,t3,a3
     cee:	fffe0713          	addi	a4,t3,-1
     cf2:	8f15                	sub	a4,a4,a3
     cf4:	0685                	addi	a3,a3,1
     cf6:	98b6                	add	a7,a7,a3
     cf8:	fff70e13          	addi	t3,a4,-1
     cfc:	12041663          	bnez	s0,e28 <print_number+0x1cc>
     d00:	02039d63          	bnez	t2,d3a <print_number+0xde>
     d04:	01c886b3          	add	a3,a7,t3
     d08:	8646                	mv	a2,a7
     d0a:	0685                	addi	a3,a3,1
     d0c:	14e05363          	blez	a4,e52 <print_number+0x1f6>
     d10:	00b67463          	bgeu	a2,a1,d18 <print_number+0xbc>
     d14:	01f60023          	sb	t6,0(a2)
     d18:	0605                	addi	a2,a2,1
     d1a:	40c68733          	sub	a4,a3,a2
     d1e:	fee049e3          	bgtz	a4,d10 <print_number+0xb4>
     d22:	fffe4693          	not	a3,t3
     d26:	86fd                	srai	a3,a3,0x1f
     d28:	00de76b3          	and	a3,t3,a3
     d2c:	fffe0713          	addi	a4,t3,-1
     d30:	8f15                	sub	a4,a4,a3
     d32:	0685                	addi	a3,a3,1
     d34:	98b6                	add	a7,a7,a3
     d36:	fff70e13          	addi	t3,a4,-1
     d3a:	41d80533          	sub	a0,a6,t4
     d3e:	9546                	add	a0,a0,a7
     d40:	03000693          	li	a3,48
     d44:	110ed263          	bge	t4,a6,e48 <print_number+0x1ec>
     d48:	00b8f463          	bgeu	a7,a1,d50 <print_number+0xf4>
     d4c:	00d88023          	sb	a3,0(a7)
     d50:	0885                	addi	a7,a7,1
     d52:	fea89be3          	bne	a7,a0,d48 <print_number+0xec>
     d56:	c78d                	beqz	a5,d80 <print_number+0x124>
     d58:	00130813          	addi	a6,t1,1
     d5c:	006106b3          	add	a3,sp,t1
     d60:	87aa                	mv	a5,a0
     d62:	010508b3          	add	a7,a0,a6
     d66:	00b7f663          	bgeu	a5,a1,d72 <print_number+0x116>
     d6a:	0006c603          	lbu	a2,0(a3)
     d6e:	00c78023          	sb	a2,0(a5)
     d72:	0785                	addi	a5,a5,1
     d74:	40f88633          	sub	a2,a7,a5
     d78:	16fd                	addi	a3,a3,-1
     d7a:	fec046e3          	bgtz	a2,d66 <print_number+0x10a>
     d7e:	9542                	add	a0,a0,a6
     d80:	001e0693          	addi	a3,t3,1
     d84:	87aa                	mv	a5,a0
     d86:	02000613          	li	a2,32
     d8a:	96aa                	add	a3,a3,a0
     d8c:	02e05263          	blez	a4,db0 <print_number+0x154>
     d90:	00b7f463          	bgeu	a5,a1,d98 <print_number+0x13c>
     d94:	00c78023          	sb	a2,0(a5)
     d98:	0785                	addi	a5,a5,1
     d9a:	40f68733          	sub	a4,a3,a5
     d9e:	fee049e3          	bgtz	a4,d90 <print_number+0x134>
     da2:	fffe4713          	not	a4,t3
     da6:	877d                	srai	a4,a4,0x1f
     da8:	00ee7e33          	and	t3,t3,a4
     dac:	0e05                	addi	t3,t3,1
     dae:	9572                	add	a0,a0,t3
     db0:	0141                	addi	sp,sp,16
     db2:	e54ff06f          	j	406 <__riscv_restore_0>
     db6:	00187513          	andi	a0,a6,1
     dba:	01187493          	andi	s1,a6,17
     dbe:	03000f93          	li	t6,48
     dc2:	ec0511e3          	bnez	a0,c84 <print_number+0x28>
     dc6:	02000f93          	li	t6,32
     dca:	bd6d                	j	c84 <print_number+0x28>
     dcc:	6f35                	lui	t5,0xd
     dce:	d3cf0f13          	addi	t5,t5,-708 # cd3c <large_digits.2583>
     dd2:	b545                	j	c72 <print_number+0x16>
     dd4:	4401                	li	s0,0
     dd6:	ec0605e3          	beqz	a2,ca0 <print_number+0x44>
     dda:	a029                	j	de4 <print_number+0x188>
     ddc:	40c00633          	neg	a2,a2
     de0:	02d00413          	li	s0,45
     de4:	4301                	li	t1,0
     de6:	42a9                	li	t0,10
     de8:	a839                	j	e06 <print_number+0x1aa>
     dea:	8211                	srli	a2,a2,0x4
     dec:	957a                	add	a0,a0,t5
     dee:	00054e03          	lbu	t3,0(a0)
     df2:	00130813          	addi	a6,t1,1
     df6:	01010533          	add	a0,sp,a6
     dfa:	ffc50fa3          	sb	t3,-1(a0)
     dfe:	8ec2                	mv	t4,a6
     e00:	ea0606e3          	beqz	a2,cac <print_number+0x50>
     e04:	8342                	mv	t1,a6
     e06:	00f67513          	andi	a0,a2,15
     e0a:	fe5690e3          	bne	a3,t0,dea <print_number+0x18e>
     e0e:	02d67533          	remu	a0,a2,a3
     e12:	02d65633          	divu	a2,a2,a3
     e16:	bfd9                	j	dec <print_number+0x190>
     e18:	02e05a63          	blez	a4,e4c <print_number+0x1f0>
     e1c:	4685                	li	a3,1
     e1e:	ffe70e13          	addi	t3,a4,-2
     e22:	ead712e3          	bne	a4,a3,cc6 <print_number+0x6a>
     e26:	5e79                	li	t3,-2
     e28:	00b8f463          	bgeu	a7,a1,e30 <print_number+0x1d4>
     e2c:	00888023          	sb	s0,0(a7)
     e30:	8772                	mv	a4,t3
     e32:	0885                	addi	a7,a7,1
     e34:	1e7d                	addi	t3,t3,-1
     e36:	b5e9                	j	d00 <print_number+0xa4>
     e38:	00887813          	andi	a6,a6,8
     e3c:	01003433          	snez	s0,a6
     e40:	0416                	slli	s0,s0,0x5
     e42:	e4060fe3          	beqz	a2,ca0 <print_number+0x44>
     e46:	bf79                	j	de4 <print_number+0x188>
     e48:	8546                	mv	a0,a7
     e4a:	b731                	j	d56 <print_number+0xfa>
     e4c:	ffe70e13          	addi	t3,a4,-2
     e50:	bfe1                	j	e28 <print_number+0x1cc>
     e52:	8772                	mv	a4,t3
     e54:	1e7d                	addi	t3,t3,-1
     e56:	b5d5                	j	d3a <print_number+0xde>
     e58:	ffe70693          	addi	a3,a4,-2
     e5c:	8772                	mv	a4,t3
     e5e:	8e36                	mv	t3,a3
     e60:	b545                	j	d00 <print_number+0xa4>

00000e62 <rt_set_errno>:
     e62:	d80ff2ef          	jal	t0,3e2 <__riscv_save_0>
     e66:	842a                	mv	s0,a0
     e68:	33fd                	jal	c56 <rt_interrupt_get_nest>
     e6a:	c509                	beqz	a0,e74 <rt_set_errno+0x12>
     e6c:	8481a823          	sw	s0,-1968(gp) # 20003378 <__rt_errno>
     e70:	d96ff06f          	j	406 <__riscv_restore_0>
     e74:	67f000ef          	jal	ra,1cf2 <rt_thread_self>
     e78:	d975                	beqz	a0,e6c <rt_set_errno+0xa>
     e7a:	d900                	sw	s0,48(a0)
     e7c:	d8aff06f          	j	406 <__riscv_restore_0>

00000e80 <rt_memset>:
     e80:	478d                	li	a5,3
     e82:	06c7f263          	bgeu	a5,a2,ee6 <rt_memset+0x66>
     e86:	00357793          	andi	a5,a0,3
     e8a:	efa5                	bnez	a5,f02 <rt_memset+0x82>
     e8c:	0ff5f793          	andi	a5,a1,255
     e90:	00879693          	slli	a3,a5,0x8
     e94:	8fd5                	or	a5,a5,a3
     e96:	01079693          	slli	a3,a5,0x10
     e9a:	473d                	li	a4,15
     e9c:	8edd                	or	a3,a3,a5
     e9e:	06c77663          	bgeu	a4,a2,f0a <rt_memset+0x8a>
     ea2:	ff060793          	addi	a5,a2,-16
     ea6:	9bc1                	andi	a5,a5,-16
     ea8:	07c1                	addi	a5,a5,16
     eaa:	97aa                	add	a5,a5,a0
     eac:	872a                	mv	a4,a0
     eae:	c314                	sw	a3,0(a4)
     eb0:	c354                	sw	a3,4(a4)
     eb2:	c714                	sw	a3,8(a4)
     eb4:	0741                	addi	a4,a4,16
     eb6:	fed72e23          	sw	a3,-4(a4)
     eba:	fee79ae3          	bne	a5,a4,eae <rt_memset+0x2e>
     ebe:	00c67813          	andi	a6,a2,12
     ec2:	8a3d                	andi	a2,a2,15
     ec4:	02080263          	beqz	a6,ee8 <rt_memset+0x68>
     ec8:	ffc60793          	addi	a5,a2,-4
     ecc:	9bf1                	andi	a5,a5,-4
     ece:	0791                	addi	a5,a5,4
     ed0:	97ba                	add	a5,a5,a4
     ed2:	0711                	addi	a4,a4,4
     ed4:	fed72e23          	sw	a3,-4(a4)
     ed8:	fef71de3          	bne	a4,a5,ed2 <rt_memset+0x52>
     edc:	8a0d                	andi	a2,a2,3
     ede:	fff60713          	addi	a4,a2,-1
     ee2:	e611                	bnez	a2,eee <rt_memset+0x6e>
     ee4:	8082                	ret
     ee6:	87aa                	mv	a5,a0
     ee8:	fff60713          	addi	a4,a2,-1
     eec:	de65                	beqz	a2,ee4 <rt_memset+0x64>
     eee:	0705                	addi	a4,a4,1
     ef0:	05e2                	slli	a1,a1,0x18
     ef2:	85e1                	srai	a1,a1,0x18
     ef4:	973e                	add	a4,a4,a5
     ef6:	0785                	addi	a5,a5,1
     ef8:	feb78fa3          	sb	a1,-1(a5)
     efc:	fee79de3          	bne	a5,a4,ef6 <rt_memset+0x76>
     f00:	8082                	ret
     f02:	fff60713          	addi	a4,a2,-1
     f06:	87aa                	mv	a5,a0
     f08:	b7dd                	j	eee <rt_memset+0x6e>
     f0a:	872a                	mv	a4,a0
     f0c:	bf75                	j	ec8 <rt_memset+0x48>

00000f0e <rt_memmove>:
     f0e:	02a5f263          	bgeu	a1,a0,f32 <rt_memmove+0x24>
     f12:	00c58733          	add	a4,a1,a2
     f16:	00e57e63          	bgeu	a0,a4,f32 <rt_memmove+0x24>
     f1a:	00c507b3          	add	a5,a0,a2
     f1e:	c615                	beqz	a2,f4a <rt_memmove+0x3c>
     f20:	177d                	addi	a4,a4,-1
     f22:	00070683          	lb	a3,0(a4)
     f26:	17fd                	addi	a5,a5,-1
     f28:	00d78023          	sb	a3,0(a5)
     f2c:	fef51ae3          	bne	a0,a5,f20 <rt_memmove+0x12>
     f30:	8082                	ret
     f32:	00c506b3          	add	a3,a0,a2
     f36:	87aa                	mv	a5,a0
     f38:	ca11                	beqz	a2,f4c <rt_memmove+0x3e>
     f3a:	0585                	addi	a1,a1,1
     f3c:	fff58703          	lb	a4,-1(a1)
     f40:	0785                	addi	a5,a5,1
     f42:	fee78fa3          	sb	a4,-1(a5)
     f46:	fed79ae3          	bne	a5,a3,f3a <rt_memmove+0x2c>
     f4a:	8082                	ret
     f4c:	8082                	ret

00000f4e <rt_strncpy>:
     f4e:	ca15                	beqz	a2,f82 <rt_strncpy+0x34>
     f50:	86aa                	mv	a3,a0
     f52:	a029                	j	f5c <rt_strncpy+0xe>
     f54:	8642                	mv	a2,a6
     f56:	86be                	mv	a3,a5
     f58:	02080563          	beqz	a6,f82 <rt_strncpy+0x34>
     f5c:	0585                	addi	a1,a1,1
     f5e:	fff58703          	lb	a4,-1(a1)
     f62:	00168793          	addi	a5,a3,1
     f66:	fff60813          	addi	a6,a2,-1
     f6a:	fee78fa3          	sb	a4,-1(a5)
     f6e:	f37d                	bnez	a4,f54 <rt_strncpy+0x6>
     f70:	00080963          	beqz	a6,f82 <rt_strncpy+0x34>
     f74:	9636                	add	a2,a2,a3
     f76:	0785                	addi	a5,a5,1
     f78:	fe078fa3          	sb	zero,-1(a5)
     f7c:	fec79de3          	bne	a5,a2,f76 <rt_strncpy+0x28>
     f80:	8082                	ret
     f82:	8082                	ret

00000f84 <rt_strncmp>:
     f84:	ce15                	beqz	a2,fc0 <rt_strncmp+0x3c>
     f86:	00050683          	lb	a3,0(a0)
     f8a:	0005c783          	lbu	a5,0(a1)
     f8e:	00158713          	addi	a4,a1,1
     f92:	40f687b3          	sub	a5,a3,a5
     f96:	07e2                	slli	a5,a5,0x18
     f98:	87e1                	srai	a5,a5,0x18
     f9a:	e78d                	bnez	a5,fc4 <rt_strncmp+0x40>
     f9c:	00150793          	addi	a5,a0,1
     fa0:	c285                	beqz	a3,fc0 <rt_strncmp+0x3c>
     fa2:	962e                	add	a2,a2,a1
     fa4:	00e60e63          	beq	a2,a4,fc0 <rt_strncmp+0x3c>
     fa8:	0705                	addi	a4,a4,1
     faa:	00078683          	lb	a3,0(a5)
     fae:	fff74503          	lbu	a0,-1(a4)
     fb2:	0785                	addi	a5,a5,1
     fb4:	40a68533          	sub	a0,a3,a0
     fb8:	0562                	slli	a0,a0,0x18
     fba:	8561                	srai	a0,a0,0x18
     fbc:	e119                	bnez	a0,fc2 <rt_strncmp+0x3e>
     fbe:	f2fd                	bnez	a3,fa4 <rt_strncmp+0x20>
     fc0:	4501                	li	a0,0
     fc2:	8082                	ret
     fc4:	853e                	mv	a0,a5
     fc6:	8082                	ret

00000fc8 <rt_strlen>:
     fc8:	00050783          	lb	a5,0(a0)
     fcc:	cb89                	beqz	a5,fde <rt_strlen+0x16>
     fce:	87aa                	mv	a5,a0
     fd0:	0785                	addi	a5,a5,1
     fd2:	00078703          	lb	a4,0(a5)
     fd6:	ff6d                	bnez	a4,fd0 <rt_strlen+0x8>
     fd8:	40a78533          	sub	a0,a5,a0
     fdc:	8082                	ret
     fde:	4501                	li	a0,0
     fe0:	8082                	ret

00000fe2 <rt_vsnprintf>:
     fe2:	bd8ff2ef          	jal	t0,3ba <__riscv_save_10>
     fe6:	00b50a33          	add	s4,a0,a1
     fea:	8b2a                	mv	s6,a0
     fec:	8336                	mv	t1,a3
     fee:	8c2e                	mv	s8,a1
     ff0:	00aa7563          	bgeu	s4,a0,ffa <rt_vsnprintf+0x18>
     ff4:	fff54c13          	not	s8,a0
     ff8:	5a7d                	li	s4,-1
     ffa:	00060783          	lb	a5,0(a2)
     ffe:	855a                	mv	a0,s6
    1000:	3a078363          	beqz	a5,13a6 <rt_vsnprintf+0x3c4>
    1004:	6bb5                	lui	s7,0xd
    1006:	6941                	lui	s2,0x10
    1008:	02500a93          	li	s5,37
    100c:	02b00493          	li	s1,43
    1010:	aecb8b93          	addi	s7,s7,-1300 # caec <_read+0xaa>
    1014:	197d                	addi	s2,s2,-1
    1016:	0000d9b7          	lui	s3,0xd
    101a:	03578663          	beq	a5,s5,1046 <rt_vsnprintf+0x64>
    101e:	01457463          	bgeu	a0,s4,1026 <rt_vsnprintf+0x44>
    1022:	00f50023          	sb	a5,0(a0)
    1026:	00160783          	lb	a5,1(a2)
    102a:	0505                	addi	a0,a0,1
    102c:	0605                	addi	a2,a2,1
    102e:	f7f5                	bnez	a5,101a <rt_vsnprintf+0x38>
    1030:	41650b33          	sub	s6,a0,s6
    1034:	000c0663          	beqz	s8,1040 <rt_vsnprintf+0x5e>
    1038:	2b457c63          	bgeu	a0,s4,12f0 <rt_vsnprintf+0x30e>
    103c:	00050023          	sb	zero,0(a0)
    1040:	855a                	mv	a0,s6
    1042:	bb0ff06f          	j	3f2 <__riscv_restore_10>
    1046:	00160583          	lb	a1,1(a2)
    104a:	02d00793          	li	a5,45
    104e:	4801                	li	a6,0
    1050:	02000713          	li	a4,32
    1054:	02300893          	li	a7,35
    1058:	03000693          	li	a3,48
    105c:	00160413          	addi	s0,a2,1
    1060:	02f58363          	beq	a1,a5,1086 <rt_vsnprintf+0xa4>
    1064:	02958563          	beq	a1,s1,108e <rt_vsnprintf+0xac>
    1068:	02e58763          	beq	a1,a4,1096 <rt_vsnprintf+0xb4>
    106c:	03158963          	beq	a1,a7,109e <rt_vsnprintf+0xbc>
    1070:	02d59b63          	bne	a1,a3,10a6 <rt_vsnprintf+0xc4>
    1074:	00186813          	ori	a6,a6,1
    1078:	8622                	mv	a2,s0
    107a:	00160583          	lb	a1,1(a2)
    107e:	00160413          	addi	s0,a2,1
    1082:	fef591e3          	bne	a1,a5,1064 <rt_vsnprintf+0x82>
    1086:	01086813          	ori	a6,a6,16
    108a:	8622                	mv	a2,s0
    108c:	b7fd                	j	107a <rt_vsnprintf+0x98>
    108e:	00486813          	ori	a6,a6,4
    1092:	8622                	mv	a2,s0
    1094:	b7dd                	j	107a <rt_vsnprintf+0x98>
    1096:	00886813          	ori	a6,a6,8
    109a:	8622                	mv	a2,s0
    109c:	bff9                	j	107a <rt_vsnprintf+0x98>
    109e:	02086813          	ori	a6,a6,32
    10a2:	8622                	mv	a2,s0
    10a4:	bfd9                	j	107a <rt_vsnprintf+0x98>
    10a6:	fd058713          	addi	a4,a1,-48
    10aa:	47a5                	li	a5,9
    10ac:	86ae                	mv	a3,a1
    10ae:	06e7f563          	bgeu	a5,a4,1118 <rt_vsnprintf+0x136>
    10b2:	02a00793          	li	a5,42
    10b6:	577d                	li	a4,-1
    10b8:	08f58263          	beq	a1,a5,113c <rt_vsnprintf+0x15a>
    10bc:	02e00693          	li	a3,46
    10c0:	57fd                	li	a5,-1
    10c2:	02d58a63          	beq	a1,a3,10f6 <rt_vsnprintf+0x114>
    10c6:	ffb5f693          	andi	a3,a1,-5
    10ca:	06800893          	li	a7,104
    10ce:	4601                	li	a2,0
    10d0:	01169763          	bne	a3,a7,10de <rt_vsnprintf+0xfc>
    10d4:	0405                	addi	s0,s0,1
    10d6:	0ff5f613          	andi	a2,a1,255
    10da:	00040583          	lb	a1,0(s0)
    10de:	fdb58593          	addi	a1,a1,-37
    10e2:	0ff5f593          	andi	a1,a1,255
    10e6:	05300693          	li	a3,83
    10ea:	1cb6ee63          	bltu	a3,a1,12c6 <rt_vsnprintf+0x2e4>
    10ee:	058a                	slli	a1,a1,0x2
    10f0:	95de                	add	a1,a1,s7
    10f2:	4194                	lw	a3,0(a1)
    10f4:	8682                	jr	a3
    10f6:	00140683          	lb	a3,1(s0)
    10fa:	47a5                	li	a5,9
    10fc:	00140613          	addi	a2,s0,1
    1100:	fd068893          	addi	a7,a3,-48
    1104:	85b6                	mv	a1,a3
    1106:	1f17fa63          	bgeu	a5,a7,12fa <rt_vsnprintf+0x318>
    110a:	02a00793          	li	a5,42
    110e:	20f68e63          	beq	a3,a5,132a <rt_vsnprintf+0x348>
    1112:	8432                	mv	s0,a2
    1114:	4781                	li	a5,0
    1116:	bf45                	j	10c6 <rt_vsnprintf+0xe4>
    1118:	4701                	li	a4,0
    111a:	4625                	li	a2,9
    111c:	00271793          	slli	a5,a4,0x2
    1120:	973e                	add	a4,a4,a5
    1122:	0405                	addi	s0,s0,1
    1124:	0706                	slli	a4,a4,0x1
    1126:	9736                	add	a4,a4,a3
    1128:	00040683          	lb	a3,0(s0)
    112c:	fd070713          	addi	a4,a4,-48
    1130:	fd068793          	addi	a5,a3,-48
    1134:	85b6                	mv	a1,a3
    1136:	fef673e3          	bgeu	a2,a5,111c <rt_vsnprintf+0x13a>
    113a:	b749                	j	10bc <rt_vsnprintf+0xda>
    113c:	00032703          	lw	a4,0(t1)
    1140:	00260413          	addi	s0,a2,2
    1144:	00260583          	lb	a1,2(a2)
    1148:	0311                	addi	t1,t1,4
    114a:	f60759e3          	bgez	a4,10bc <rt_vsnprintf+0xda>
    114e:	40e00733          	neg	a4,a4
    1152:	01086813          	ori	a6,a6,16
    1156:	b79d                	j	10bc <rt_vsnprintf+0xda>
    1158:	04086813          	ori	a6,a6,64
    115c:	46c1                	li	a3,16
    115e:	06c00593          	li	a1,108
    1162:	00430c93          	addi	s9,t1,4
    1166:	00b60663          	beq	a2,a1,1172 <rt_vsnprintf+0x190>
    116a:	06800593          	li	a1,104
    116e:	00b60f63          	beq	a2,a1,118c <rt_vsnprintf+0x1aa>
    1172:	00032603          	lw	a2,0(t1)
    1176:	85d2                	mv	a1,s4
    1178:	ae5ff0ef          	jal	ra,c5c <print_number>
    117c:	00140783          	lb	a5,1(s0)
    1180:	00140613          	addi	a2,s0,1
    1184:	8366                	mv	t1,s9
    1186:	e8079ae3          	bnez	a5,101a <rt_vsnprintf+0x38>
    118a:	b55d                	j	1030 <rt_vsnprintf+0x4e>
    118c:	00287593          	andi	a1,a6,2
    1190:	00032603          	lw	a2,0(t1)
    1194:	1a058663          	beqz	a1,1340 <rt_vsnprintf+0x35e>
    1198:	0642                	slli	a2,a2,0x10
    119a:	8641                	srai	a2,a2,0x10
    119c:	bfe9                	j	1176 <rt_vsnprintf+0x194>
    119e:	46a1                	li	a3,8
    11a0:	bf7d                	j	115e <rt_vsnprintf+0x17c>
    11a2:	00286813          	ori	a6,a6,2
    11a6:	46a9                	li	a3,10
    11a8:	bf5d                	j	115e <rt_vsnprintf+0x17c>
    11aa:	46a9                	li	a3,10
    11ac:	bf4d                	j	115e <rt_vsnprintf+0x17c>
    11ae:	00032683          	lw	a3,0(t1)
    11b2:	0311                	addi	t1,t1,4
    11b4:	1e068463          	beqz	a3,139c <rt_vsnprintf+0x3ba>
    11b8:	00068603          	lb	a2,0(a3)
    11bc:	22060163          	beqz	a2,13de <rt_vsnprintf+0x3fc>
    11c0:	00168583          	lb	a1,1(a3)
    11c4:	8636                	mv	a2,a3
    11c6:	a019                	j	11cc <rt_vsnprintf+0x1ea>
    11c8:	00160583          	lb	a1,1(a2)
    11cc:	0605                	addi	a2,a2,1
    11ce:	fded                	bnez	a1,11c8 <rt_vsnprintf+0x1e6>
    11d0:	40d605b3          	sub	a1,a2,a3
    11d4:	00f05563          	blez	a5,11de <rt_vsnprintf+0x1fc>
    11d8:	00b7d363          	bge	a5,a1,11de <rt_vsnprintf+0x1fc>
    11dc:	85be                	mv	a1,a5
    11de:	01087813          	andi	a6,a6,16
    11e2:	fff70613          	addi	a2,a4,-1
    11e6:	18080763          	beqz	a6,1374 <rt_vsnprintf+0x392>
    11ea:	1eb05863          	blez	a1,13da <rt_vsnprintf+0x3f8>
    11ee:	00b507b3          	add	a5,a0,a1
    11f2:	01457663          	bgeu	a0,s4,11fe <rt_vsnprintf+0x21c>
    11f6:	00068803          	lb	a6,0(a3)
    11fa:	01050023          	sb	a6,0(a0)
    11fe:	0505                	addi	a0,a0,1
    1200:	0685                	addi	a3,a3,1
    1202:	fea798e3          	bne	a5,a0,11f2 <rt_vsnprintf+0x210>
    1206:	00160693          	addi	a3,a2,1
    120a:	853e                	mv	a0,a5
    120c:	00140613          	addi	a2,s0,1
    1210:	02000813          	li	a6,32
    1214:	96be                	add	a3,a3,a5
    1216:	00e5db63          	bge	a1,a4,122c <rt_vsnprintf+0x24a>
    121a:	01457463          	bgeu	a0,s4,1222 <rt_vsnprintf+0x240>
    121e:	01050023          	sb	a6,0(a0)
    1222:	0505                	addi	a0,a0,1
    1224:	40a687b3          	sub	a5,a3,a0
    1228:	fef5c9e3          	blt	a1,a5,121a <rt_vsnprintf+0x238>
    122c:	00140783          	lb	a5,1(s0)
    1230:	de0795e3          	bnez	a5,101a <rt_vsnprintf+0x38>
    1234:	bbf5                	j	1030 <rt_vsnprintf+0x4e>
    1236:	56fd                	li	a3,-1
    1238:	10d70b63          	beq	a4,a3,134e <rt_vsnprintf+0x36c>
    123c:	00032603          	lw	a2,0(t1)
    1240:	46c1                	li	a3,16
    1242:	85d2                	mv	a1,s4
    1244:	00430c93          	addi	s9,t1,4
    1248:	a15ff0ef          	jal	ra,c5c <print_number>
    124c:	00140783          	lb	a5,1(s0)
    1250:	00140613          	addi	a2,s0,1
    1254:	8366                	mv	t1,s9
    1256:	dc0792e3          	bnez	a5,101a <rt_vsnprintf+0x38>
    125a:	bbd9                	j	1030 <rt_vsnprintf+0x4e>
    125c:	01087813          	andi	a6,a6,16
    1260:	fff70693          	addi	a3,a4,-1
    1264:	0e080963          	beqz	a6,1356 <rt_vsnprintf+0x374>
    1268:	00430813          	addi	a6,t1,4
    126c:	01457663          	bgeu	a0,s4,1278 <rt_vsnprintf+0x296>
    1270:	00032783          	lw	a5,0(t1)
    1274:	00f50023          	sb	a5,0(a0)
    1278:	00150593          	addi	a1,a0,1
    127c:	00168793          	addi	a5,a3,1
    1280:	953e                	add	a0,a0,a5
    1282:	00140613          	addi	a2,s0,1
    1286:	87ae                	mv	a5,a1
    1288:	02000713          	li	a4,32
    128c:	12d05b63          	blez	a3,13c2 <rt_vsnprintf+0x3e0>
    1290:	0147f463          	bgeu	a5,s4,1298 <rt_vsnprintf+0x2b6>
    1294:	00e78023          	sb	a4,0(a5)
    1298:	0785                	addi	a5,a5,1
    129a:	fef51be3          	bne	a0,a5,1290 <rt_vsnprintf+0x2ae>
    129e:	00140783          	lb	a5,1(s0)
    12a2:	00d58533          	add	a0,a1,a3
    12a6:	8342                	mv	t1,a6
    12a8:	d60799e3          	bnez	a5,101a <rt_vsnprintf+0x38>
    12ac:	b351                	j	1030 <rt_vsnprintf+0x4e>
    12ae:	01457663          	bgeu	a0,s4,12ba <rt_vsnprintf+0x2d8>
    12b2:	02500793          	li	a5,37
    12b6:	00f50023          	sb	a5,0(a0)
    12ba:	0505                	addi	a0,a0,1
    12bc:	00140613          	addi	a2,s0,1
    12c0:	00140783          	lb	a5,1(s0)
    12c4:	b7b5                	j	1230 <rt_vsnprintf+0x24e>
    12c6:	01457663          	bgeu	a0,s4,12d2 <rt_vsnprintf+0x2f0>
    12ca:	02500793          	li	a5,37
    12ce:	00f50023          	sb	a5,0(a0)
    12d2:	00040783          	lb	a5,0(s0)
    12d6:	00150713          	addi	a4,a0,1
    12da:	c7b5                	beqz	a5,1346 <rt_vsnprintf+0x364>
    12dc:	01477463          	bgeu	a4,s4,12e4 <rt_vsnprintf+0x302>
    12e0:	00f500a3          	sb	a5,1(a0)
    12e4:	0509                	addi	a0,a0,2
    12e6:	00140613          	addi	a2,s0,1
    12ea:	00140783          	lb	a5,1(s0)
    12ee:	b789                	j	1230 <rt_vsnprintf+0x24e>
    12f0:	fe0a0fa3          	sb	zero,-1(s4)
    12f4:	855a                	mv	a0,s6
    12f6:	8fcff06f          	j	3f2 <__riscv_restore_10>
    12fa:	4881                	li	a7,0
    12fc:	4ea5                	li	t4,9
    12fe:	0605                	addi	a2,a2,1
    1300:	00289793          	slli	a5,a7,0x2
    1304:	00060583          	lb	a1,0(a2)
    1308:	97c6                	add	a5,a5,a7
    130a:	0786                	slli	a5,a5,0x1
    130c:	97b6                	add	a5,a5,a3
    130e:	fd058e13          	addi	t3,a1,-48
    1312:	fd078893          	addi	a7,a5,-48
    1316:	86ae                	mv	a3,a1
    1318:	ffcef3e3          	bgeu	t4,t3,12fe <rt_vsnprintf+0x31c>
    131c:	fff8c793          	not	a5,a7
    1320:	87fd                	srai	a5,a5,0x1f
    1322:	00f8f7b3          	and	a5,a7,a5
    1326:	8432                	mv	s0,a2
    1328:	bb79                	j	10c6 <rt_vsnprintf+0xe4>
    132a:	00032783          	lw	a5,0(t1)
    132e:	00240583          	lb	a1,2(s0)
    1332:	0311                	addi	t1,t1,4
    1334:	fff7c693          	not	a3,a5
    1338:	86fd                	srai	a3,a3,0x1f
    133a:	8ff5                	and	a5,a5,a3
    133c:	0409                	addi	s0,s0,2
    133e:	b361                	j	10c6 <rt_vsnprintf+0xe4>
    1340:	01267633          	and	a2,a2,s2
    1344:	bd0d                	j	1176 <rt_vsnprintf+0x194>
    1346:	853a                	mv	a0,a4
    1348:	41650b33          	sub	s6,a0,s6
    134c:	b1e5                	j	1034 <rt_vsnprintf+0x52>
    134e:	00186813          	ori	a6,a6,1
    1352:	4721                	li	a4,8
    1354:	b5e5                	j	123c <rt_vsnprintf+0x25a>
    1356:	00d507b3          	add	a5,a0,a3
    135a:	02000613          	li	a2,32
    135e:	04d05863          	blez	a3,13ae <rt_vsnprintf+0x3cc>
    1362:	01457463          	bgeu	a0,s4,136a <rt_vsnprintf+0x388>
    1366:	00c50023          	sb	a2,0(a0)
    136a:	0505                	addi	a0,a0,1
    136c:	fea79be3          	bne	a5,a0,1362 <rt_vsnprintf+0x380>
    1370:	56fd                	li	a3,-1
    1372:	bddd                	j	1268 <rt_vsnprintf+0x286>
    1374:	40b707b3          	sub	a5,a4,a1
    1378:	97aa                	add	a5,a5,a0
    137a:	02000813          	li	a6,32
    137e:	04e5d963          	bge	a1,a4,13d0 <rt_vsnprintf+0x3ee>
    1382:	01457463          	bgeu	a0,s4,138a <rt_vsnprintf+0x3a8>
    1386:	01050023          	sb	a6,0(a0)
    138a:	0505                	addi	a0,a0,1
    138c:	fef51be3          	bne	a0,a5,1382 <rt_vsnprintf+0x3a0>
    1390:	40e58733          	sub	a4,a1,a4
    1394:	9732                	add	a4,a4,a2
    1396:	fff70613          	addi	a2,a4,-1
    139a:	bd81                	j	11ea <rt_vsnprintf+0x208>
    139c:	04e00593          	li	a1,78
    13a0:	dd898693          	addi	a3,s3,-552 # cdd8 <large_digits.2583+0x9c>
    13a4:	b505                	j	11c4 <rt_vsnprintf+0x1e2>
    13a6:	4b01                	li	s6,0
    13a8:	c80c0ce3          	beqz	s8,1040 <rt_vsnprintf+0x5e>
    13ac:	b171                	j	1038 <rt_vsnprintf+0x56>
    13ae:	ffe70693          	addi	a3,a4,-2
    13b2:	00430813          	addi	a6,t1,4
    13b6:	eb456de3          	bltu	a0,s4,1270 <rt_vsnprintf+0x28e>
    13ba:	00150593          	addi	a1,a0,1
    13be:	00140613          	addi	a2,s0,1
    13c2:	00140783          	lb	a5,1(s0)
    13c6:	8342                	mv	t1,a6
    13c8:	852e                	mv	a0,a1
    13ca:	c40798e3          	bnez	a5,101a <rt_vsnprintf+0x38>
    13ce:	b18d                	j	1030 <rt_vsnprintf+0x4e>
    13d0:	ffe70793          	addi	a5,a4,-2
    13d4:	8732                	mv	a4,a2
    13d6:	863e                	mv	a2,a5
    13d8:	bd09                	j	11ea <rt_vsnprintf+0x208>
    13da:	87aa                	mv	a5,a0
    13dc:	b52d                	j	1206 <rt_vsnprintf+0x224>
    13de:	4581                	li	a1,0
    13e0:	bbd5                	j	11d4 <rt_vsnprintf+0x1f2>

000013e2 <rt_console_get_device>:
    13e2:	8541a503          	lw	a0,-1964(gp) # 2000337c <_console_device>
    13e6:	8082                	ret

000013e8 <rt_console_set_device>:
    13e8:	ffbfe2ef          	jal	t0,3e2 <__riscv_save_0>
    13ec:	85418413          	addi	s0,gp,-1964 # 2000337c <_console_device>
    13f0:	00042903          	lw	s2,0(s0)
    13f4:	a00ff0ef          	jal	ra,5f4 <rt_device_find>
    13f8:	cd01                	beqz	a0,1410 <rt_console_set_device+0x28>
    13fa:	84aa                	mv	s1,a0
    13fc:	4008                	lw	a0,0(s0)
    13fe:	c119                	beqz	a0,1404 <rt_console_set_device+0x1c>
    1400:	b08ff0ef          	jal	ra,708 <rt_device_close>
    1404:	04300593          	li	a1,67
    1408:	8526                	mv	a0,s1
    140a:	a70ff0ef          	jal	ra,67a <rt_device_open>
    140e:	c004                	sw	s1,0(s0)
    1410:	854a                	mv	a0,s2
    1412:	ff5fe06f          	j	406 <__riscv_restore_0>

00001416 <rt_hw_console_output>:
    1416:	8082                	ret

00001418 <rt_kprintf>:
    1418:	7139                	addi	sp,sp,-64
    141a:	02410313          	addi	t1,sp,36
    141e:	ca26                	sw	s1,20(sp)
    1420:	cc22                	sw	s0,24(sp)
    1422:	d22e                	sw	a1,36(sp)
    1424:	d432                	sw	a2,40(sp)
    1426:	d636                	sw	a3,44(sp)
    1428:	862a                	mv	a2,a0
    142a:	869a                	mv	a3,t1
    142c:	07f00593          	li	a1,127
    1430:	bd818513          	addi	a0,gp,-1064 # 20003700 <rt_log_buf.2693>
    1434:	ce06                	sw	ra,28(sp)
    1436:	c84a                	sw	s2,16(sp)
    1438:	d83a                	sw	a4,48(sp)
    143a:	da3e                	sw	a5,52(sp)
    143c:	dc42                	sw	a6,56(sp)
    143e:	de46                	sw	a7,60(sp)
    1440:	c61a                	sw	t1,12(sp)
    1442:	85418413          	addi	s0,gp,-1964 # 2000337c <_console_device>
    1446:	3e71                	jal	fe2 <rt_vsnprintf>
    1448:	86aa                	mv	a3,a0
    144a:	4008                	lw	a0,0(s0)
    144c:	cd05                	beqz	a0,1484 <rt_kprintf+0x6c>
    144e:	01a55903          	lhu	s2,26(a0)
    1452:	07f00793          	li	a5,127
    1456:	04096713          	ori	a4,s2,64
    145a:	00e51d23          	sh	a4,26(a0)
    145e:	02d7e063          	bltu	a5,a3,147e <rt_kprintf+0x66>
    1462:	bd818613          	addi	a2,gp,-1064 # 20003700 <rt_log_buf.2693>
    1466:	4581                	li	a1,0
    1468:	b04ff0ef          	jal	ra,76c <rt_device_write>
    146c:	401c                	lw	a5,0(s0)
    146e:	40f2                	lw	ra,28(sp)
    1470:	4462                	lw	s0,24(sp)
    1472:	01279d23          	sh	s2,26(a5)
    1476:	44d2                	lw	s1,20(sp)
    1478:	4942                	lw	s2,16(sp)
    147a:	6121                	addi	sp,sp,64
    147c:	8082                	ret
    147e:	07f00693          	li	a3,127
    1482:	b7c5                	j	1462 <rt_kprintf+0x4a>
    1484:	bd818513          	addi	a0,gp,-1064 # 20003700 <rt_log_buf.2693>
    1488:	3779                	jal	1416 <rt_hw_console_output>
    148a:	40f2                	lw	ra,28(sp)
    148c:	4462                	lw	s0,24(sp)
    148e:	44d2                	lw	s1,20(sp)
    1490:	4942                	lw	s2,16(sp)
    1492:	6121                	addi	sp,sp,64
    1494:	8082                	ret

00001496 <rt_show_version>:
    1496:	f4dfe2ef          	jal	t0,3e2 <__riscv_save_0>
    149a:	0000d537          	lui	a0,0xd
    149e:	d5050513          	addi	a0,a0,-688 # cd50 <large_digits.2583+0x14>
    14a2:	3f9d                	jal	1418 <rt_kprintf>
    14a4:	0000d537          	lui	a0,0xd
    14a8:	d5c50513          	addi	a0,a0,-676 # cd5c <large_digits.2583+0x20>
    14ac:	37b5                	jal	1418 <rt_kprintf>
    14ae:	0000d537          	lui	a0,0xd
    14b2:	0000d737          	lui	a4,0xd
    14b6:	d8070713          	addi	a4,a4,-640 # cd80 <large_digits.2583+0x44>
    14ba:	468d                	li	a3,3
    14bc:	4605                	li	a2,1
    14be:	458d                	li	a1,3
    14c0:	d8c50513          	addi	a0,a0,-628 # cd8c <large_digits.2583+0x50>
    14c4:	3f91                	jal	1418 <rt_kprintf>
    14c6:	0000d537          	lui	a0,0xd
    14ca:	dac50513          	addi	a0,a0,-596 # cdac <large_digits.2583+0x70>
    14ce:	37a9                	jal	1418 <rt_kprintf>
    14d0:	f37fe06f          	j	406 <__riscv_restore_0>

000014d4 <__rt_ffs>:
    14d4:	cd15                	beqz	a0,1510 <__rt_ffs+0x3c>
    14d6:	0ff57793          	andi	a5,a0,255
    14da:	e39d                	bnez	a5,1500 <__rt_ffs+0x2c>
    14dc:	67c1                	lui	a5,0x10
    14de:	f0078793          	addi	a5,a5,-256 # ff00 <asc2_3216+0x424>
    14e2:	8fe9                	and	a5,a5,a0
    14e4:	e3b9                	bnez	a5,152a <__rt_ffs+0x56>
    14e6:	00ff07b7          	lui	a5,0xff0
    14ea:	8fe9                	and	a5,a5,a0
    14ec:	e785                	bnez	a5,1514 <__rt_ffs+0x40>
    14ee:	67b5                	lui	a5,0xd
    14f0:	c3c78793          	addi	a5,a5,-964 # cc3c <__lowest_bit_bitmap>
    14f4:	8161                	srli	a0,a0,0x18
    14f6:	953e                	add	a0,a0,a5
    14f8:	00054503          	lbu	a0,0(a0)
    14fc:	0565                	addi	a0,a0,25
    14fe:	8082                	ret
    1500:	6735                	lui	a4,0xd
    1502:	c3c70713          	addi	a4,a4,-964 # cc3c <__lowest_bit_bitmap>
    1506:	97ba                	add	a5,a5,a4
    1508:	0007c503          	lbu	a0,0(a5)
    150c:	0505                	addi	a0,a0,1
    150e:	8082                	ret
    1510:	4501                	li	a0,0
    1512:	8082                	ret
    1514:	8541                	srai	a0,a0,0x10
    1516:	67b5                	lui	a5,0xd
    1518:	c3c78793          	addi	a5,a5,-964 # cc3c <__lowest_bit_bitmap>
    151c:	0ff57513          	andi	a0,a0,255
    1520:	953e                	add	a0,a0,a5
    1522:	00054503          	lbu	a0,0(a0)
    1526:	0545                	addi	a0,a0,17
    1528:	8082                	ret
    152a:	8521                	srai	a0,a0,0x8
    152c:	67b5                	lui	a5,0xd
    152e:	c3c78793          	addi	a5,a5,-964 # cc3c <__lowest_bit_bitmap>
    1532:	0ff57513          	andi	a0,a0,255
    1536:	953e                	add	a0,a0,a5
    1538:	00054503          	lbu	a0,0(a0)
    153c:	0525                	addi	a0,a0,9
    153e:	8082                	ret

00001540 <plug_holes>:
    1540:	85c1a703          	lw	a4,-1956(gp) # 20003384 <heap_ptr>
    1544:	415c                	lw	a5,4(a0)
    1546:	97ba                	add	a5,a5,a4
    1548:	02f50563          	beq	a0,a5,1572 <plug_holes+0x32>
    154c:	0027d683          	lhu	a3,2(a5)
    1550:	e28d                	bnez	a3,1572 <plug_holes+0x32>
    1552:	8581a683          	lw	a3,-1960(gp) # 20003380 <heap_end>
    1556:	00f68e63          	beq	a3,a5,1572 <plug_holes+0x32>
    155a:	86018693          	addi	a3,gp,-1952 # 20003388 <lfree>
    155e:	4290                	lw	a2,0(a3)
    1560:	02f60c63          	beq	a2,a5,1598 <plug_holes+0x58>
    1564:	43d0                	lw	a2,4(a5)
    1566:	40e506b3          	sub	a3,a0,a4
    156a:	c150                	sw	a2,4(a0)
    156c:	43dc                	lw	a5,4(a5)
    156e:	97ba                	add	a5,a5,a4
    1570:	c794                	sw	a3,8(a5)
    1572:	4514                	lw	a3,8(a0)
    1574:	00d707b3          	add	a5,a4,a3
    1578:	00f50f63          	beq	a0,a5,1596 <plug_holes+0x56>
    157c:	0027d603          	lhu	a2,2(a5)
    1580:	ea19                	bnez	a2,1596 <plug_holes+0x56>
    1582:	86018613          	addi	a2,gp,-1952 # 20003388 <lfree>
    1586:	420c                	lw	a1,0(a2)
    1588:	00a58a63          	beq	a1,a0,159c <plug_holes+0x5c>
    158c:	4150                	lw	a2,4(a0)
    158e:	c3d0                	sw	a2,4(a5)
    1590:	415c                	lw	a5,4(a0)
    1592:	973e                	add	a4,a4,a5
    1594:	c714                	sw	a3,8(a4)
    1596:	8082                	ret
    1598:	c288                	sw	a0,0(a3)
    159a:	b7e9                	j	1564 <plug_holes+0x24>
    159c:	c21c                	sw	a5,0(a2)
    159e:	b7fd                	j	158c <plug_holes+0x4c>

000015a0 <list_mem>:
    15a0:	e43fe2ef          	jal	t0,3e2 <__riscv_save_0>
    15a4:	8681a583          	lw	a1,-1944(gp) # 20003390 <mem_size_aligned>
    15a8:	0000d537          	lui	a0,0xd
    15ac:	df450513          	addi	a0,a0,-524 # cdf4 <small_digits.2582+0x14>
    15b0:	35a5                	jal	1418 <rt_kprintf>
    15b2:	8741a583          	lw	a1,-1932(gp) # 2000339c <used_mem>
    15b6:	0000d537          	lui	a0,0xd
    15ba:	e0850513          	addi	a0,a0,-504 # ce08 <small_digits.2582+0x28>
    15be:	3da9                	jal	1418 <rt_kprintf>
    15c0:	8641a583          	lw	a1,-1948(gp) # 2000338c <max_mem>
    15c4:	0000d537          	lui	a0,0xd
    15c8:	e1c50513          	addi	a0,a0,-484 # ce1c <small_digits.2582+0x3c>
    15cc:	35b1                	jal	1418 <rt_kprintf>
    15ce:	e39fe06f          	j	406 <__riscv_restore_0>

000015d2 <rt_system_heap_init>:
    15d2:	e11fe2ef          	jal	t0,3e2 <__riscv_save_0>
    15d6:	ffc5f713          	andi	a4,a1,-4
    15da:	46e1                	li	a3,24
    15dc:	00e6f963          	bgeu	a3,a4,15ee <rt_system_heap_init+0x1c>
    15e0:	00350793          	addi	a5,a0,3
    15e4:	9bf1                	andi	a5,a5,-4
    15e6:	fe870693          	addi	a3,a4,-24
    15ea:	00f6fb63          	bgeu	a3,a5,1600 <rt_system_heap_init+0x2e>
    15ee:	862e                	mv	a2,a1
    15f0:	85aa                	mv	a1,a0
    15f2:	0000d537          	lui	a0,0xd
    15f6:	ebc50513          	addi	a0,a0,-324 # cebc <__fsym_list_mem_name+0x60>
    15fa:	3d39                	jal	1418 <rt_kprintf>
    15fc:	e0bfe06f          	j	406 <__riscv_restore_0>
    1600:	6609                	lui	a2,0x2
    1602:	8f1d                	sub	a4,a4,a5
    1604:	ea060613          	addi	a2,a2,-352 # 1ea0 <rt_thread_resume+0x38>
    1608:	ff470693          	addi	a3,a4,-12
    160c:	c390                	sw	a2,0(a5)
    160e:	6649                	lui	a2,0x12
    1610:	00d78833          	add	a6,a5,a3
    1614:	c3d4                	sw	a3,4(a5)
    1616:	0007a423          	sw	zero,8(a5)
    161a:	85c18413          	addi	s0,gp,-1956 # 20003384 <heap_ptr>
    161e:	ea060613          	addi	a2,a2,-352 # 11ea0 <__rt_init_end+0x560>
    1622:	0000d5b7          	lui	a1,0xd
    1626:	1721                	addi	a4,a4,-24
    1628:	00c82023          	sw	a2,0(a6)
    162c:	00d82223          	sw	a3,4(a6)
    1630:	00d82423          	sw	a3,8(a6)
    1634:	c01c                	sw	a5,0(s0)
    1636:	4681                	li	a3,0
    1638:	4605                	li	a2,1
    163a:	eb458593          	addi	a1,a1,-332 # ceb4 <__fsym_list_mem_name+0x58>
    163e:	c5818513          	addi	a0,gp,-936 # 20003780 <heap_sem>
    1642:	86e1a423          	sw	a4,-1944(gp) # 20003390 <mem_size_aligned>
    1646:	8501ac23          	sw	a6,-1960(gp) # 20003380 <heap_end>
    164a:	a34ff0ef          	jal	ra,87e <rt_sem_init>
    164e:	4018                	lw	a4,0(s0)
    1650:	86e1a023          	sw	a4,-1952(gp) # 20003388 <lfree>
    1654:	db3fe06f          	j	406 <__riscv_restore_0>

00001658 <rt_malloc>:
    1658:	d8bfe2ef          	jal	t0,3e2 <__riscv_save_0>
    165c:	c925                	beqz	a0,16cc <rt_malloc+0x74>
    165e:	86818413          	addi	s0,gp,-1944 # 20003390 <mem_size_aligned>
    1662:	401c                	lw	a5,0(s0)
    1664:	00350493          	addi	s1,a0,3
    1668:	98f1                	andi	s1,s1,-4
    166a:	0697e163          	bltu	a5,s1,16cc <rt_malloc+0x74>
    166e:	47b1                	li	a5,12
    1670:	04f4ec63          	bltu	s1,a5,16c8 <rt_malloc+0x70>
    1674:	55fd                	li	a1,-1
    1676:	c5818513          	addi	a0,gp,-936 # 20003780 <heap_sem>
    167a:	a2aff0ef          	jal	ra,8a4 <rt_sem_take>
    167e:	86018313          	addi	t1,gp,-1952 # 20003388 <lfree>
    1682:	00032803          	lw	a6,0(t1)
    1686:	85c1a603          	lw	a2,-1956(gp) # 20003384 <heap_ptr>
    168a:	00042883          	lw	a7,0(s0)
    168e:	40c807b3          	sub	a5,a6,a2
    1692:	409885b3          	sub	a1,a7,s1
    1696:	02b7f163          	bgeu	a5,a1,16b8 <rt_malloc+0x60>
    169a:	00f60433          	add	s0,a2,a5
    169e:	00245683          	lhu	a3,2(s0)
    16a2:	4058                	lw	a4,4(s0)
    16a4:	e699                	bnez	a3,16b2 <rt_malloc+0x5a>
    16a6:	40f706b3          	sub	a3,a4,a5
    16aa:	ff468513          	addi	a0,a3,-12
    16ae:	02957363          	bgeu	a0,s1,16d4 <rt_malloc+0x7c>
    16b2:	87ba                	mv	a5,a4
    16b4:	feb763e3          	bltu	a4,a1,169a <rt_malloc+0x42>
    16b8:	c5818513          	addi	a0,gp,-936 # 20003780 <heap_sem>
    16bc:	accff0ef          	jal	ra,988 <rt_sem_release>
    16c0:	4401                	li	s0,0
    16c2:	8522                	mv	a0,s0
    16c4:	d43fe06f          	j	406 <__riscv_restore_0>
    16c8:	44b1                	li	s1,12
    16ca:	b76d                	j	1674 <rt_malloc+0x1c>
    16cc:	4401                	li	s0,0
    16ce:	8522                	mv	a0,s0
    16d0:	d37fe06f          	j	406 <__riscv_restore_0>
    16d4:	87418593          	addi	a1,gp,-1932 # 2000339c <used_mem>
    16d8:	86418e93          	addi	t4,gp,-1948 # 2000338c <max_mem>
    16dc:	01848f13          	addi	t5,s1,24
    16e0:	0005ae03          	lw	t3,0(a1)
    16e4:	000eaf83          	lw	t6,0(t4)
    16e8:	05e57063          	bgeu	a0,t5,1728 <rt_malloc+0xd0>
    16ec:	96f2                	add	a3,a3,t3
    16ee:	4785                	li	a5,1
    16f0:	00f41123          	sh	a5,2(s0)
    16f4:	c194                	sw	a3,0(a1)
    16f6:	00dff463          	bgeu	t6,a3,16fe <rt_malloc+0xa6>
    16fa:	00dea023          	sw	a3,0(t4)
    16fe:	6789                	lui	a5,0x2
    1700:	ea078793          	addi	a5,a5,-352 # 1ea0 <rt_thread_resume+0x38>
    1704:	00f41023          	sh	a5,0(s0)
    1708:	04880e63          	beq	a6,s0,1764 <rt_malloc+0x10c>
    170c:	c5818513          	addi	a0,gp,-936 # 20003780 <heap_sem>
    1710:	a78ff0ef          	jal	ra,988 <rt_sem_release>
    1714:	8701a783          	lw	a5,-1936(gp) # 20003398 <rt_malloc_hook>
    1718:	0431                	addi	s0,s0,12
    171a:	d7c5                	beqz	a5,16c2 <rt_malloc+0x6a>
    171c:	8522                	mv	a0,s0
    171e:	85a6                	mv	a1,s1
    1720:	9782                	jalr	a5
    1722:	8522                	mv	a0,s0
    1724:	ce3fe06f          	j	406 <__riscv_restore_0>
    1728:	00c48693          	addi	a3,s1,12
    172c:	96be                	add	a3,a3,a5
    172e:	00d60533          	add	a0,a2,a3
    1732:	c158                	sw	a4,4(a0)
    1734:	6709                	lui	a4,0x2
    1736:	ea070713          	addi	a4,a4,-352 # 1ea0 <rt_thread_resume+0x38>
    173a:	c118                	sw	a4,0(a0)
    173c:	c51c                	sw	a5,8(a0)
    173e:	c054                	sw	a3,4(s0)
    1740:	415c                	lw	a5,4(a0)
    1742:	4705                	li	a4,1
    1744:	00e41123          	sh	a4,2(s0)
    1748:	08b1                	addi	a7,a7,12
    174a:	01178463          	beq	a5,a7,1752 <rt_malloc+0xfa>
    174e:	97b2                	add	a5,a5,a2
    1750:	c794                	sw	a3,8(a5)
    1752:	00ce0793          	addi	a5,t3,12
    1756:	97a6                	add	a5,a5,s1
    1758:	c19c                	sw	a5,0(a1)
    175a:	fafff2e3          	bgeu	t6,a5,16fe <rt_malloc+0xa6>
    175e:	00fea023          	sw	a5,0(t4)
    1762:	bf71                	j	16fe <rt_malloc+0xa6>
    1764:	00285783          	lhu	a5,2(a6)
    1768:	d3d5                	beqz	a5,170c <rt_malloc+0xb4>
    176a:	8581a783          	lw	a5,-1960(gp) # 20003380 <heap_end>
    176e:	00f81563          	bne	a6,a5,1778 <rt_malloc+0x120>
    1772:	bf69                	j	170c <rt_malloc+0xb4>
    1774:	01078b63          	beq	a5,a6,178a <rt_malloc+0x132>
    1778:	00482803          	lw	a6,4(a6)
    177c:	9832                	add	a6,a6,a2
    177e:	00285703          	lhu	a4,2(a6)
    1782:	fb6d                	bnez	a4,1774 <rt_malloc+0x11c>
    1784:	01032023          	sw	a6,0(t1)
    1788:	b751                	j	170c <rt_malloc+0xb4>
    178a:	00f32023          	sw	a5,0(t1)
    178e:	bfbd                	j	170c <rt_malloc+0xb4>

00001790 <rt_calloc>:
    1790:	c53fe2ef          	jal	t0,3e2 <__riscv_save_0>
    1794:	02b504b3          	mul	s1,a0,a1
    1798:	8526                	mv	a0,s1
    179a:	3d7d                	jal	1658 <rt_malloc>
    179c:	842a                	mv	s0,a0
    179e:	c509                	beqz	a0,17a8 <rt_calloc+0x18>
    17a0:	8626                	mv	a2,s1
    17a2:	4581                	li	a1,0
    17a4:	edcff0ef          	jal	ra,e80 <rt_memset>
    17a8:	8522                	mv	a0,s0
    17aa:	c5dfe06f          	j	406 <__riscv_restore_0>

000017ae <rt_free>:
    17ae:	c55d                	beqz	a0,185c <rt_free+0xae>
    17b0:	c19fe2ef          	jal	t0,3c8 <__riscv_save_4>
    17b4:	86c1a783          	lw	a5,-1940(gp) # 20003394 <rt_free_hook>
    17b8:	842a                	mv	s0,a0
    17ba:	c391                	beqz	a5,17be <rt_free+0x10>
    17bc:	9782                	jalr	a5
    17be:	85c18493          	addi	s1,gp,-1956 # 20003384 <heap_ptr>
    17c2:	409c                	lw	a5,0(s1)
    17c4:	00f46663          	bltu	s0,a5,17d0 <rt_free+0x22>
    17c8:	8581a783          	lw	a5,-1960(gp) # 20003380 <heap_end>
    17cc:	00f46463          	bltu	s0,a5,17d4 <rt_free+0x26>
    17d0:	c2dfe06f          	j	3fc <__riscv_restore_4>
    17d4:	55fd                	li	a1,-1
    17d6:	c5818513          	addi	a0,gp,-936 # 20003780 <heap_sem>
    17da:	8caff0ef          	jal	ra,8a4 <rt_sem_take>
    17de:	ff645783          	lhu	a5,-10(s0)
    17e2:	ff440913          	addi	s2,s0,-12
    17e6:	cb81                	beqz	a5,17f6 <rt_free+0x48>
    17e8:	ff445703          	lhu	a4,-12(s0)
    17ec:	6789                	lui	a5,0x2
    17ee:	ea078793          	addi	a5,a5,-352 # 1ea0 <rt_thread_resume+0x38>
    17f2:	02f70363          	beq	a4,a5,1818 <rt_free+0x6a>
    17f6:	0000d537          	lui	a0,0xd
    17fa:	e6850513          	addi	a0,a0,-408 # ce68 <__fsym_list_mem_name+0xc>
    17fe:	c1bff0ef          	jal	ra,1418 <rt_kprintf>
    1802:	ff445683          	lhu	a3,-12(s0)
    1806:	ff645603          	lhu	a2,-10(s0)
    180a:	0000d537          	lui	a0,0xd
    180e:	85ca                	mv	a1,s2
    1810:	e8450513          	addi	a0,a0,-380 # ce84 <__fsym_list_mem_name+0x28>
    1814:	c05ff0ef          	jal	ra,1418 <rt_kprintf>
    1818:	86018793          	addi	a5,gp,-1952 # 20003388 <lfree>
    181c:	6709                	lui	a4,0x2
    181e:	4394                	lw	a3,0(a5)
    1820:	ea070713          	addi	a4,a4,-352 # 1ea0 <rt_thread_resume+0x38>
    1824:	fe041b23          	sh	zero,-10(s0)
    1828:	fee41a23          	sh	a4,-12(s0)
    182c:	00d97463          	bgeu	s2,a3,1834 <rt_free+0x86>
    1830:	0127a023          	sw	s2,0(a5)
    1834:	87418713          	addi	a4,gp,-1932 # 2000339c <used_mem>
    1838:	431c                	lw	a5,0(a4)
    183a:	ff842603          	lw	a2,-8(s0)
    183e:	4094                	lw	a3,0(s1)
    1840:	854a                	mv	a0,s2
    1842:	8f91                	sub	a5,a5,a2
    1844:	40d90933          	sub	s2,s2,a3
    1848:	993e                	add	s2,s2,a5
    184a:	01272023          	sw	s2,0(a4)
    184e:	39cd                	jal	1540 <plug_holes>
    1850:	c5818513          	addi	a0,gp,-936 # 20003780 <heap_sem>
    1854:	934ff0ef          	jal	ra,988 <rt_sem_release>
    1858:	ba5fe06f          	j	3fc <__riscv_restore_4>
    185c:	8082                	ret

0000185e <rt_object_get_information>:
    185e:	200007b7          	lui	a5,0x20000
    1862:	00078593          	mv	a1,a5
    1866:	4701                	li	a4,0
    1868:	00078793          	mv	a5,a5
    186c:	4621                	li	a2,8
    186e:	4394                	lw	a3,0(a5)
    1870:	07c1                	addi	a5,a5,16
    1872:	00a68763          	beq	a3,a0,1880 <rt_object_get_information+0x22>
    1876:	0705                	addi	a4,a4,1
    1878:	fec71be3          	bne	a4,a2,186e <rt_object_get_information+0x10>
    187c:	4501                	li	a0,0
    187e:	8082                	ret
    1880:	0712                	slli	a4,a4,0x4
    1882:	00e58533          	add	a0,a1,a4
    1886:	8082                	ret

00001888 <rt_object_init>:
    1888:	b41fe2ef          	jal	t0,3c8 <__riscv_save_4>
    188c:	200007b7          	lui	a5,0x20000
    1890:	8ab2                	mv	s5,a2
    1892:	00078913          	mv	s2,a5
    1896:	8a2a                	mv	s4,a0
    1898:	89ae                	mv	s3,a1
    189a:	00078793          	mv	a5,a5
    189e:	4701                	li	a4,0
    18a0:	4621                	li	a2,8
    18a2:	a029                	j	18ac <rt_object_init+0x24>
    18a4:	0705                	addi	a4,a4,1
    18a6:	07c1                	addi	a5,a5,16
    18a8:	06c70463          	beq	a4,a2,1910 <rt_object_init+0x88>
    18ac:	4394                	lw	a3,0(a5)
    18ae:	fed99be3          	bne	s3,a3,18a4 <rt_object_init+0x1c>
    18b2:	00471493          	slli	s1,a4,0x4
    18b6:	00990b33          	add	s6,s2,s1
    18ba:	2c75                	jal	1b76 <rt_enter_critical>
    18bc:	004b2403          	lw	s0,4(s6)
    18c0:	00448713          	addi	a4,s1,4
    18c4:	974a                	add	a4,a4,s2
    18c6:	00870563          	beq	a4,s0,18d0 <rt_object_init+0x48>
    18ca:	4000                	lw	s0,0(s0)
    18cc:	fe871fe3          	bne	a4,s0,18ca <rt_object_init+0x42>
    18d0:	24d1                	jal	1b94 <rt_exit_critical>
    18d2:	f809e993          	ori	s3,s3,-128
    18d6:	013a0423          	sb	s3,8(s4)
    18da:	4621                	li	a2,8
    18dc:	85d6                	mv	a1,s5
    18de:	8552                	mv	a0,s4
    18e0:	e6eff0ef          	jal	ra,f4e <rt_strncpy>
    18e4:	8781a783          	lw	a5,-1928(gp) # 200033a0 <rt_object_attach_hook>
    18e8:	c399                	beqz	a5,18ee <rt_object_init+0x66>
    18ea:	8552                	mv	a0,s4
    18ec:	9782                	jalr	a5
    18ee:	0b3000ef          	jal	ra,21a0 <rt_hw_interrupt_disable>
    18f2:	004b2703          	lw	a4,4(s6)
    18f6:	00ca0793          	addi	a5,s4,12
    18fa:	c35c                	sw	a5,4(a4)
    18fc:	00ea2623          	sw	a4,12(s4)
    1900:	00fb2223          	sw	a5,4(s6)
    1904:	008a2823          	sw	s0,16(s4)
    1908:	0a5000ef          	jal	ra,21ac <rt_hw_interrupt_enable>
    190c:	af1fe06f          	j	3fc <__riscv_restore_4>
    1910:	249d                	jal	1b76 <rt_enter_critical>
    1912:	00402783          	lw	a5,4(zero) # 4 <_sinit+0x4>
    1916:	9002                	ebreak

00001918 <rt_object_detach>:
    1918:	acbfe2ef          	jal	t0,3e2 <__riscv_save_0>
    191c:	87c1a783          	lw	a5,-1924(gp) # 200033a4 <rt_object_detach_hook>
    1920:	842a                	mv	s0,a0
    1922:	c391                	beqz	a5,1926 <rt_object_detach+0xe>
    1924:	9782                	jalr	a5
    1926:	00040423          	sb	zero,8(s0)
    192a:	077000ef          	jal	ra,21a0 <rt_hw_interrupt_disable>
    192e:	4454                	lw	a3,12(s0)
    1930:	4818                	lw	a4,16(s0)
    1932:	00c40793          	addi	a5,s0,12
    1936:	c2d8                	sw	a4,4(a3)
    1938:	c314                	sw	a3,0(a4)
    193a:	c81c                	sw	a5,16(s0)
    193c:	c45c                	sw	a5,12(s0)
    193e:	06f000ef          	jal	ra,21ac <rt_hw_interrupt_enable>
    1942:	ac5fe06f          	j	406 <__riscv_restore_0>

00001946 <rt_object_allocate>:
    1946:	a83fe2ef          	jal	t0,3c8 <__riscv_save_4>
    194a:	20000737          	lui	a4,0x20000
    194e:	00070993          	mv	s3,a4
    1952:	4781                	li	a5,0
    1954:	00070713          	mv	a4,a4
    1958:	4621                	li	a2,8
    195a:	a029                	j	1964 <rt_object_allocate+0x1e>
    195c:	0785                	addi	a5,a5,1
    195e:	0741                	addi	a4,a4,16
    1960:	06c78863          	beq	a5,a2,19d0 <rt_object_allocate+0x8a>
    1964:	4314                	lw	a3,0(a4)
    1966:	fed51be3          	bne	a0,a3,195c <rt_object_allocate+0x16>
    196a:	00479413          	slli	s0,a5,0x4
    196e:	00898a33          	add	s4,s3,s0
    1972:	84aa                	mv	s1,a0
    1974:	00ca2503          	lw	a0,12(s4)
    1978:	8aae                	mv	s5,a1
    197a:	39f9                	jal	1658 <rt_malloc>
    197c:	892a                	mv	s2,a0
    197e:	c531                	beqz	a0,19ca <rt_object_allocate+0x84>
    1980:	00ca2603          	lw	a2,12(s4)
    1984:	4581                	li	a1,0
    1986:	cfaff0ef          	jal	ra,e80 <rt_memset>
    198a:	4621                	li	a2,8
    198c:	00990423          	sb	s1,8(s2) # 10008 <asc2_3216+0x52c>
    1990:	000904a3          	sb	zero,9(s2)
    1994:	85d6                	mv	a1,s5
    1996:	854a                	mv	a0,s2
    1998:	db6ff0ef          	jal	ra,f4e <rt_strncpy>
    199c:	8781a783          	lw	a5,-1928(gp) # 200033a0 <rt_object_attach_hook>
    19a0:	c399                	beqz	a5,19a6 <rt_object_allocate+0x60>
    19a2:	854a                	mv	a0,s2
    19a4:	9782                	jalr	a5
    19a6:	7fa000ef          	jal	ra,21a0 <rt_hw_interrupt_disable>
    19aa:	004a2683          	lw	a3,4(s4)
    19ae:	00c90713          	addi	a4,s2,12
    19b2:	00440793          	addi	a5,s0,4
    19b6:	c2d8                	sw	a4,4(a3)
    19b8:	00d92623          	sw	a3,12(s2)
    19bc:	00ea2223          	sw	a4,4(s4)
    19c0:	97ce                	add	a5,a5,s3
    19c2:	00f92823          	sw	a5,16(s2)
    19c6:	7e6000ef          	jal	ra,21ac <rt_hw_interrupt_enable>
    19ca:	854a                	mv	a0,s2
    19cc:	a31fe06f          	j	3fc <__riscv_restore_4>
    19d0:	00c02783          	lw	a5,12(zero) # c <_sinit+0xc>
    19d4:	9002                	ebreak

000019d6 <rt_object_delete>:
    19d6:	a0dfe2ef          	jal	t0,3e2 <__riscv_save_0>
    19da:	87c1a783          	lw	a5,-1924(gp) # 200033a4 <rt_object_detach_hook>
    19de:	842a                	mv	s0,a0
    19e0:	c391                	beqz	a5,19e4 <rt_object_delete+0xe>
    19e2:	9782                	jalr	a5
    19e4:	00040423          	sb	zero,8(s0)
    19e8:	7b8000ef          	jal	ra,21a0 <rt_hw_interrupt_disable>
    19ec:	4454                	lw	a3,12(s0)
    19ee:	4818                	lw	a4,16(s0)
    19f0:	00c40793          	addi	a5,s0,12
    19f4:	c2d8                	sw	a4,4(a3)
    19f6:	c314                	sw	a3,0(a4)
    19f8:	c81c                	sw	a5,16(s0)
    19fa:	c45c                	sw	a5,12(s0)
    19fc:	7b0000ef          	jal	ra,21ac <rt_hw_interrupt_enable>
    1a00:	8522                	mv	a0,s0
    1a02:	3375                	jal	17ae <rt_free>
    1a04:	a03fe06f          	j	406 <__riscv_restore_0>

00001a08 <rt_object_is_systemobject>:
    1a08:	00850503          	lb	a0,8(a0)
    1a0c:	817d                	srli	a0,a0,0x1f
    1a0e:	8082                	ret

00001a10 <rt_system_scheduler_init>:
    1a10:	c7818793          	addi	a5,gp,-904 # 200037a0 <rt_thread_priority_table>
    1a14:	88019c23          	sh	zero,-1896(gp) # 200033c0 <rt_scheduler_lock_nest>
    1a18:	10078713          	addi	a4,a5,256 # 20000100 <pin_irq_hdr_tab+0x80>
    1a1c:	c3dc                	sw	a5,4(a5)
    1a1e:	c39c                	sw	a5,0(a5)
    1a20:	07a1                	addi	a5,a5,8
    1a22:	fee79de3          	bne	a5,a4,1a1c <rt_system_scheduler_init+0xc>
    1a26:	46fd                	li	a3,31
    1a28:	88d18623          	sb	a3,-1908(gp) # 200033b4 <rt_current_priority>
    1a2c:	89c18793          	addi	a5,gp,-1892 # 200033c4 <rt_thread_defunct>
    1a30:	8801a823          	sw	zero,-1904(gp) # 200033b8 <rt_current_thread>
    1a34:	8a01a223          	sw	zero,-1884(gp) # 200033cc <rt_thread_ready_priority_group>
    1a38:	c3dc                	sw	a5,4(a5)
    1a3a:	c39c                	sw	a5,0(a5)
    1a3c:	8082                	ret

00001a3e <rt_system_scheduler_start>:
    1a3e:	9a5fe2ef          	jal	t0,3e2 <__riscv_save_0>
    1a42:	8a41a503          	lw	a0,-1884(gp) # 200033cc <rt_thread_ready_priority_group>
    1a46:	a8fff0ef          	jal	ra,14d4 <__rt_ffs>
    1a4a:	157d                	addi	a0,a0,-1
    1a4c:	00351793          	slli	a5,a0,0x3
    1a50:	c7818513          	addi	a0,gp,-904 # 200037a0 <rt_thread_priority_table>
    1a54:	953e                	add	a0,a0,a5
    1a56:	4108                	lw	a0,0(a0)
    1a58:	fec50713          	addi	a4,a0,-20
    1a5c:	0521                	addi	a0,a0,8
    1a5e:	88e1a823          	sw	a4,-1904(gp) # 200033b8 <rt_current_thread>
    1a62:	f9efe0ef          	jal	ra,200 <rt_hw_context_switch_to>
    1a66:	9a1fe06f          	j	406 <__riscv_restore_0>

00001a6a <rt_schedule>:
    1a6a:	979fe2ef          	jal	t0,3e2 <__riscv_save_0>
    1a6e:	732000ef          	jal	ra,21a0 <rt_hw_interrupt_disable>
    1a72:	89819783          	lh	a5,-1896(gp) # 200033c0 <rt_scheduler_lock_nest>
    1a76:	892a                	mv	s2,a0
    1a78:	e7b1                	bnez	a5,1ac4 <rt_schedule+0x5a>
    1a7a:	8a41a503          	lw	a0,-1884(gp) # 200033cc <rt_thread_ready_priority_group>
    1a7e:	a57ff0ef          	jal	ra,14d4 <__rt_ffs>
    1a82:	157d                	addi	a0,a0,-1
    1a84:	00351713          	slli	a4,a0,0x3
    1a88:	c7818793          	addi	a5,gp,-904 # 200037a0 <rt_thread_priority_table>
    1a8c:	97ba                	add	a5,a5,a4
    1a8e:	4384                	lw	s1,0(a5)
    1a90:	89018793          	addi	a5,gp,-1904 # 200033b8 <rt_current_thread>
    1a94:	4380                	lw	s0,0(a5)
    1a96:	fec48593          	addi	a1,s1,-20
    1a9a:	02b40563          	beq	s0,a1,1ac4 <rt_schedule+0x5a>
    1a9e:	8941a703          	lw	a4,-1900(gp) # 200033bc <rt_scheduler_hook>
    1aa2:	88a18623          	sb	a0,-1908(gp) # 200033b4 <rt_current_priority>
    1aa6:	c38c                	sw	a1,0(a5)
    1aa8:	c319                	beqz	a4,1aae <rt_schedule+0x44>
    1aaa:	8522                	mv	a0,s0
    1aac:	9702                	jalr	a4
    1aae:	84c1c783          	lbu	a5,-1972(gp) # 20003374 <rt_interrupt_nest>
    1ab2:	01c40513          	addi	a0,s0,28
    1ab6:	00848593          	addi	a1,s1,8
    1aba:	0ff7f793          	andi	a5,a5,255
    1abe:	cb81                	beqz	a5,1ace <rt_schedule+0x64>
    1ac0:	6f2000ef          	jal	ra,21b2 <rt_hw_context_switch_interrupt>
    1ac4:	854a                	mv	a0,s2
    1ac6:	6e6000ef          	jal	ra,21ac <rt_hw_interrupt_enable>
    1aca:	93dfe06f          	j	406 <__riscv_restore_0>
    1ace:	f4efe0ef          	jal	ra,21c <rt_hw_context_switch>
    1ad2:	854a                	mv	a0,s2
    1ad4:	6d8000ef          	jal	ra,21ac <rt_hw_interrupt_enable>
    1ad8:	92ffe06f          	j	406 <__riscv_restore_0>

00001adc <rt_schedule_insert_thread>:
    1adc:	907fe2ef          	jal	t0,3e2 <__riscv_save_0>
    1ae0:	842a                	mv	s0,a0
    1ae2:	6be000ef          	jal	ra,21a0 <rt_hw_interrupt_disable>
    1ae6:	03444703          	lbu	a4,52(s0)
    1aea:	03544783          	lbu	a5,53(s0)
    1aee:	01440613          	addi	a2,s0,20
    1af2:	9b41                	andi	a4,a4,-16
    1af4:	00379693          	slli	a3,a5,0x3
    1af8:	00176713          	ori	a4,a4,1
    1afc:	c7818793          	addi	a5,gp,-904 # 200037a0 <rt_thread_priority_table>
    1b00:	02e40a23          	sb	a4,52(s0)
    1b04:	97b6                	add	a5,a5,a3
    1b06:	43cc                	lw	a1,4(a5)
    1b08:	8a418713          	addi	a4,gp,-1884 # 200033cc <rt_thread_ready_priority_group>
    1b0c:	c190                	sw	a2,0(a1)
    1b0e:	00072803          	lw	a6,0(a4) # 20000000 <_data_vma>
    1b12:	5c14                	lw	a3,56(s0)
    1b14:	cc0c                	sw	a1,24(s0)
    1b16:	c3d0                	sw	a2,4(a5)
    1b18:	0106e6b3          	or	a3,a3,a6
    1b1c:	c85c                	sw	a5,20(s0)
    1b1e:	c314                	sw	a3,0(a4)
    1b20:	68c000ef          	jal	ra,21ac <rt_hw_interrupt_enable>
    1b24:	8e3fe06f          	j	406 <__riscv_restore_0>

00001b28 <rt_schedule_remove_thread>:
    1b28:	8bbfe2ef          	jal	t0,3e2 <__riscv_save_0>
    1b2c:	842a                	mv	s0,a0
    1b2e:	672000ef          	jal	ra,21a0 <rt_hw_interrupt_disable>
    1b32:	4858                	lw	a4,20(s0)
    1b34:	4c1c                	lw	a5,24(s0)
    1b36:	01440693          	addi	a3,s0,20
    1b3a:	c35c                	sw	a5,4(a4)
    1b3c:	c398                	sw	a4,0(a5)
    1b3e:	03544783          	lbu	a5,53(s0)
    1b42:	c854                	sw	a3,20(s0)
    1b44:	00379713          	slli	a4,a5,0x3
    1b48:	c7818793          	addi	a5,gp,-904 # 200037a0 <rt_thread_priority_table>
    1b4c:	97ba                	add	a5,a5,a4
    1b4e:	4398                	lw	a4,0(a5)
    1b50:	cc14                	sw	a3,24(s0)
    1b52:	00f70663          	beq	a4,a5,1b5e <rt_schedule_remove_thread+0x36>
    1b56:	656000ef          	jal	ra,21ac <rt_hw_interrupt_enable>
    1b5a:	8adfe06f          	j	406 <__riscv_restore_0>
    1b5e:	8a418713          	addi	a4,gp,-1884 # 200033cc <rt_thread_ready_priority_group>
    1b62:	5c1c                	lw	a5,56(s0)
    1b64:	4314                	lw	a3,0(a4)
    1b66:	fff7c793          	not	a5,a5
    1b6a:	8ff5                	and	a5,a5,a3
    1b6c:	c31c                	sw	a5,0(a4)
    1b6e:	63e000ef          	jal	ra,21ac <rt_hw_interrupt_enable>
    1b72:	895fe06f          	j	406 <__riscv_restore_0>

00001b76 <rt_enter_critical>:
    1b76:	86dfe2ef          	jal	t0,3e2 <__riscv_save_0>
    1b7a:	626000ef          	jal	ra,21a0 <rt_hw_interrupt_disable>
    1b7e:	89818793          	addi	a5,gp,-1896 # 200033c0 <rt_scheduler_lock_nest>
    1b82:	0007d703          	lhu	a4,0(a5)
    1b86:	0705                	addi	a4,a4,1
    1b88:	00e79023          	sh	a4,0(a5)
    1b8c:	620000ef          	jal	ra,21ac <rt_hw_interrupt_enable>
    1b90:	877fe06f          	j	406 <__riscv_restore_0>

00001b94 <rt_exit_critical>:
    1b94:	84ffe2ef          	jal	t0,3e2 <__riscv_save_0>
    1b98:	608000ef          	jal	ra,21a0 <rt_hw_interrupt_disable>
    1b9c:	89818713          	addi	a4,gp,-1896 # 200033c0 <rt_scheduler_lock_nest>
    1ba0:	00075783          	lhu	a5,0(a4)
    1ba4:	17fd                	addi	a5,a5,-1
    1ba6:	07c2                	slli	a5,a5,0x10
    1ba8:	87c1                	srai	a5,a5,0x10
    1baa:	00f71023          	sh	a5,0(a4)
    1bae:	00f05663          	blez	a5,1bba <rt_exit_critical+0x26>
    1bb2:	5fa000ef          	jal	ra,21ac <rt_hw_interrupt_enable>
    1bb6:	851fe06f          	j	406 <__riscv_restore_0>
    1bba:	00071023          	sh	zero,0(a4)
    1bbe:	5ee000ef          	jal	ra,21ac <rt_hw_interrupt_enable>
    1bc2:	8901a783          	lw	a5,-1904(gp) # 200033b8 <rt_current_thread>
    1bc6:	dbe5                	beqz	a5,1bb6 <rt_exit_critical+0x22>
    1bc8:	354d                	jal	1a6a <rt_schedule>
    1bca:	83dfe06f          	j	406 <__riscv_restore_0>

00001bce <rt_thread_exit>:
    1bce:	815fe2ef          	jal	t0,3e2 <__riscv_save_0>
    1bd2:	8901a403          	lw	s0,-1904(gp) # 200033b8 <rt_current_thread>
    1bd6:	5ca000ef          	jal	ra,21a0 <rt_hw_interrupt_disable>
    1bda:	84aa                	mv	s1,a0
    1bdc:	8522                	mv	a0,s0
    1bde:	37a9                	jal	1b28 <rt_schedule_remove_thread>
    1be0:	4791                	li	a5,4
    1be2:	02f40a23          	sb	a5,52(s0)
    1be6:	04c40513          	addi	a0,s0,76
    1bea:	265d                	jal	1f90 <rt_timer_detach>
    1bec:	8522                	mv	a0,s0
    1bee:	3d29                	jal	1a08 <rt_object_is_systemobject>
    1bf0:	4785                	li	a5,1
    1bf2:	02f50263          	beq	a0,a5,1c16 <rt_thread_exit+0x48>
    1bf6:	89c1a683          	lw	a3,-1892(gp) # 200033c4 <rt_thread_defunct>
    1bfa:	01440713          	addi	a4,s0,20
    1bfe:	89c18613          	addi	a2,gp,-1892 # 200033c4 <rt_thread_defunct>
    1c02:	c2d8                	sw	a4,4(a3)
    1c04:	c854                	sw	a3,20(s0)
    1c06:	88e1ae23          	sw	a4,-1892(gp) # 200033c4 <rt_thread_defunct>
    1c0a:	cc10                	sw	a2,24(s0)
    1c0c:	8526                	mv	a0,s1
    1c0e:	2b79                	jal	21ac <rt_hw_interrupt_enable>
    1c10:	3da9                	jal	1a6a <rt_schedule>
    1c12:	ff4fe06f          	j	406 <__riscv_restore_0>
    1c16:	5c3c                	lw	a5,120(s0)
    1c18:	fff9                	bnez	a5,1bf6 <rt_thread_exit+0x28>
    1c1a:	8522                	mv	a0,s0
    1c1c:	cfdff0ef          	jal	ra,1918 <rt_object_detach>
    1c20:	b7f5                	j	1c0c <rt_thread_exit+0x3e>

00001c22 <rt_thread_timeout>:
    1c22:	fc0fe2ef          	jal	t0,3e2 <__riscv_save_0>
    1c26:	4950                	lw	a2,20(a0)
    1c28:	4d14                	lw	a3,24(a0)
    1c2a:	5779                	li	a4,-2
    1c2c:	d918                	sw	a4,48(a0)
    1c2e:	c254                	sw	a3,4(a2)
    1c30:	01450713          	addi	a4,a0,20
    1c34:	c290                	sw	a2,0(a3)
    1c36:	cd18                	sw	a4,24(a0)
    1c38:	c958                	sw	a4,20(a0)
    1c3a:	354d                	jal	1adc <rt_schedule_insert_thread>
    1c3c:	353d                	jal	1a6a <rt_schedule>
    1c3e:	fc8fe06f          	j	406 <__riscv_restore_0>

00001c42 <_rt_thread_init.isra.0>:
    1c42:	fa0fe2ef          	jal	t0,3e2 <__riscv_save_0>
    1c46:	842a                	mv	s0,a0
    1c48:	0551                	addi	a0,a0,20
    1c4a:	d00c                	sw	a1,32(s0)
    1c4c:	d050                	sw	a2,36(s0)
    1c4e:	02300593          	li	a1,35
    1c52:	863a                	mv	a2,a4
    1c54:	cc08                	sw	a0,24(s0)
    1c56:	c848                	sw	a0,20(s0)
    1c58:	d414                	sw	a3,40(s0)
    1c5a:	d458                	sw	a4,44(s0)
    1c5c:	8536                	mv	a0,a3
    1c5e:	893e                	mv	s2,a5
    1c60:	84c2                	mv	s1,a6
    1c62:	a1eff0ef          	jal	ra,e80 <rt_memset>
    1c66:	5458                	lw	a4,44(s0)
    1c68:	5410                	lw	a2,40(s0)
    1c6a:	504c                	lw	a1,36(s0)
    1c6c:	5008                	lw	a0,32(s0)
    1c6e:	1771                	addi	a4,a4,-4
    1c70:	000026b7          	lui	a3,0x2
    1c74:	963a                	add	a2,a2,a4
    1c76:	bce68693          	addi	a3,a3,-1074 # 1bce <rt_thread_exit>
    1c7a:	21d5                	jal	215e <rt_hw_stack_init>
    1c7c:	00002637          	lui	a2,0x2
    1c80:	cc48                	sw	a0,28(s0)
    1c82:	4781                	li	a5,0
    1c84:	03240b23          	sb	s2,54(s0)
    1c88:	03240aa3          	sb	s2,53(s0)
    1c8c:	02042c23          	sw	zero,56(s0)
    1c90:	c064                	sw	s1,68(s0)
    1c92:	c424                	sw	s1,72(s0)
    1c94:	02042823          	sw	zero,48(s0)
    1c98:	02040a23          	sb	zero,52(s0)
    1c9c:	06042c23          	sw	zero,120(s0)
    1ca0:	06042e23          	sw	zero,124(s0)
    1ca4:	4701                	li	a4,0
    1ca6:	86a2                	mv	a3,s0
    1ca8:	c2260613          	addi	a2,a2,-990 # 1c22 <rt_thread_timeout>
    1cac:	85a2                	mv	a1,s0
    1cae:	04c40513          	addi	a0,s0,76
    1cb2:	245d                	jal	1f58 <rt_timer_init>
    1cb4:	8a81a783          	lw	a5,-1880(gp) # 200033d0 <rt_thread_inited_hook>
    1cb8:	c399                	beqz	a5,1cbe <_rt_thread_init.isra.0+0x7c>
    1cba:	8522                	mv	a0,s0
    1cbc:	9782                	jalr	a5
    1cbe:	4501                	li	a0,0
    1cc0:	f46fe06f          	j	406 <__riscv_restore_0>

00001cc4 <rt_thread_init>:
    1cc4:	f04fe2ef          	jal	t0,3c8 <__riscv_save_4>
    1cc8:	84b2                	mv	s1,a2
    1cca:	862e                	mv	a2,a1
    1ccc:	4585                	li	a1,1
    1cce:	842a                	mv	s0,a0
    1cd0:	8936                	mv	s2,a3
    1cd2:	89ba                	mv	s3,a4
    1cd4:	8a3e                	mv	s4,a5
    1cd6:	8ac2                	mv	s5,a6
    1cd8:	8b46                	mv	s6,a7
    1cda:	bafff0ef          	jal	ra,1888 <rt_object_init>
    1cde:	885a                	mv	a6,s6
    1ce0:	87d6                	mv	a5,s5
    1ce2:	8752                	mv	a4,s4
    1ce4:	86ce                	mv	a3,s3
    1ce6:	864a                	mv	a2,s2
    1ce8:	85a6                	mv	a1,s1
    1cea:	8522                	mv	a0,s0
    1cec:	3f99                	jal	1c42 <_rt_thread_init.isra.0>
    1cee:	f0efe06f          	j	3fc <__riscv_restore_4>

00001cf2 <rt_thread_self>:
    1cf2:	8901a503          	lw	a0,-1904(gp) # 200033b8 <rt_current_thread>
    1cf6:	8082                	ret

00001cf8 <rt_thread_create>:
    1cf8:	ed0fe2ef          	jal	t0,3c8 <__riscv_save_4>
    1cfc:	892e                	mv	s2,a1
    1cfe:	85aa                	mv	a1,a0
    1d00:	4505                	li	a0,1
    1d02:	89b2                	mv	s3,a2
    1d04:	84b6                	mv	s1,a3
    1d06:	8a3a                	mv	s4,a4
    1d08:	8abe                	mv	s5,a5
    1d0a:	c3dff0ef          	jal	ra,1946 <rt_object_allocate>
    1d0e:	842a                	mv	s0,a0
    1d10:	cd09                	beqz	a0,1d2a <rt_thread_create+0x32>
    1d12:	8526                	mv	a0,s1
    1d14:	945ff0ef          	jal	ra,1658 <rt_malloc>
    1d18:	cd01                	beqz	a0,1d30 <rt_thread_create+0x38>
    1d1a:	86aa                	mv	a3,a0
    1d1c:	8856                	mv	a6,s5
    1d1e:	87d2                	mv	a5,s4
    1d20:	8726                	mv	a4,s1
    1d22:	864e                	mv	a2,s3
    1d24:	85ca                	mv	a1,s2
    1d26:	8522                	mv	a0,s0
    1d28:	3f29                	jal	1c42 <_rt_thread_init.isra.0>
    1d2a:	8522                	mv	a0,s0
    1d2c:	ed0fe06f          	j	3fc <__riscv_restore_4>
    1d30:	8522                	mv	a0,s0
    1d32:	ca5ff0ef          	jal	ra,19d6 <rt_object_delete>
    1d36:	4401                	li	s0,0
    1d38:	bfcd                	j	1d2a <rt_thread_create+0x32>

00001d3a <rt_thread_delete>:
    1d3a:	ea8fe2ef          	jal	t0,3e2 <__riscv_save_0>
    1d3e:	03454783          	lbu	a5,52(a0)
    1d42:	842a                	mv	s0,a0
    1d44:	8bbd                	andi	a5,a5,15
    1d46:	e79d                	bnez	a5,1d74 <rt_thread_delete+0x3a>
    1d48:	04c40513          	addi	a0,s0,76
    1d4c:	2491                	jal	1f90 <rt_timer_detach>
    1d4e:	4791                	li	a5,4
    1d50:	02f40a23          	sb	a5,52(s0)
    1d54:	21b1                	jal	21a0 <rt_hw_interrupt_disable>
    1d56:	89c1a683          	lw	a3,-1892(gp) # 200033c4 <rt_thread_defunct>
    1d5a:	01440713          	addi	a4,s0,20
    1d5e:	89c18613          	addi	a2,gp,-1892 # 200033c4 <rt_thread_defunct>
    1d62:	c2d8                	sw	a4,4(a3)
    1d64:	c854                	sw	a3,20(s0)
    1d66:	cc10                	sw	a2,24(s0)
    1d68:	88e1ae23          	sw	a4,-1892(gp) # 200033c4 <rt_thread_defunct>
    1d6c:	2181                	jal	21ac <rt_hw_interrupt_enable>
    1d6e:	4501                	li	a0,0
    1d70:	e96fe06f          	j	406 <__riscv_restore_0>
    1d74:	db5ff0ef          	jal	ra,1b28 <rt_schedule_remove_thread>
    1d78:	bfc1                	j	1d48 <rt_thread_delete+0xe>

00001d7a <rt_thread_yield>:
    1d7a:	e68fe2ef          	jal	t0,3e2 <__riscv_save_0>
    1d7e:	210d                	jal	21a0 <rt_hw_interrupt_disable>
    1d80:	8901a703          	lw	a4,-1904(gp) # 200033b8 <rt_current_thread>
    1d84:	4685                	li	a3,1
    1d86:	862a                	mv	a2,a0
    1d88:	03474783          	lbu	a5,52(a4)
    1d8c:	8bbd                	andi	a5,a5,15
    1d8e:	00d79663          	bne	a5,a3,1d9a <rt_thread_yield+0x20>
    1d92:	4b54                	lw	a3,20(a4)
    1d94:	4f1c                	lw	a5,24(a4)
    1d96:	00f69763          	bne	a3,a5,1da4 <rt_thread_yield+0x2a>
    1d9a:	8532                	mv	a0,a2
    1d9c:	2901                	jal	21ac <rt_hw_interrupt_enable>
    1d9e:	4501                	li	a0,0
    1da0:	e66fe06f          	j	406 <__riscv_restore_0>
    1da4:	c2dc                	sw	a5,4(a3)
    1da6:	c394                	sw	a3,0(a5)
    1da8:	03574603          	lbu	a2,53(a4)
    1dac:	01470693          	addi	a3,a4,20
    1db0:	060e                	slli	a2,a2,0x3
    1db2:	c7818793          	addi	a5,gp,-904 # 200037a0 <rt_thread_priority_table>
    1db6:	cf14                	sw	a3,24(a4)
    1db8:	97b2                	add	a5,a5,a2
    1dba:	43d0                	lw	a2,4(a5)
    1dbc:	c214                	sw	a3,0(a2)
    1dbe:	cf10                	sw	a2,24(a4)
    1dc0:	c3d4                	sw	a3,4(a5)
    1dc2:	cb5c                	sw	a5,20(a4)
    1dc4:	26e5                	jal	21ac <rt_hw_interrupt_enable>
    1dc6:	ca5ff0ef          	jal	ra,1a6a <rt_schedule>
    1dca:	4501                	li	a0,0
    1dcc:	e3afe06f          	j	406 <__riscv_restore_0>

00001dd0 <rt_thread_suspend>:
    1dd0:	e12fe2ef          	jal	t0,3e2 <__riscv_save_0>
    1dd4:	03454783          	lbu	a5,52(a0)
    1dd8:	4705                	li	a4,1
    1dda:	8bbd                	andi	a5,a5,15
    1ddc:	02e79d63          	bne	a5,a4,1e16 <rt_thread_suspend+0x46>
    1de0:	842a                	mv	s0,a0
    1de2:	2e7d                	jal	21a0 <rt_hw_interrupt_disable>
    1de4:	03444783          	lbu	a5,52(s0)
    1de8:	892a                	mv	s2,a0
    1dea:	8522                	mv	a0,s0
    1dec:	9bc1                	andi	a5,a5,-16
    1dee:	0027e793          	ori	a5,a5,2
    1df2:	02f40a23          	sb	a5,52(s0)
    1df6:	d33ff0ef          	jal	ra,1b28 <rt_schedule_remove_thread>
    1dfa:	04c40513          	addi	a0,s0,76
    1dfe:	24a9                	jal	2048 <rt_timer_stop>
    1e00:	854a                	mv	a0,s2
    1e02:	266d                	jal	21ac <rt_hw_interrupt_enable>
    1e04:	8b01a783          	lw	a5,-1872(gp) # 200033d8 <rt_thread_suspend_hook>
    1e08:	4481                	li	s1,0
    1e0a:	c399                	beqz	a5,1e10 <rt_thread_suspend+0x40>
    1e0c:	8522                	mv	a0,s0
    1e0e:	9782                	jalr	a5
    1e10:	8526                	mv	a0,s1
    1e12:	df4fe06f          	j	406 <__riscv_restore_0>
    1e16:	54fd                	li	s1,-1
    1e18:	bfe5                	j	1e10 <rt_thread_suspend+0x40>

00001e1a <rt_thread_sleep>:
    1e1a:	dc8fe2ef          	jal	t0,3e2 <__riscv_save_0>
    1e1e:	1141                	addi	sp,sp,-16
    1e20:	c62a                	sw	a0,12(sp)
    1e22:	2ebd                	jal	21a0 <rt_hw_interrupt_disable>
    1e24:	8901a403          	lw	s0,-1904(gp) # 200033b8 <rt_current_thread>
    1e28:	892a                	mv	s2,a0
    1e2a:	8522                	mv	a0,s0
    1e2c:	3755                	jal	1dd0 <rt_thread_suspend>
    1e2e:	04c40493          	addi	s1,s0,76
    1e32:	0070                	addi	a2,sp,12
    1e34:	4581                	li	a1,0
    1e36:	8526                	mv	a0,s1
    1e38:	24b9                	jal	2086 <rt_timer_control>
    1e3a:	8526                	mv	a0,s1
    1e3c:	2aad                	jal	1fb6 <rt_timer_start>
    1e3e:	854a                	mv	a0,s2
    1e40:	26b5                	jal	21ac <rt_hw_interrupt_enable>
    1e42:	c29ff0ef          	jal	ra,1a6a <rt_schedule>
    1e46:	5818                	lw	a4,48(s0)
    1e48:	57f9                	li	a5,-2
    1e4a:	00f71463          	bne	a4,a5,1e52 <rt_thread_sleep+0x38>
    1e4e:	02042823          	sw	zero,48(s0)
    1e52:	4501                	li	a0,0
    1e54:	0141                	addi	sp,sp,16
    1e56:	db0fe06f          	j	406 <__riscv_restore_0>

00001e5a <rt_thread_mdelay>:
    1e5a:	d88fe2ef          	jal	t0,3e2 <__riscv_save_0>
    1e5e:	e90fe0ef          	jal	ra,4ee <rt_tick_from_millisecond>
    1e62:	3f65                	jal	1e1a <rt_thread_sleep>
    1e64:	da2fe06f          	j	406 <__riscv_restore_0>

00001e68 <rt_thread_resume>:
    1e68:	d7afe2ef          	jal	t0,3e2 <__riscv_save_0>
    1e6c:	03454783          	lbu	a5,52(a0)
    1e70:	4709                	li	a4,2
    1e72:	8bbd                	andi	a5,a5,15
    1e74:	02e79e63          	bne	a5,a4,1eb0 <rt_thread_resume+0x48>
    1e78:	842a                	mv	s0,a0
    1e7a:	261d                	jal	21a0 <rt_hw_interrupt_disable>
    1e7c:	4854                	lw	a3,20(s0)
    1e7e:	4c18                	lw	a4,24(s0)
    1e80:	01440793          	addi	a5,s0,20
    1e84:	84aa                	mv	s1,a0
    1e86:	c2d8                	sw	a4,4(a3)
    1e88:	c314                	sw	a3,0(a4)
    1e8a:	cc1c                	sw	a5,24(s0)
    1e8c:	c85c                	sw	a5,20(s0)
    1e8e:	04c40513          	addi	a0,s0,76
    1e92:	2a5d                	jal	2048 <rt_timer_stop>
    1e94:	8526                	mv	a0,s1
    1e96:	2e19                	jal	21ac <rt_hw_interrupt_enable>
    1e98:	8522                	mv	a0,s0
    1e9a:	c43ff0ef          	jal	ra,1adc <rt_schedule_insert_thread>
    1e9e:	8ac1a783          	lw	a5,-1876(gp) # 200033d4 <rt_thread_resume_hook>
    1ea2:	4481                	li	s1,0
    1ea4:	c399                	beqz	a5,1eaa <rt_thread_resume+0x42>
    1ea6:	8522                	mv	a0,s0
    1ea8:	9782                	jalr	a5
    1eaa:	8526                	mv	a0,s1
    1eac:	d5afe06f          	j	406 <__riscv_restore_0>
    1eb0:	54fd                	li	s1,-1
    1eb2:	bfe5                	j	1eaa <rt_thread_resume+0x42>

00001eb4 <rt_thread_startup>:
    1eb4:	d2efe2ef          	jal	t0,3e2 <__riscv_save_0>
    1eb8:	03654683          	lbu	a3,54(a0)
    1ebc:	4705                	li	a4,1
    1ebe:	00d71733          	sll	a4,a4,a3
    1ec2:	dd18                	sw	a4,56(a0)
    1ec4:	4709                	li	a4,2
    1ec6:	02d50aa3          	sb	a3,53(a0)
    1eca:	02e50a23          	sb	a4,52(a0)
    1ece:	3f69                	jal	1e68 <rt_thread_resume>
    1ed0:	8901a783          	lw	a5,-1904(gp) # 200033b8 <rt_current_thread>
    1ed4:	c399                	beqz	a5,1eda <rt_thread_startup+0x26>
    1ed6:	b95ff0ef          	jal	ra,1a6a <rt_schedule>
    1eda:	4501                	li	a0,0
    1edc:	d2afe06f          	j	406 <__riscv_restore_0>

00001ee0 <rt_thread_control>:
    1ee0:	ce8fe2ef          	jal	t0,3c8 <__riscv_save_4>
    1ee4:	4405                	li	s0,1
    1ee6:	1141                	addi	sp,sp,-16
    1ee8:	04858363          	beq	a1,s0,1f2e <rt_thread_control+0x4e>
    1eec:	4789                	li	a5,2
    1eee:	00f58b63          	beq	a1,a5,1f04 <rt_thread_control+0x24>
    1ef2:	c589                	beqz	a1,1efc <rt_thread_control+0x1c>
    1ef4:	4501                	li	a0,0
    1ef6:	0141                	addi	sp,sp,16
    1ef8:	d04fe06f          	j	3fc <__riscv_restore_4>
    1efc:	3f65                	jal	1eb4 <rt_thread_startup>
    1efe:	0141                	addi	sp,sp,16
    1f00:	cfcfe06f          	j	3fc <__riscv_restore_4>
    1f04:	84aa                	mv	s1,a0
    1f06:	c632                	sw	a2,12(sp)
    1f08:	2c61                	jal	21a0 <rt_hw_interrupt_disable>
    1f0a:	0344c903          	lbu	s2,52(s1)
    1f0e:	89aa                	mv	s3,a0
    1f10:	4632                	lw	a2,12(sp)
    1f12:	00f97913          	andi	s2,s2,15
    1f16:	02890163          	beq	s2,s0,1f38 <rt_thread_control+0x58>
    1f1a:	00064783          	lbu	a5,0(a2)
    1f1e:	00f41433          	sll	s0,s0,a5
    1f22:	02f48aa3          	sb	a5,53(s1)
    1f26:	dc80                	sw	s0,56(s1)
    1f28:	854e                	mv	a0,s3
    1f2a:	2449                	jal	21ac <rt_hw_interrupt_enable>
    1f2c:	b7e1                	j	1ef4 <rt_thread_control+0x14>
    1f2e:	e0dff0ef          	jal	ra,1d3a <rt_thread_delete>
    1f32:	0141                	addi	sp,sp,16
    1f34:	cc8fe06f          	j	3fc <__riscv_restore_4>
    1f38:	8526                	mv	a0,s1
    1f3a:	befff0ef          	jal	ra,1b28 <rt_schedule_remove_thread>
    1f3e:	4632                	lw	a2,12(sp)
    1f40:	8526                	mv	a0,s1
    1f42:	00064783          	lbu	a5,0(a2)
    1f46:	00f91933          	sll	s2,s2,a5
    1f4a:	02f48aa3          	sb	a5,53(s1)
    1f4e:	0324ac23          	sw	s2,56(s1)
    1f52:	b8bff0ef          	jal	ra,1adc <rt_schedule_insert_thread>
    1f56:	bfc9                	j	1f28 <rt_thread_control+0x48>

00001f58 <rt_timer_init>:
    1f58:	c70fe2ef          	jal	t0,3c8 <__riscv_save_4>
    1f5c:	8a32                	mv	s4,a2
    1f5e:	862e                	mv	a2,a1
    1f60:	45a9                	li	a1,10
    1f62:	842a                	mv	s0,a0
    1f64:	84be                	mv	s1,a5
    1f66:	89b6                	mv	s3,a3
    1f68:	893a                	mv	s2,a4
    1f6a:	91fff0ef          	jal	ra,1888 <rt_object_init>
    1f6e:	01440793          	addi	a5,s0,20
    1f72:	98f9                	andi	s1,s1,-2
    1f74:	009404a3          	sb	s1,9(s0)
    1f78:	01442e23          	sw	s4,28(s0)
    1f7c:	03342023          	sw	s3,32(s0)
    1f80:	02042423          	sw	zero,40(s0)
    1f84:	03242223          	sw	s2,36(s0)
    1f88:	cc1c                	sw	a5,24(s0)
    1f8a:	c85c                	sw	a5,20(s0)
    1f8c:	c70fe06f          	j	3fc <__riscv_restore_4>

00001f90 <rt_timer_detach>:
    1f90:	c52fe2ef          	jal	t0,3e2 <__riscv_save_0>
    1f94:	842a                	mv	s0,a0
    1f96:	2429                	jal	21a0 <rt_hw_interrupt_disable>
    1f98:	4854                	lw	a3,20(s0)
    1f9a:	4c18                	lw	a4,24(s0)
    1f9c:	01440793          	addi	a5,s0,20
    1fa0:	c2d8                	sw	a4,4(a3)
    1fa2:	c314                	sw	a3,0(a4)
    1fa4:	cc1c                	sw	a5,24(s0)
    1fa6:	c85c                	sw	a5,20(s0)
    1fa8:	2411                	jal	21ac <rt_hw_interrupt_enable>
    1faa:	8522                	mv	a0,s0
    1fac:	96dff0ef          	jal	ra,1918 <rt_object_detach>
    1fb0:	4501                	li	a0,0
    1fb2:	c54fe06f          	j	406 <__riscv_restore_0>

00001fb6 <rt_timer_start>:
    1fb6:	c2cfe2ef          	jal	t0,3e2 <__riscv_save_0>
    1fba:	842a                	mv	s0,a0
    1fbc:	22d5                	jal	21a0 <rt_hw_interrupt_disable>
    1fbe:	4c1c                	lw	a5,24(s0)
    1fc0:	4858                	lw	a4,20(s0)
    1fc2:	01440493          	addi	s1,s0,20
    1fc6:	c35c                	sw	a5,4(a4)
    1fc8:	c398                	sw	a4,0(a5)
    1fca:	00944783          	lbu	a5,9(s0)
    1fce:	cc04                	sw	s1,24(s0)
    1fd0:	c844                	sw	s1,20(s0)
    1fd2:	9bf9                	andi	a5,a5,-2
    1fd4:	00f404a3          	sb	a5,9(s0)
    1fd8:	2ad1                	jal	21ac <rt_hw_interrupt_enable>
    1fda:	8841a783          	lw	a5,-1916(gp) # 200033ac <rt_object_take_hook>
    1fde:	c399                	beqz	a5,1fe4 <rt_timer_start+0x2e>
    1fe0:	8522                	mv	a0,s0
    1fe2:	9782                	jalr	a5
    1fe4:	cd6fe0ef          	jal	ra,4ba <rt_tick_get>
    1fe8:	505c                	lw	a5,36(s0)
    1fea:	97aa                	add	a5,a5,a0
    1fec:	d41c                	sw	a5,40(s0)
    1fee:	2a4d                	jal	21a0 <rt_hw_interrupt_disable>
    1ff0:	8c018713          	addi	a4,gp,-1856 # 200033e8 <rt_timer_list>
    1ff4:	00472803          	lw	a6,4(a4)
    1ff8:	8c018793          	addi	a5,gp,-1856 # 200033e8 <rt_timer_list>
    1ffc:	800008b7          	lui	a7,0x80000
    2000:	ffe8c893          	xori	a7,a7,-2
    2004:	4398                	lw	a4,0(a5)
    2006:	00f80e63          	beq	a6,a5,2022 <rt_timer_start+0x6c>
    200a:	5414                	lw	a3,40(s0)
    200c:	4b50                	lw	a2,20(a4)
    200e:	40d605b3          	sub	a1,a2,a3
    2012:	00d60463          	beq	a2,a3,201a <rt_timer_start+0x64>
    2016:	00b8f663          	bgeu	a7,a1,2022 <rt_timer_start+0x6c>
    201a:	87ba                	mv	a5,a4
    201c:	4398                	lw	a4,0(a5)
    201e:	fef816e3          	bne	a6,a5,200a <rt_timer_start+0x54>
    2022:	c344                	sw	s1,4(a4)
    2024:	c858                	sw	a4,20(s0)
    2026:	c384                	sw	s1,0(a5)
    2028:	8b418713          	addi	a4,gp,-1868 # 200033dc <random_nr.2483>
    202c:	00944603          	lbu	a2,9(s0)
    2030:	4314                	lw	a3,0(a4)
    2032:	cc1c                	sw	a5,24(s0)
    2034:	00166613          	ori	a2,a2,1
    2038:	0685                	addi	a3,a3,1
    203a:	00c404a3          	sb	a2,9(s0)
    203e:	c314                	sw	a3,0(a4)
    2040:	22b5                	jal	21ac <rt_hw_interrupt_enable>
    2042:	4501                	li	a0,0
    2044:	bc2fe06f          	j	406 <__riscv_restore_0>

00002048 <rt_timer_stop>:
    2048:	00954783          	lbu	a5,9(a0)
    204c:	8b85                	andi	a5,a5,1
    204e:	cb95                	beqz	a5,2082 <rt_timer_stop+0x3a>
    2050:	b92fe2ef          	jal	t0,3e2 <__riscv_save_0>
    2054:	8801a783          	lw	a5,-1920(gp) # 200033a8 <rt_object_put_hook>
    2058:	842a                	mv	s0,a0
    205a:	c391                	beqz	a5,205e <rt_timer_stop+0x16>
    205c:	9782                	jalr	a5
    205e:	2289                	jal	21a0 <rt_hw_interrupt_disable>
    2060:	4854                	lw	a3,20(s0)
    2062:	4c18                	lw	a4,24(s0)
    2064:	01440793          	addi	a5,s0,20
    2068:	c2d8                	sw	a4,4(a3)
    206a:	c314                	sw	a3,0(a4)
    206c:	cc1c                	sw	a5,24(s0)
    206e:	c85c                	sw	a5,20(s0)
    2070:	2a35                	jal	21ac <rt_hw_interrupt_enable>
    2072:	00944783          	lbu	a5,9(s0)
    2076:	4501                	li	a0,0
    2078:	9bf9                	andi	a5,a5,-2
    207a:	00f404a3          	sb	a5,9(s0)
    207e:	b88fe06f          	j	406 <__riscv_restore_0>
    2082:	557d                	li	a0,-1
    2084:	8082                	ret

00002086 <rt_timer_control>:
    2086:	4785                	li	a5,1
    2088:	02f58763          	beq	a1,a5,20b6 <rt_timer_control+0x30>
    208c:	02b7d063          	bge	a5,a1,20ac <rt_timer_control+0x26>
    2090:	4789                	li	a5,2
    2092:	02f58663          	beq	a1,a5,20be <rt_timer_control+0x38>
    2096:	478d                	li	a5,3
    2098:	00f59863          	bne	a1,a5,20a8 <rt_timer_control+0x22>
    209c:	00954783          	lbu	a5,9(a0)
    20a0:	0027e793          	ori	a5,a5,2
    20a4:	00f504a3          	sb	a5,9(a0)
    20a8:	4501                	li	a0,0
    20aa:	8082                	ret
    20ac:	fdf5                	bnez	a1,20a8 <rt_timer_control+0x22>
    20ae:	421c                	lw	a5,0(a2)
    20b0:	d15c                	sw	a5,36(a0)
    20b2:	4501                	li	a0,0
    20b4:	8082                	ret
    20b6:	515c                	lw	a5,36(a0)
    20b8:	4501                	li	a0,0
    20ba:	c21c                	sw	a5,0(a2)
    20bc:	8082                	ret
    20be:	00954783          	lbu	a5,9(a0)
    20c2:	9bf5                	andi	a5,a5,-3
    20c4:	00f504a3          	sb	a5,9(a0)
    20c8:	4501                	li	a0,0
    20ca:	8082                	ret

000020cc <rt_timer_check>:
    20cc:	aeefe2ef          	jal	t0,3ba <__riscv_save_10>
    20d0:	beafe0ef          	jal	ra,4ba <rt_tick_get>
    20d4:	84aa                	mv	s1,a0
    20d6:	20e9                	jal	21a0 <rt_hw_interrupt_disable>
    20d8:	80000a37          	lui	s4,0x80000
    20dc:	8c2a                	mv	s8,a0
    20de:	8c018993          	addi	s3,gp,-1856 # 200033e8 <rt_timer_list>
    20e2:	ffea4a13          	xori	s4,s4,-2
    20e6:	4a8d                	li	s5,3
    20e8:	0009a403          	lw	s0,0(s3)
    20ec:	05340f63          	beq	s0,s3,214a <rt_timer_check+0x7e>
    20f0:	485c                	lw	a5,20(s0)
    20f2:	fec40913          	addi	s2,s0,-20
    20f6:	854a                	mv	a0,s2
    20f8:	8c9d                	sub	s1,s1,a5
    20fa:	049a6863          	bltu	s4,s1,214a <rt_timer_check+0x7e>
    20fe:	8b81a783          	lw	a5,-1864(gp) # 200033e0 <rt_timer_enter_hook>
    2102:	c391                	beqz	a5,2106 <rt_timer_check+0x3a>
    2104:	9782                	jalr	a5
    2106:	405c                	lw	a5,4(s0)
    2108:	4018                	lw	a4,0(s0)
    210a:	4448                	lw	a0,12(s0)
    210c:	4414                	lw	a3,8(s0)
    210e:	c35c                	sw	a5,4(a4)
    2110:	c398                	sw	a4,0(a5)
    2112:	c040                	sw	s0,4(s0)
    2114:	c000                	sw	s0,0(s0)
    2116:	9682                	jalr	a3
    2118:	ba2fe0ef          	jal	ra,4ba <rt_tick_get>
    211c:	8bc1a783          	lw	a5,-1860(gp) # 200033e4 <rt_timer_exit_hook>
    2120:	84aa                	mv	s1,a0
    2122:	854a                	mv	a0,s2
    2124:	c391                	beqz	a5,2128 <rt_timer_check+0x5c>
    2126:	9782                	jalr	a5
    2128:	ff544783          	lbu	a5,-11(s0)
    212c:	0037f713          	andi	a4,a5,3
    2130:	0fe7f793          	andi	a5,a5,254
    2134:	fef40aa3          	sb	a5,-11(s0)
    2138:	fb5718e3          	bne	a4,s5,20e8 <rt_timer_check+0x1c>
    213c:	854a                	mv	a0,s2
    213e:	e79ff0ef          	jal	ra,1fb6 <rt_timer_start>
    2142:	0009a403          	lw	s0,0(s3)
    2146:	fb3415e3          	bne	s0,s3,20f0 <rt_timer_check+0x24>
    214a:	8562                	mv	a0,s8
    214c:	2085                	jal	21ac <rt_hw_interrupt_enable>
    214e:	aa4fe06f          	j	3f2 <__riscv_restore_10>

00002152 <rt_system_timer_init>:
    2152:	8c018793          	addi	a5,gp,-1856 # 200033e8 <rt_timer_list>
    2156:	c3dc                	sw	a5,4(a5)
    2158:	c39c                	sw	a5,0(a5)
    215a:	8082                	ret

0000215c <rt_system_timer_thread_init>:
    215c:	8082                	ret

0000215e <rt_hw_stack_init>:
    215e:	0611                	addi	a2,a2,4
    2160:	9a71                	andi	a2,a2,-4
    2162:	f8060813          	addi	a6,a2,-128
    2166:	deadc737          	lui	a4,0xdeadc
    216a:	87c2                	mv	a5,a6
    216c:	eef70713          	addi	a4,a4,-273 # deadbeef <_eusrstack+0xbeacbeef>
    2170:	c398                	sw	a4,0(a5)
    2172:	0791                	addi	a5,a5,4
    2174:	fef61ee3          	bne	a2,a5,2170 <rt_hw_stack_init+0x12>
    2178:	67a1                	lui	a5,0x8
    217a:	88078793          	addi	a5,a5,-1920 # 7880 <LCD_thread_entry+0x8a6>
    217e:	f8a62023          	sw	a0,-128(a2)
    2182:	f8d62223          	sw	a3,-124(a2)
    2186:	fab62423          	sw	a1,-88(a2)
    218a:	f8f62423          	sw	a5,-120(a2)
    218e:	8542                	mv	a0,a6
    2190:	8082                	ret

00002192 <sw_clearpend>:
    2192:	e000f737          	lui	a4,0xe000f
    2196:	431c                	lw	a5,0(a4)
    2198:	0786                	slli	a5,a5,0x1
    219a:	8385                	srli	a5,a5,0x1
    219c:	c31c                	sw	a5,0(a4)
    219e:	8082                	ret

000021a0 <rt_hw_interrupt_disable>:
    21a0:	6521                	lui	a0,0x8
    21a2:	80050513          	addi	a0,a0,-2048 # 7800 <LCD_thread_entry+0x826>
    21a6:	30051573          	csrrw	a0,mstatus,a0
    21aa:	8082                	ret

000021ac <rt_hw_interrupt_enable>:
    21ac:	30051073          	csrw	mstatus,a0
    21b0:	8082                	ret

000021b2 <rt_hw_context_switch_interrupt>:
    21b2:	8d018793          	addi	a5,gp,-1840 # 200033f8 <rt_thread_switch_interrupt_flag>
    21b6:	4398                	lw	a4,0(a5)
    21b8:	e319                	bnez	a4,21be <rt_hw_context_switch_interrupt+0xc>
    21ba:	8ca1a423          	sw	a0,-1848(gp) # 200033f0 <rt_interrupt_from_thread>
    21be:	8cb1a623          	sw	a1,-1844(gp) # 200033f4 <rt_interrupt_to_thread>
    21c2:	4705                	li	a4,1
    21c4:	c398                	sw	a4,0(a5)
    21c6:	e000f737          	lui	a4,0xe000f
    21ca:	431c                	lw	a5,0(a4)
    21cc:	800006b7          	lui	a3,0x80000
    21d0:	8fd5                	or	a5,a5,a3
    21d2:	c31c                	sw	a5,0(a4)
    21d4:	8082                	ret

000021d6 <reboot>:
    21d6:	beef07b7          	lui	a5,0xbeef0
    21da:	e000e737          	lui	a4,0xe000e
    21de:	08078793          	addi	a5,a5,128 # beef0080 <_eusrstack+0x9eee0080>
    21e2:	c73c                	sw	a5,72(a4)
    21e4:	4501                	li	a0,0
    21e6:	8082                	ret

000021e8 <clear>:
    21e8:	9fafe2ef          	jal	t0,3e2 <__riscv_save_0>
    21ec:	0000d537          	lui	a0,0xd
    21f0:	ef850513          	addi	a0,a0,-264 # cef8 <__fsym_list_mem_name+0x9c>
    21f4:	a24ff0ef          	jal	ra,1418 <rt_kprintf>
    21f8:	4501                	li	a0,0
    21fa:	a0cfe06f          	j	406 <__riscv_restore_0>

000021fe <show_wait_queue>:
    21fe:	9cafe2ef          	jal	t0,3c8 <__riscv_save_4>
    2202:	4100                	lw	s0,0(a0)
    2204:	02850863          	beq	a0,s0,2234 <show_wait_queue+0x36>
    2208:	84aa                	mv	s1,a0
    220a:	0000d9b7          	lui	s3,0xd
    220e:	0000d937          	lui	s2,0xd
    2212:	a031                	j	221e <show_wait_queue+0x20>
    2214:	a04ff0ef          	jal	ra,1418 <rt_kprintf>
    2218:	4000                	lw	s0,0(s0)
    221a:	00848d63          	beq	s1,s0,2234 <show_wait_queue+0x36>
    221e:	65c98513          	addi	a0,s3,1628 # d65c <__fsym_reboot_name+0x8>
    2222:	fec40593          	addi	a1,s0,-20
    2226:	9f2ff0ef          	jal	ra,1418 <rt_kprintf>
    222a:	401c                	lw	a5,0(s0)
    222c:	66090513          	addi	a0,s2,1632 # d660 <__fsym_reboot_name+0xc>
    2230:	fe9792e3          	bne	a5,s1,2214 <show_wait_queue+0x16>
    2234:	9c8fe06f          	j	3fc <__riscv_restore_4>

00002238 <object_name_maxlen>:
    2238:	9aafe2ef          	jal	t0,3e2 <__riscv_save_0>
    223c:	892e                	mv	s2,a1
    223e:	d8bfe0ef          	jal	ra,fc8 <rt_strlen>
    2242:	84aa                	mv	s1,a0
    2244:	933ff0ef          	jal	ra,1b76 <rt_enter_critical>
    2248:	00092403          	lw	s0,0(s2)
    224c:	00890c63          	beq	s2,s0,2264 <object_name_maxlen+0x2c>
    2250:	ff440513          	addi	a0,s0,-12
    2254:	d75fe0ef          	jal	ra,fc8 <rt_strlen>
    2258:	00a4d363          	bge	s1,a0,225e <object_name_maxlen+0x26>
    225c:	84aa                	mv	s1,a0
    225e:	4000                	lw	s0,0(s0)
    2260:	fe8918e3          	bne	s2,s0,2250 <object_name_maxlen+0x18>
    2264:	931ff0ef          	jal	ra,1b94 <rt_exit_critical>
    2268:	47a1                	li	a5,8
    226a:	0097c663          	blt	a5,s1,2276 <object_name_maxlen+0x3e>
    226e:	c481                	beqz	s1,2276 <object_name_maxlen+0x3e>
    2270:	8526                	mv	a0,s1
    2272:	994fe06f          	j	406 <__riscv_restore_0>
    2276:	44a1                	li	s1,8
    2278:	8526                	mv	a0,s1
    227a:	98cfe06f          	j	406 <__riscv_restore_0>

0000227e <list_thread>:
    227e:	934fe2ef          	jal	t0,3b2 <__riscv_save_12>
    2282:	4505                	li	a0,1
    2284:	ddaff0ef          	jal	ra,185e <rt_object_get_information>
    2288:	0000d937          	lui	s2,0xd
    228c:	00450493          	addi	s1,a0,4
    2290:	85a6                	mv	a1,s1
    2292:	89aa                	mv	s3,a0
    2294:	1a490513          	addi	a0,s2,420 # d1a4 <__fsym_list_mem_name+0x348>
    2298:	fa1ff0ef          	jal	ra,2238 <object_name_maxlen>
    229c:	842a                	mv	s0,a0
    229e:	85aa                	mv	a1,a0
    22a0:	0000d537          	lui	a0,0xd
    22a4:	1a490613          	addi	a2,s2,420
    22a8:	1ac50513          	addi	a0,a0,428 # d1ac <__fsym_list_mem_name+0x350>
    22ac:	96cff0ef          	jal	ra,1418 <rt_kprintf>
    22b0:	cc09                	beqz	s0,22ca <list_thread+0x4c>
    22b2:	fff40913          	addi	s2,s0,-1
    22b6:	0000dab7          	lui	s5,0xd
    22ba:	5a7d                	li	s4,-1
    22bc:	197d                	addi	s2,s2,-1
    22be:	230a8513          	addi	a0,s5,560 # d230 <__fsym_list_mem_name+0x3d4>
    22c2:	956ff0ef          	jal	ra,1418 <rt_kprintf>
    22c6:	ff491be3          	bne	s2,s4,22bc <list_thread+0x3e>
    22ca:	0000d537          	lui	a0,0xd
    22ce:	1f050513          	addi	a0,a0,496 # d1f0 <__fsym_list_mem_name+0x394>
    22d2:	946ff0ef          	jal	ra,1418 <rt_kprintf>
    22d6:	0049ad83          	lw	s11,4(s3)
    22da:	09b48d63          	beq	s1,s11,2374 <list_thread+0xf6>
    22de:	0000dd37          	lui	s10,0xd
    22e2:	0000dcb7          	lui	s9,0xd
    22e6:	4c05                	li	s8,1
    22e8:	4b89                	li	s7,2
    22ea:	4b11                	li	s6,4
    22ec:	0000dab7          	lui	s5,0xd
    22f0:	0000da37          	lui	s4,0xd
    22f4:	0000d9b7          	lui	s3,0xd
    22f8:	02300913          	li	s2,35
    22fc:	029dc703          	lbu	a4,41(s11)
    2300:	ff4d8693          	addi	a3,s11,-12
    2304:	4621                	li	a2,8
    2306:	85a2                	mv	a1,s0
    2308:	234d0513          	addi	a0,s10,564 # d234 <__fsym_list_mem_name+0x3d8>
    230c:	90cff0ef          	jal	ra,1418 <rt_kprintf>
    2310:	028dc783          	lbu	a5,40(s11)
    2314:	8bbd                	andi	a5,a5,15
    2316:	07878e63          	beq	a5,s8,2392 <list_thread+0x114>
    231a:	09778163          	beq	a5,s7,239c <list_thread+0x11e>
    231e:	cfb1                	beqz	a5,237a <list_thread+0xfc>
    2320:	09678363          	beq	a5,s6,23a6 <list_thread+0x128>
    2324:	01cda703          	lw	a4,28(s11)
    2328:	00074783          	lbu	a5,0(a4) # e000e000 <_eusrstack+0xbfffe000>
    232c:	07279163          	bne	a5,s2,238e <list_thread+0x110>
    2330:	87ba                	mv	a5,a4
    2332:	0785                	addi	a5,a5,1
    2334:	0007c683          	lbu	a3,0(a5)
    2338:	ff268de3          	beq	a3,s2,2332 <list_thread+0xb4>
    233c:	020da883          	lw	a7,32(s11)
    2340:	06400693          	li	a3,100
    2344:	010da503          	lw	a0,16(s11)
    2348:	011705b3          	add	a1,a4,a7
    234c:	40f587b3          	sub	a5,a1,a5
    2350:	02d786b3          	mul	a3,a5,a3
    2354:	03cda703          	lw	a4,60(s11)
    2358:	024da783          	lw	a5,36(s11)
    235c:	8d89                	sub	a1,a1,a0
    235e:	8646                	mv	a2,a7
    2360:	270c8513          	addi	a0,s9,624 # d270 <__fsym_list_mem_name+0x414>
    2364:	0316d6b3          	divu	a3,a3,a7
    2368:	8b0ff0ef          	jal	ra,1418 <rt_kprintf>
    236c:	000dad83          	lw	s11,0(s11)
    2370:	f9b496e3          	bne	s1,s11,22fc <list_thread+0x7e>
    2374:	4501                	li	a0,0
    2376:	878fe06f          	j	3ee <__riscv_restore_12>
    237a:	258a8513          	addi	a0,s5,600 # d258 <__fsym_list_mem_name+0x3fc>
    237e:	89aff0ef          	jal	ra,1418 <rt_kprintf>
    2382:	01cda703          	lw	a4,28(s11)
    2386:	00074783          	lbu	a5,0(a4)
    238a:	fb2783e3          	beq	a5,s2,2330 <list_thread+0xb2>
    238e:	87ba                	mv	a5,a4
    2390:	b775                	j	233c <list_thread+0xbe>
    2392:	24098513          	addi	a0,s3,576 # d240 <__fsym_list_mem_name+0x3e4>
    2396:	882ff0ef          	jal	ra,1418 <rt_kprintf>
    239a:	b769                	j	2324 <list_thread+0xa6>
    239c:	24ca0513          	addi	a0,s4,588 # d24c <__fsym_list_mem_name+0x3f0>
    23a0:	878ff0ef          	jal	ra,1418 <rt_kprintf>
    23a4:	b741                	j	2324 <list_thread+0xa6>
    23a6:	0000d7b7          	lui	a5,0xd
    23aa:	26478513          	addi	a0,a5,612 # d264 <__fsym_list_mem_name+0x408>
    23ae:	86aff0ef          	jal	ra,1418 <rt_kprintf>
    23b2:	bf8d                	j	2324 <list_thread+0xa6>

000023b4 <list_sem>:
    23b4:	814fe2ef          	jal	t0,3c8 <__riscv_save_4>
    23b8:	4509                	li	a0,2
    23ba:	ca4ff0ef          	jal	ra,185e <rt_object_get_information>
    23be:	0000d437          	lui	s0,0xd
    23c2:	00450913          	addi	s2,a0,4
    23c6:	85ca                	mv	a1,s2
    23c8:	89aa                	mv	s3,a0
    23ca:	14440513          	addi	a0,s0,324 # d144 <__fsym_list_mem_name+0x2e8>
    23ce:	e6bff0ef          	jal	ra,2238 <object_name_maxlen>
    23d2:	84aa                	mv	s1,a0
    23d4:	85aa                	mv	a1,a0
    23d6:	0000d537          	lui	a0,0xd
    23da:	14440613          	addi	a2,s0,324
    23de:	15050513          	addi	a0,a0,336 # d150 <__fsym_list_mem_name+0x2f4>
    23e2:	836ff0ef          	jal	ra,1418 <rt_kprintf>
    23e6:	cc89                	beqz	s1,2400 <list_sem+0x4c>
    23e8:	fff48413          	addi	s0,s1,-1
    23ec:	0000dab7          	lui	s5,0xd
    23f0:	5a7d                	li	s4,-1
    23f2:	147d                	addi	s0,s0,-1
    23f4:	230a8513          	addi	a0,s5,560 # d230 <__fsym_list_mem_name+0x3d4>
    23f8:	820ff0ef          	jal	ra,1418 <rt_kprintf>
    23fc:	ff441be3          	bne	s0,s4,23f2 <list_sem+0x3e>
    2400:	0000d537          	lui	a0,0xd
    2404:	16c50513          	addi	a0,a0,364 # d16c <__fsym_list_mem_name+0x310>
    2408:	810ff0ef          	jal	ra,1418 <rt_kprintf>
    240c:	0049a403          	lw	s0,4(s3)
    2410:	04890663          	beq	s2,s0,245c <list_sem+0xa8>
    2414:	0000db37          	lui	s6,0xd
    2418:	0000dab7          	lui	s5,0xd
    241c:	00011a37          	lui	s4,0x11
    2420:	4410                	lw	a2,8(s0)
    2422:	00840993          	addi	s3,s0,8
    2426:	ff440693          	addi	a3,s0,-12
    242a:	01045703          	lhu	a4,16(s0)
    242e:	4781                	li	a5,0
    2430:	02c98963          	beq	s3,a2,2462 <list_sem+0xae>
    2434:	4210                	lw	a2,0(a2)
    2436:	0785                	addi	a5,a5,1
    2438:	fec99ee3          	bne	s3,a2,2434 <list_sem+0x80>
    243c:	4621                	li	a2,8
    243e:	85a6                	mv	a1,s1
    2440:	184a8513          	addi	a0,s5,388 # d184 <__fsym_list_mem_name+0x328>
    2444:	fd5fe0ef          	jal	ra,1418 <rt_kprintf>
    2448:	854e                	mv	a0,s3
    244a:	db5ff0ef          	jal	ra,21fe <show_wait_queue>
    244e:	374a0513          	addi	a0,s4,884 # 11374 <asc2_3216+0x1898>
    2452:	fc7fe0ef          	jal	ra,1418 <rt_kprintf>
    2456:	4000                	lw	s0,0(s0)
    2458:	fc8914e3          	bne	s2,s0,2420 <list_sem+0x6c>
    245c:	4501                	li	a0,0
    245e:	f9ffd06f          	j	3fc <__riscv_restore_4>
    2462:	4621                	li	a2,8
    2464:	85a6                	mv	a1,s1
    2466:	194b0513          	addi	a0,s6,404 # d194 <__fsym_list_mem_name+0x338>
    246a:	faffe0ef          	jal	ra,1418 <rt_kprintf>
    246e:	b7e5                	j	2456 <list_sem+0xa2>

00002470 <list_event>:
    2470:	f59fd2ef          	jal	t0,3c8 <__riscv_save_4>
    2474:	4511                	li	a0,4
    2476:	be8ff0ef          	jal	ra,185e <rt_object_get_information>
    247a:	0000d437          	lui	s0,0xd
    247e:	00450913          	addi	s2,a0,4
    2482:	85ca                	mv	a1,s2
    2484:	89aa                	mv	s3,a0
    2486:	f9040513          	addi	a0,s0,-112 # cf90 <__fsym_list_mem_name+0x134>
    248a:	dafff0ef          	jal	ra,2238 <object_name_maxlen>
    248e:	84aa                	mv	s1,a0
    2490:	85aa                	mv	a1,a0
    2492:	0000d537          	lui	a0,0xd
    2496:	f9040613          	addi	a2,s0,-112
    249a:	f9850513          	addi	a0,a0,-104 # cf98 <__fsym_list_mem_name+0x13c>
    249e:	f7bfe0ef          	jal	ra,1418 <rt_kprintf>
    24a2:	cc89                	beqz	s1,24bc <list_event+0x4c>
    24a4:	fff48413          	addi	s0,s1,-1
    24a8:	0000dab7          	lui	s5,0xd
    24ac:	5a7d                	li	s4,-1
    24ae:	147d                	addi	s0,s0,-1
    24b0:	230a8513          	addi	a0,s5,560 # d230 <__fsym_list_mem_name+0x3d4>
    24b4:	f65fe0ef          	jal	ra,1418 <rt_kprintf>
    24b8:	ff441be3          	bne	s0,s4,24ae <list_event+0x3e>
    24bc:	0000d537          	lui	a0,0xd
    24c0:	fbc50513          	addi	a0,a0,-68 # cfbc <__fsym_list_mem_name+0x160>
    24c4:	f55fe0ef          	jal	ra,1418 <rt_kprintf>
    24c8:	0049a403          	lw	s0,4(s3)
    24cc:	04890563          	beq	s2,s0,2516 <list_event+0xa6>
    24d0:	0000db37          	lui	s6,0xd
    24d4:	0000dab7          	lui	s5,0xd
    24d8:	00011a37          	lui	s4,0x11
    24dc:	4410                	lw	a2,8(s0)
    24de:	00840993          	addi	s3,s0,8
    24e2:	ff440693          	addi	a3,s0,-12
    24e6:	4818                	lw	a4,16(s0)
    24e8:	02c98a63          	beq	s3,a2,251c <list_event+0xac>
    24ec:	4781                	li	a5,0
    24ee:	4210                	lw	a2,0(a2)
    24f0:	0785                	addi	a5,a5,1
    24f2:	fec99ee3          	bne	s3,a2,24ee <list_event+0x7e>
    24f6:	4621                	li	a2,8
    24f8:	85a6                	mv	a1,s1
    24fa:	fdca8513          	addi	a0,s5,-36 # cfdc <__fsym_list_mem_name+0x180>
    24fe:	f1bfe0ef          	jal	ra,1418 <rt_kprintf>
    2502:	854e                	mv	a0,s3
    2504:	cfbff0ef          	jal	ra,21fe <show_wait_queue>
    2508:	374a0513          	addi	a0,s4,884 # 11374 <asc2_3216+0x1898>
    250c:	f0dfe0ef          	jal	ra,1418 <rt_kprintf>
    2510:	4000                	lw	s0,0(s0)
    2512:	fc8915e3          	bne	s2,s0,24dc <list_event+0x6c>
    2516:	4501                	li	a0,0
    2518:	ee5fd06f          	j	3fc <__riscv_restore_4>
    251c:	4621                	li	a2,8
    251e:	85a6                	mv	a1,s1
    2520:	ff4b0513          	addi	a0,s6,-12 # cff4 <__fsym_list_mem_name+0x198>
    2524:	ef5fe0ef          	jal	ra,1418 <rt_kprintf>
    2528:	b7e5                	j	2510 <list_event+0xa0>

0000252a <list_mutex>:
    252a:	e9ffd2ef          	jal	t0,3c8 <__riscv_save_4>
    252e:	450d                	li	a0,3
    2530:	b2eff0ef          	jal	ra,185e <rt_object_get_information>
    2534:	00011437          	lui	s0,0x11
    2538:	00450913          	addi	s2,a0,4
    253c:	85ca                	mv	a1,s2
    253e:	89aa                	mv	s3,a0
    2540:	50c40513          	addi	a0,s0,1292 # 1150c <asc2_3216+0x1a30>
    2544:	cf5ff0ef          	jal	ra,2238 <object_name_maxlen>
    2548:	84aa                	mv	s1,a0
    254a:	85aa                	mv	a1,a0
    254c:	0000d537          	lui	a0,0xd
    2550:	50c40613          	addi	a2,s0,1292
    2554:	0e850513          	addi	a0,a0,232 # d0e8 <__fsym_list_mem_name+0x28c>
    2558:	ec1fe0ef          	jal	ra,1418 <rt_kprintf>
    255c:	cc89                	beqz	s1,2576 <list_mutex+0x4c>
    255e:	fff48413          	addi	s0,s1,-1
    2562:	0000dab7          	lui	s5,0xd
    2566:	5a7d                	li	s4,-1
    2568:	147d                	addi	s0,s0,-1
    256a:	230a8513          	addi	a0,s5,560 # d230 <__fsym_list_mem_name+0x3d4>
    256e:	eabfe0ef          	jal	ra,1418 <rt_kprintf>
    2572:	ff441be3          	bne	s0,s4,2568 <list_mutex+0x3e>
    2576:	0000d537          	lui	a0,0xd
    257a:	10c50513          	addi	a0,a0,268 # d10c <__fsym_list_mem_name+0x2b0>
    257e:	e9bfe0ef          	jal	ra,1418 <rt_kprintf>
    2582:	0049a403          	lw	s0,4(s3)
    2586:	02890d63          	beq	s2,s0,25c0 <list_mutex+0x96>
    258a:	0000d9b7          	lui	s3,0xd
    258e:	4418                	lw	a4,8(s0)
    2590:	00840613          	addi	a2,s0,8
    2594:	ff440693          	addi	a3,s0,-12
    2598:	485c                	lw	a5,20(s0)
    259a:	01344803          	lbu	a6,19(s0)
    259e:	4881                	li	a7,0
    25a0:	00e60663          	beq	a2,a4,25ac <list_mutex+0x82>
    25a4:	4318                	lw	a4,0(a4)
    25a6:	0885                	addi	a7,a7,1
    25a8:	fee61ee3          	bne	a2,a4,25a4 <list_mutex+0x7a>
    25ac:	4721                	li	a4,8
    25ae:	4621                	li	a2,8
    25b0:	85a6                	mv	a1,s1
    25b2:	12c98513          	addi	a0,s3,300 # d12c <__fsym_list_mem_name+0x2d0>
    25b6:	e63fe0ef          	jal	ra,1418 <rt_kprintf>
    25ba:	4000                	lw	s0,0(s0)
    25bc:	fc8919e3          	bne	s2,s0,258e <list_mutex+0x64>
    25c0:	4501                	li	a0,0
    25c2:	e3bfd06f          	j	3fc <__riscv_restore_4>

000025c6 <list_mailbox>:
    25c6:	e03fd2ef          	jal	t0,3c8 <__riscv_save_4>
    25ca:	4515                	li	a0,5
    25cc:	a92ff0ef          	jal	ra,185e <rt_object_get_information>
    25d0:	0000d437          	lui	s0,0xd
    25d4:	00450913          	addi	s2,a0,4
    25d8:	85ca                	mv	a1,s2
    25da:	89aa                	mv	s3,a0
    25dc:	00840513          	addi	a0,s0,8 # d008 <__fsym_list_mem_name+0x1ac>
    25e0:	c59ff0ef          	jal	ra,2238 <object_name_maxlen>
    25e4:	84aa                	mv	s1,a0
    25e6:	85aa                	mv	a1,a0
    25e8:	0000d537          	lui	a0,0xd
    25ec:	00840613          	addi	a2,s0,8
    25f0:	01050513          	addi	a0,a0,16 # d010 <__fsym_list_mem_name+0x1b4>
    25f4:	e25fe0ef          	jal	ra,1418 <rt_kprintf>
    25f8:	cc89                	beqz	s1,2612 <list_mailbox+0x4c>
    25fa:	fff48413          	addi	s0,s1,-1
    25fe:	0000dab7          	lui	s5,0xd
    2602:	5a7d                	li	s4,-1
    2604:	147d                	addi	s0,s0,-1
    2606:	230a8513          	addi	a0,s5,560 # d230 <__fsym_list_mem_name+0x3d4>
    260a:	e0ffe0ef          	jal	ra,1418 <rt_kprintf>
    260e:	ff441be3          	bne	s0,s4,2604 <list_mailbox+0x3e>
    2612:	0000d537          	lui	a0,0xd
    2616:	03450513          	addi	a0,a0,52 # d034 <__fsym_list_mem_name+0x1d8>
    261a:	dfffe0ef          	jal	ra,1418 <rt_kprintf>
    261e:	0049a403          	lw	s0,4(s3)
    2622:	04890863          	beq	s2,s0,2672 <list_mailbox+0xac>
    2626:	0000db37          	lui	s6,0xd
    262a:	0000dab7          	lui	s5,0xd
    262e:	00011a37          	lui	s4,0x11
    2632:	4410                	lw	a2,8(s0)
    2634:	00840993          	addi	s3,s0,8
    2638:	ff440693          	addi	a3,s0,-12
    263c:	01645703          	lhu	a4,22(s0)
    2640:	01445783          	lhu	a5,20(s0)
    2644:	4801                	li	a6,0
    2646:	02c98963          	beq	s3,a2,2678 <list_mailbox+0xb2>
    264a:	4210                	lw	a2,0(a2)
    264c:	0805                	addi	a6,a6,1
    264e:	fec99ee3          	bne	s3,a2,264a <list_mailbox+0x84>
    2652:	4621                	li	a2,8
    2654:	85a6                	mv	a1,s1
    2656:	050a8513          	addi	a0,s5,80 # d050 <__fsym_list_mem_name+0x1f4>
    265a:	dbffe0ef          	jal	ra,1418 <rt_kprintf>
    265e:	854e                	mv	a0,s3
    2660:	b9fff0ef          	jal	ra,21fe <show_wait_queue>
    2664:	374a0513          	addi	a0,s4,884 # 11374 <asc2_3216+0x1898>
    2668:	db1fe0ef          	jal	ra,1418 <rt_kprintf>
    266c:	4000                	lw	s0,0(s0)
    266e:	fc8912e3          	bne	s2,s0,2632 <list_mailbox+0x6c>
    2672:	4501                	li	a0,0
    2674:	d89fd06f          	j	3fc <__riscv_restore_4>
    2678:	4621                	li	a2,8
    267a:	85a6                	mv	a1,s1
    267c:	068b0513          	addi	a0,s6,104 # d068 <__fsym_list_mem_name+0x20c>
    2680:	d99fe0ef          	jal	ra,1418 <rt_kprintf>
    2684:	b7e5                	j	266c <list_mailbox+0xa6>

00002686 <list_msgqueue>:
    2686:	d43fd2ef          	jal	t0,3c8 <__riscv_save_4>
    268a:	4519                	li	a0,6
    268c:	9d2ff0ef          	jal	ra,185e <rt_object_get_information>
    2690:	0000d437          	lui	s0,0xd
    2694:	00450913          	addi	s2,a0,4
    2698:	85ca                	mv	a1,s2
    269a:	89aa                	mv	s3,a0
    269c:	08040513          	addi	a0,s0,128 # d080 <__fsym_list_mem_name+0x224>
    26a0:	b99ff0ef          	jal	ra,2238 <object_name_maxlen>
    26a4:	84aa                	mv	s1,a0
    26a6:	85aa                	mv	a1,a0
    26a8:	0000d537          	lui	a0,0xd
    26ac:	08040613          	addi	a2,s0,128
    26b0:	08c50513          	addi	a0,a0,140 # d08c <__fsym_list_mem_name+0x230>
    26b4:	d65fe0ef          	jal	ra,1418 <rt_kprintf>
    26b8:	cc89                	beqz	s1,26d2 <list_msgqueue+0x4c>
    26ba:	fff48413          	addi	s0,s1,-1
    26be:	0000dab7          	lui	s5,0xd
    26c2:	5a7d                	li	s4,-1
    26c4:	147d                	addi	s0,s0,-1
    26c6:	230a8513          	addi	a0,s5,560 # d230 <__fsym_list_mem_name+0x3d4>
    26ca:	d4ffe0ef          	jal	ra,1418 <rt_kprintf>
    26ce:	ff441be3          	bne	s0,s4,26c4 <list_msgqueue+0x3e>
    26d2:	0000d537          	lui	a0,0xd
    26d6:	0a850513          	addi	a0,a0,168 # d0a8 <__fsym_list_mem_name+0x24c>
    26da:	d3ffe0ef          	jal	ra,1418 <rt_kprintf>
    26de:	0049a403          	lw	s0,4(s3)
    26e2:	04890663          	beq	s2,s0,272e <list_msgqueue+0xa8>
    26e6:	0000db37          	lui	s6,0xd
    26ea:	0000dab7          	lui	s5,0xd
    26ee:	00011a37          	lui	s4,0x11
    26f2:	4410                	lw	a2,8(s0)
    26f4:	00840993          	addi	s3,s0,8
    26f8:	ff440693          	addi	a3,s0,-12
    26fc:	01845703          	lhu	a4,24(s0)
    2700:	4781                	li	a5,0
    2702:	02c98963          	beq	s3,a2,2734 <list_msgqueue+0xae>
    2706:	4210                	lw	a2,0(a2)
    2708:	0785                	addi	a5,a5,1
    270a:	fec99ee3          	bne	s3,a2,2706 <list_msgqueue+0x80>
    270e:	4621                	li	a2,8
    2710:	85a6                	mv	a1,s1
    2712:	0c0a8513          	addi	a0,s5,192 # d0c0 <__fsym_list_mem_name+0x264>
    2716:	d03fe0ef          	jal	ra,1418 <rt_kprintf>
    271a:	854e                	mv	a0,s3
    271c:	ae3ff0ef          	jal	ra,21fe <show_wait_queue>
    2720:	374a0513          	addi	a0,s4,884 # 11374 <asc2_3216+0x1898>
    2724:	cf5fe0ef          	jal	ra,1418 <rt_kprintf>
    2728:	4000                	lw	s0,0(s0)
    272a:	fc8914e3          	bne	s2,s0,26f2 <list_msgqueue+0x6c>
    272e:	4501                	li	a0,0
    2730:	ccdfd06f          	j	3fc <__riscv_restore_4>
    2734:	4621                	li	a2,8
    2736:	85a6                	mv	a1,s1
    2738:	0d4b0513          	addi	a0,s6,212 # d0d4 <__fsym_list_mem_name+0x278>
    273c:	cddfe0ef          	jal	ra,1418 <rt_kprintf>
    2740:	b7e5                	j	2728 <list_msgqueue+0xa2>

00002742 <list_device>:
    2742:	c87fd2ef          	jal	t0,3c8 <__riscv_save_4>
    2746:	715d                	addi	sp,sp,-80
    2748:	4525                	li	a0,9
    274a:	914ff0ef          	jal	ra,185e <rt_object_get_information>
    274e:	67b5                	lui	a5,0xd
    2750:	a5478793          	addi	a5,a5,-1452 # ca54 <_read+0x12>
    2754:	89aa                	mv	s3,a0
    2756:	00450913          	addi	s2,a0,4
    275a:	870a                	mv	a4,sp
    275c:	05078693          	addi	a3,a5,80
    2760:	0007a803          	lw	a6,0(a5)
    2764:	43c8                	lw	a0,4(a5)
    2766:	478c                	lw	a1,8(a5)
    2768:	47d0                	lw	a2,12(a5)
    276a:	01072023          	sw	a6,0(a4)
    276e:	c348                	sw	a0,4(a4)
    2770:	c70c                	sw	a1,8(a4)
    2772:	c750                	sw	a2,12(a4)
    2774:	07c1                	addi	a5,a5,16
    2776:	0741                	addi	a4,a4,16
    2778:	fed794e3          	bne	a5,a3,2760 <list_device+0x1e>
    277c:	0000d437          	lui	s0,0xd
    2780:	85ca                	mv	a1,s2
    2782:	f2840513          	addi	a0,s0,-216 # cf28 <__fsym_list_mem_name+0xcc>
    2786:	ab3ff0ef          	jal	ra,2238 <object_name_maxlen>
    278a:	84aa                	mv	s1,a0
    278c:	85aa                	mv	a1,a0
    278e:	0000d537          	lui	a0,0xd
    2792:	f2840613          	addi	a2,s0,-216
    2796:	f3050513          	addi	a0,a0,-208 # cf30 <__fsym_list_mem_name+0xd4>
    279a:	c7ffe0ef          	jal	ra,1418 <rt_kprintf>
    279e:	fff48413          	addi	s0,s1,-1
    27a2:	c899                	beqz	s1,27b8 <list_device+0x76>
    27a4:	0000dab7          	lui	s5,0xd
    27a8:	5a7d                	li	s4,-1
    27aa:	147d                	addi	s0,s0,-1
    27ac:	230a8513          	addi	a0,s5,560 # d230 <__fsym_list_mem_name+0x3d4>
    27b0:	c69fe0ef          	jal	ra,1418 <rt_kprintf>
    27b4:	ff441be3          	bne	s0,s4,27aa <list_device+0x68>
    27b8:	0000d537          	lui	a0,0xd
    27bc:	f5850513          	addi	a0,a0,-168 # cf58 <__fsym_list_mem_name+0xfc>
    27c0:	c59fe0ef          	jal	ra,1418 <rt_kprintf>
    27c4:	0049a403          	lw	s0,4(s3)
    27c8:	04890863          	beq	s2,s0,2818 <list_device+0xd6>
    27cc:	0000da37          	lui	s4,0xd
    27d0:	49d1                	li	s3,20
    27d2:	a831                	j	27ee <list_device+0xac>
    27d4:	fb07a703          	lw	a4,-80(a5)
    27d8:	01044783          	lbu	a5,16(s0)
    27dc:	4621                	li	a2,8
    27de:	85a6                	mv	a1,s1
    27e0:	f7ca0513          	addi	a0,s4,-132 # cf7c <__fsym_list_mem_name+0x120>
    27e4:	c35fe0ef          	jal	ra,1418 <rt_kprintf>
    27e8:	4000                	lw	s0,0(s0)
    27ea:	02890763          	beq	s2,s0,2818 <list_device+0xd6>
    27ee:	4418                	lw	a4,8(s0)
    27f0:	0890                	addi	a2,sp,80
    27f2:	ff440693          	addi	a3,s0,-12
    27f6:	00271793          	slli	a5,a4,0x2
    27fa:	97b2                	add	a5,a5,a2
    27fc:	fce9fce3          	bgeu	s3,a4,27d4 <list_device+0x92>
    2800:	01044783          	lbu	a5,16(s0)
    2804:	4746                	lw	a4,80(sp)
    2806:	4621                	li	a2,8
    2808:	85a6                	mv	a1,s1
    280a:	f7ca0513          	addi	a0,s4,-132
    280e:	c0bfe0ef          	jal	ra,1418 <rt_kprintf>
    2812:	4000                	lw	s0,0(s0)
    2814:	fc891de3          	bne	s2,s0,27ee <list_device+0xac>
    2818:	4501                	li	a0,0
    281a:	6161                	addi	sp,sp,80
    281c:	be1fd06f          	j	3fc <__riscv_restore_4>

00002820 <list_timer>:
    2820:	ba9fd2ef          	jal	t0,3c8 <__riscv_save_4>
    2824:	4529                	li	a0,10
    2826:	838ff0ef          	jal	ra,185e <rt_object_get_information>
    282a:	0000d437          	lui	s0,0xd
    282e:	00450913          	addi	s2,a0,4
    2832:	85ca                	mv	a1,s2
    2834:	89aa                	mv	s3,a0
    2836:	29840513          	addi	a0,s0,664 # d298 <__fsym_list_mem_name+0x43c>
    283a:	9ffff0ef          	jal	ra,2238 <object_name_maxlen>
    283e:	84aa                	mv	s1,a0
    2840:	85aa                	mv	a1,a0
    2842:	0000d537          	lui	a0,0xd
    2846:	29840613          	addi	a2,s0,664
    284a:	2a050513          	addi	a0,a0,672 # d2a0 <__fsym_list_mem_name+0x444>
    284e:	bcbfe0ef          	jal	ra,1418 <rt_kprintf>
    2852:	cc89                	beqz	s1,286c <list_timer+0x4c>
    2854:	fff48413          	addi	s0,s1,-1
    2858:	0000dab7          	lui	s5,0xd
    285c:	5a7d                	li	s4,-1
    285e:	147d                	addi	s0,s0,-1
    2860:	230a8513          	addi	a0,s5,560 # d230 <__fsym_list_mem_name+0x3d4>
    2864:	bb5fe0ef          	jal	ra,1418 <rt_kprintf>
    2868:	ff441be3          	bne	s0,s4,285e <list_timer+0x3e>
    286c:	0000d537          	lui	a0,0xd
    2870:	2c850513          	addi	a0,a0,712 # d2c8 <__fsym_list_mem_name+0x46c>
    2874:	ba5fe0ef          	jal	ra,1418 <rt_kprintf>
    2878:	0049a403          	lw	s0,4(s3)
    287c:	02890f63          	beq	s2,s0,28ba <list_timer+0x9a>
    2880:	0000dab7          	lui	s5,0xd
    2884:	0000da37          	lui	s4,0xd
    2888:	0000d9b7          	lui	s3,0xd
    288c:	4c5c                	lw	a5,28(s0)
    288e:	4c18                	lw	a4,24(s0)
    2890:	2eca8513          	addi	a0,s5,748 # d2ec <__fsym_list_mem_name+0x490>
    2894:	ff440693          	addi	a3,s0,-12
    2898:	4621                	li	a2,8
    289a:	85a6                	mv	a1,s1
    289c:	b7dfe0ef          	jal	ra,1418 <rt_kprintf>
    28a0:	ffd44783          	lbu	a5,-3(s0)
    28a4:	30498513          	addi	a0,s3,772 # d304 <__fsym_list_mem_name+0x4a8>
    28a8:	8b85                	andi	a5,a5,1
    28aa:	e399                	bnez	a5,28b0 <list_timer+0x90>
    28ac:	310a0513          	addi	a0,s4,784 # d310 <__fsym_list_mem_name+0x4b4>
    28b0:	b69fe0ef          	jal	ra,1418 <rt_kprintf>
    28b4:	4000                	lw	s0,0(s0)
    28b6:	fc891be3          	bne	s2,s0,288c <list_timer+0x6c>
    28ba:	c01fd0ef          	jal	ra,4ba <rt_tick_get>
    28be:	85aa                	mv	a1,a0
    28c0:	0000d537          	lui	a0,0xd
    28c4:	32050513          	addi	a0,a0,800 # d320 <__fsym_list_mem_name+0x4c4>
    28c8:	b51fe0ef          	jal	ra,1418 <rt_kprintf>
    28cc:	4501                	li	a0,0
    28ce:	b2ffd06f          	j	3fc <__riscv_restore_4>

000028d2 <list>:
    28d2:	af7fd2ef          	jal	t0,3c8 <__riscv_save_4>
    28d6:	0000d537          	lui	a0,0xd
    28da:	f0050513          	addi	a0,a0,-256 # cf00 <__fsym_list_mem_name+0xa4>
    28de:	b3bfe0ef          	jal	ra,1418 <rt_kprintf>
    28e2:	8d81a403          	lw	s0,-1832(gp) # 20003400 <_syscall_table_begin>
    28e6:	8dc1a783          	lw	a5,-1828(gp) # 20003404 <_syscall_table_end>
    28ea:	02f47963          	bgeu	s0,a5,291c <list+0x4a>
    28ee:	0000d9b7          	lui	s3,0xd
    28f2:	0000da37          	lui	s4,0xd
    28f6:	4004                	lw	s1,0(s0)
    28f8:	f1498593          	addi	a1,s3,-236 # cf14 <__fsym_list_mem_name+0xb8>
    28fc:	4609                	li	a2,2
    28fe:	8526                	mv	a0,s1
    2900:	4d3080ef          	jal	ra,b5d2 <strncmp>
    2904:	85a6                	mv	a1,s1
    2906:	c511                	beqz	a0,2912 <list+0x40>
    2908:	4050                	lw	a2,4(s0)
    290a:	f18a0513          	addi	a0,s4,-232 # cf18 <__fsym_list_mem_name+0xbc>
    290e:	b0bfe0ef          	jal	ra,1418 <rt_kprintf>
    2912:	8dc1a783          	lw	a5,-1828(gp) # 20003404 <_syscall_table_end>
    2916:	0431                	addi	s0,s0,12
    2918:	fcf46fe3          	bltu	s0,a5,28f6 <list+0x24>
    291c:	4501                	li	a0,0
    291e:	adffd06f          	j	3fc <__riscv_restore_4>

00002922 <msh_help>:
    2922:	aa7fd2ef          	jal	t0,3c8 <__riscv_save_4>
    2926:	0000d537          	lui	a0,0xd
    292a:	7bc50513          	addi	a0,a0,1980 # d7bc <__fsym_reboot_name+0x168>
    292e:	aebfe0ef          	jal	ra,1418 <rt_kprintf>
    2932:	8d81a403          	lw	s0,-1832(gp) # 20003400 <_syscall_table_begin>
    2936:	8dc1a783          	lw	a5,-1828(gp) # 20003404 <_syscall_table_end>
    293a:	02f47a63          	bgeu	s0,a5,296e <msh_help+0x4c>
    293e:	0000d9b7          	lui	s3,0xd
    2942:	0000da37          	lui	s4,0xd
    2946:	4004                	lw	s1,0(s0)
    2948:	7d898593          	addi	a1,s3,2008 # d7d8 <__fsym_reboot_name+0x184>
    294c:	4619                	li	a2,6
    294e:	8526                	mv	a0,s1
    2950:	483080ef          	jal	ra,b5d2 <strncmp>
    2954:	00648593          	addi	a1,s1,6
    2958:	e511                	bnez	a0,2964 <msh_help+0x42>
    295a:	4050                	lw	a2,4(s0)
    295c:	7e0a0513          	addi	a0,s4,2016 # d7e0 <__fsym_reboot_name+0x18c>
    2960:	ab9fe0ef          	jal	ra,1418 <rt_kprintf>
    2964:	8dc1a783          	lw	a5,-1828(gp) # 20003404 <_syscall_table_end>
    2968:	0431                	addi	s0,s0,12
    296a:	fcf46ee3          	bltu	s0,a5,2946 <msh_help+0x24>
    296e:	00011537          	lui	a0,0x11
    2972:	37450513          	addi	a0,a0,884 # 11374 <asc2_3216+0x1898>
    2976:	aa3fe0ef          	jal	ra,1418 <rt_kprintf>
    297a:	4501                	li	a0,0
    297c:	a81fd06f          	j	3fc <__riscv_restore_4>

00002980 <msh_is_used>:
    2980:	4505                	li	a0,1
    2982:	8082                	ret

00002984 <msh_exec>:
    2984:	a37fd2ef          	jal	t0,3ba <__riscv_save_10>
    2988:	7179                	addi	sp,sp,-48
    298a:	84aa                	mv	s1,a0
    298c:	95aa                	add	a1,a1,a0
    298e:	02000793          	li	a5,32
    2992:	4725                	li	a4,9
    2994:	00048403          	lb	s0,0(s1)
    2998:	40958933          	sub	s2,a1,s1
    299c:	00f40463          	beq	s0,a5,29a4 <msh_exec+0x20>
    29a0:	00e41463          	bne	s0,a4,29a8 <msh_exec+0x24>
    29a4:	0485                	addi	s1,s1,1
    29a6:	b7fd                	j	2994 <msh_exec+0x10>
    29a8:	4501                	li	a0,0
    29aa:	00091563          	bnez	s2,29b4 <msh_exec+0x30>
    29ae:	6145                	addi	sp,sp,48
    29b0:	a43fd06f          	j	3f2 <__riscv_restore_10>
    29b4:	4b01                	li	s6,0
    29b6:	02000713          	li	a4,32
    29ba:	46a5                	li	a3,9
    29bc:	a031                	j	29c8 <msh_exec+0x44>
    29be:	00d78d63          	beq	a5,a3,29d8 <msh_exec+0x54>
    29c2:	01590b63          	beq	s2,s5,29d8 <msh_exec+0x54>
    29c6:	8b56                	mv	s6,s5
    29c8:	001b0a93          	addi	s5,s6,1
    29cc:	015487b3          	add	a5,s1,s5
    29d0:	00078783          	lb	a5,0(a5)
    29d4:	fee795e3          	bne	a5,a4,29be <msh_exec+0x3a>
    29d8:	8d81aa03          	lw	s4,-1832(gp) # 20003400 <_syscall_table_begin>
    29dc:	8dc1ab83          	lw	s7,-1828(gp) # 20003404 <_syscall_table_end>
    29e0:	037a7b63          	bgeu	s4,s7,2a16 <msh_exec+0x92>
    29e4:	0000dc37          	lui	s8,0xd
    29e8:	000a2983          	lw	s3,0(s4)
    29ec:	4619                	li	a2,6
    29ee:	7d8c0593          	addi	a1,s8,2008 # d7d8 <__fsym_reboot_name+0x184>
    29f2:	854e                	mv	a0,s3
    29f4:	3df080ef          	jal	ra,b5d2 <strncmp>
    29f8:	8656                	mv	a2,s5
    29fa:	85a6                	mv	a1,s1
    29fc:	e911                	bnez	a0,2a10 <msh_exec+0x8c>
    29fe:	00698513          	addi	a0,s3,6
    2a02:	3d1080ef          	jal	ra,b5d2 <strncmp>
    2a06:	99da                	add	s3,s3,s6
    2a08:	e501                	bnez	a0,2a10 <msh_exec+0x8c>
    2a0a:	00798783          	lb	a5,7(s3)
    2a0e:	c79d                	beqz	a5,2a3c <msh_exec+0xb8>
    2a10:	0a31                	addi	s4,s4,12
    2a12:	fd7a6be3          	bltu	s4,s7,29e8 <msh_exec+0x64>
    2a16:	8726                	mv	a4,s1
    2a18:	c419                	beqz	s0,2a26 <msh_exec+0xa2>
    2a1a:	0705                	addi	a4,a4,1
    2a1c:	00070783          	lb	a5,0(a4)
    2a20:	fdf7f793          	andi	a5,a5,-33
    2a24:	fbfd                	bnez	a5,2a1a <msh_exec+0x96>
    2a26:	0000d537          	lui	a0,0xd
    2a2a:	7a450513          	addi	a0,a0,1956 # d7a4 <__fsym_reboot_name+0x150>
    2a2e:	00070023          	sb	zero,0(a4)
    2a32:	85a6                	mv	a1,s1
    2a34:	9e5fe0ef          	jal	ra,1418 <rt_kprintf>
    2a38:	557d                	li	a0,-1
    2a3a:	bf95                	j	29ae <msh_exec+0x2a>
    2a3c:	008a2983          	lw	s3,8(s4)
    2a40:	fc098be3          	beqz	s3,2a16 <msh_exec+0x92>
    2a44:	00810a13          	addi	s4,sp,8
    2a48:	c402                	sw	zero,8(sp)
    2a4a:	c602                	sw	zero,12(sp)
    2a4c:	c802                	sw	zero,16(sp)
    2a4e:	ca02                	sw	zero,20(sp)
    2a50:	cc02                	sw	zero,24(sp)
    2a52:	ce02                	sw	zero,28(sp)
    2a54:	d002                	sw	zero,32(sp)
    2a56:	d202                	sw	zero,36(sp)
    2a58:	d402                	sw	zero,40(sp)
    2a5a:	d602                	sw	zero,44(sp)
    2a5c:	8ed2                	mv	t4,s4
    2a5e:	87a6                	mv	a5,s1
    2a60:	4701                	li	a4,0
    2a62:	4501                	li	a0,0
    2a64:	02000813          	li	a6,32
    2a68:	45a5                	li	a1,9
    2a6a:	4fa9                	li	t6,10
    2a6c:	02200e13          	li	t3,34
    2a70:	05c00f13          	li	t5,92
    2a74:	01040463          	beq	s0,a6,2a7c <msh_exec+0xf8>
    2a78:	00b41b63          	bne	s0,a1,2a8e <msh_exec+0x10a>
    2a7c:	05277963          	bgeu	a4,s2,2ace <msh_exec+0x14a>
    2a80:	00078023          	sb	zero,0(a5)
    2a84:	0785                	addi	a5,a5,1
    2a86:	00078403          	lb	s0,0(a5)
    2a8a:	0705                	addi	a4,a4,1
    2a8c:	b7e5                	j	2a74 <msh_exec+0xf0>
    2a8e:	05f50363          	beq	a0,t6,2ad4 <msh_exec+0x150>
    2a92:	0f277763          	bgeu	a4,s2,2b80 <msh_exec+0x1fc>
    2a96:	0505                	addi	a0,a0,1
    2a98:	07c40c63          	beq	s0,t3,2b10 <msh_exec+0x18c>
    2a9c:	40e908b3          	sub	a7,s2,a4
    2aa0:	00fea023          	sw	a5,0(t4)
    2aa4:	98be                	add	a7,a7,a5
    2aa6:	86be                	mv	a3,a5
    2aa8:	a029                	j	2ab2 <msh_exec+0x12e>
    2aaa:	00b40c63          	beq	s0,a1,2ac2 <msh_exec+0x13e>
    2aae:	04d88c63          	beq	a7,a3,2b06 <msh_exec+0x182>
    2ab2:	0685                	addi	a3,a3,1
    2ab4:	00068403          	lb	s0,0(a3) # 80000000 <_eusrstack+0x5fff0000>
    2ab8:	00e68633          	add	a2,a3,a4
    2abc:	8e1d                	sub	a2,a2,a5
    2abe:	ff0416e3          	bne	s0,a6,2aaa <msh_exec+0x126>
    2ac2:	05267263          	bgeu	a2,s2,2b06 <msh_exec+0x182>
    2ac6:	0e91                	addi	t4,t4,4
    2ac8:	87b6                	mv	a5,a3
    2aca:	8732                	mv	a4,a2
    2acc:	b765                	j	2a74 <msh_exec+0xf0>
    2ace:	47a9                	li	a5,10
    2ad0:	0af51863          	bne	a0,a5,2b80 <msh_exec+0x1fc>
    2ad4:	0000d537          	lui	a0,0xd
    2ad8:	78050513          	addi	a0,a0,1920 # d780 <__fsym_reboot_name+0x12c>
    2adc:	93dfe0ef          	jal	ra,1418 <rt_kprintf>
    2ae0:	1804                	addi	s1,sp,48
    2ae2:	0000d437          	lui	s0,0xd
    2ae6:	000a2583          	lw	a1,0(s4)
    2aea:	7a040513          	addi	a0,s0,1952 # d7a0 <__fsym_reboot_name+0x14c>
    2aee:	0a11                	addi	s4,s4,4
    2af0:	929fe0ef          	jal	ra,1418 <rt_kprintf>
    2af4:	ff4499e3          	bne	s1,s4,2ae6 <msh_exec+0x162>
    2af8:	00011537          	lui	a0,0x11
    2afc:	37450513          	addi	a0,a0,884 # 11374 <asc2_3216+0x1898>
    2b00:	919fe0ef          	jal	ra,1418 <rt_kprintf>
    2b04:	4529                	li	a0,10
    2b06:	002c                	addi	a1,sp,8
    2b08:	9982                	jalr	s3
    2b0a:	6145                	addi	sp,sp,48
    2b0c:	8e7fd06f          	j	3f2 <__riscv_restore_10>
    2b10:	00178683          	lb	a3,1(a5)
    2b14:	0785                	addi	a5,a5,1
    2b16:	00fea023          	sw	a5,0(t4)
    2b1a:	0705                	addi	a4,a4,1
    2b1c:	07c68b63          	beq	a3,t3,2b92 <msh_exec+0x20e>
    2b20:	ff2773e3          	bgeu	a4,s2,2b06 <msh_exec+0x182>
    2b24:	00178303          	lb	t1,1(a5)
    2b28:	00178893          	addi	a7,a5,1
    2b2c:	00170613          	addi	a2,a4,1
    2b30:	03e68163          	beq	a3,t5,2b52 <msh_exec+0x1ce>
    2b34:	869a                	mv	a3,t1
    2b36:	03c68963          	beq	a3,t3,2b68 <msh_exec+0x1e4>
    2b3a:	8732                	mv	a4,a2
    2b3c:	87c6                	mv	a5,a7
    2b3e:	fd2674e3          	bgeu	a2,s2,2b06 <msh_exec+0x182>
    2b42:	00178303          	lb	t1,1(a5)
    2b46:	00178893          	addi	a7,a5,1
    2b4a:	00170613          	addi	a2,a4,1
    2b4e:	ffe693e3          	bne	a3,t5,2b34 <msh_exec+0x1b0>
    2b52:	869a                	mv	a3,t1
    2b54:	ffc313e3          	bne	t1,t3,2b3a <msh_exec+0x1b6>
    2b58:	00278683          	lb	a3,2(a5)
    2b5c:	00278893          	addi	a7,a5,2
    2b60:	00270613          	addi	a2,a4,2
    2b64:	fdc69be3          	bne	a3,t3,2b3a <msh_exec+0x1b6>
    2b68:	f9267fe3          	bgeu	a2,s2,2b06 <msh_exec+0x182>
    2b6c:	00088023          	sb	zero,0(a7) # 80000000 <_eusrstack+0x5fff0000>
    2b70:	0605                	addi	a2,a2,1
    2b72:	00188693          	addi	a3,a7,1
    2b76:	f92678e3          	bgeu	a2,s2,2b06 <msh_exec+0x182>
    2b7a:	00188403          	lb	s0,1(a7)
    2b7e:	b7a1                	j	2ac6 <msh_exec+0x142>
    2b80:	f159                	bnez	a0,2b06 <msh_exec+0x182>
    2b82:	00048403          	lb	s0,0(s1)
    2b86:	02000793          	li	a5,32
    2b8a:	8726                	mv	a4,s1
    2b8c:	e8f415e3          	bne	s0,a5,2a16 <msh_exec+0x92>
    2b90:	bd59                	j	2a26 <msh_exec+0xa2>
    2b92:	863a                	mv	a2,a4
    2b94:	88be                	mv	a7,a5
    2b96:	bfc9                	j	2b68 <msh_exec+0x1e4>

00002b98 <msh_auto_complete>:
    2b98:	823fd2ef          	jal	t0,3ba <__riscv_save_10>
    2b9c:	00050783          	lb	a5,0(a0)
    2ba0:	cfcd                	beqz	a5,2c5a <msh_auto_complete+0xc2>
    2ba2:	8d81ac03          	lw	s8,-1832(gp) # 20003400 <_syscall_table_begin>
    2ba6:	8dc1a783          	lw	a5,-1828(gp) # 20003404 <_syscall_table_end>
    2baa:	0afc7663          	bgeu	s8,a5,2c56 <msh_auto_complete+0xbe>
    2bae:	892a                	mv	s2,a0
    2bb0:	4a81                	li	s5,0
    2bb2:	4b01                	li	s6,0
    2bb4:	0000da37          	lui	s4,0xd
    2bb8:	0000dbb7          	lui	s7,0xd
    2bbc:	a031                	j	2bc8 <msh_auto_complete+0x30>
    2bbe:	8dc1a783          	lw	a5,-1828(gp) # 20003404 <_syscall_table_end>
    2bc2:	0c31                	addi	s8,s8,12
    2bc4:	08fc7263          	bgeu	s8,a5,2c48 <msh_auto_complete+0xb0>
    2bc8:	000c2c83          	lw	s9,0(s8)
    2bcc:	4619                	li	a2,6
    2bce:	7d8a0593          	addi	a1,s4,2008 # d7d8 <__fsym_reboot_name+0x184>
    2bd2:	8566                	mv	a0,s9
    2bd4:	1ff080ef          	jal	ra,b5d2 <strncmp>
    2bd8:	f17d                	bnez	a0,2bbe <msh_auto_complete+0x26>
    2bda:	854a                	mv	a0,s2
    2bdc:	1e5080ef          	jal	ra,b5c0 <strlen>
    2be0:	006c8493          	addi	s1,s9,6
    2be4:	862a                	mv	a2,a0
    2be6:	85a6                	mv	a1,s1
    2be8:	854a                	mv	a0,s2
    2bea:	1e9080ef          	jal	ra,b5d2 <strncmp>
    2bee:	842a                	mv	s0,a0
    2bf0:	f579                	bnez	a0,2bbe <msh_auto_complete+0x26>
    2bf2:	000b1763          	bnez	s6,2c00 <msh_auto_complete+0x68>
    2bf6:	8526                	mv	a0,s1
    2bf8:	1c9080ef          	jal	ra,b5c0 <strlen>
    2bfc:	8b2a                	mv	s6,a0
    2bfe:	8aa6                	mv	s5,s1
    2c00:	000a8783          	lb	a5,0(s5)
    2c04:	c78d                	beqz	a5,2c2e <msh_auto_complete+0x96>
    2c06:	006c8703          	lb	a4,6(s9)
    2c0a:	c315                	beqz	a4,2c2e <msh_auto_complete+0x96>
    2c0c:	02e79163          	bne	a5,a4,2c2e <msh_auto_complete+0x96>
    2c10:	87a6                	mv	a5,s1
    2c12:	8556                	mv	a0,s5
    2c14:	a031                	j	2c20 <msh_auto_complete+0x88>
    2c16:	00078683          	lb	a3,0(a5)
    2c1a:	ca81                	beqz	a3,2c2a <msh_auto_complete+0x92>
    2c1c:	00d71763          	bne	a4,a3,2c2a <msh_auto_complete+0x92>
    2c20:	0505                	addi	a0,a0,1
    2c22:	00050703          	lb	a4,0(a0)
    2c26:	0785                	addi	a5,a5,1
    2c28:	f77d                	bnez	a4,2c16 <msh_auto_complete+0x7e>
    2c2a:	41550433          	sub	s0,a0,s5
    2c2e:	01645363          	bge	s0,s6,2c34 <msh_auto_complete+0x9c>
    2c32:	8b22                	mv	s6,s0
    2c34:	85a6                	mv	a1,s1
    2c36:	7e8b8513          	addi	a0,s7,2024 # d7e8 <__fsym_reboot_name+0x194>
    2c3a:	fdefe0ef          	jal	ra,1418 <rt_kprintf>
    2c3e:	8dc1a783          	lw	a5,-1828(gp) # 20003404 <_syscall_table_end>
    2c42:	0c31                	addi	s8,s8,12
    2c44:	f8fc62e3          	bltu	s8,a5,2bc8 <msh_auto_complete+0x30>
    2c48:	000a8763          	beqz	s5,2c56 <msh_auto_complete+0xbe>
    2c4c:	865a                	mv	a2,s6
    2c4e:	85d6                	mv	a1,s5
    2c50:	854a                	mv	a0,s2
    2c52:	afcfe0ef          	jal	ra,f4e <rt_strncpy>
    2c56:	f9cfd06f          	j	3f2 <__riscv_restore_10>
    2c5a:	4581                	li	a1,0
    2c5c:	4501                	li	a0,0
    2c5e:	cc5ff0ef          	jal	ra,2922 <msh_help>
    2c62:	f90fd06f          	j	3f2 <__riscv_restore_10>

00002c66 <cmd_ps>:
    2c66:	f7cfd2ef          	jal	t0,3e2 <__riscv_save_0>
    2c6a:	e14ff0ef          	jal	ra,227e <list_thread>
    2c6e:	4501                	li	a0,0
    2c70:	f96fd06f          	j	406 <__riscv_restore_0>

00002c74 <cmd_free>:
    2c74:	f6efd2ef          	jal	t0,3e2 <__riscv_save_0>
    2c78:	929fe0ef          	jal	ra,15a0 <list_mem>
    2c7c:	4501                	li	a0,0
    2c7e:	f88fd06f          	j	406 <__riscv_restore_0>

00002c82 <finsh_rx_ind>:
    2c82:	f60fd2ef          	jal	t0,3e2 <__riscv_save_0>
    2c86:	8d41a503          	lw	a0,-1836(gp) # 200033fc <shell>
    2c8a:	cfffd0ef          	jal	ra,988 <rt_sem_release>
    2c8e:	4501                	li	a0,0
    2c90:	f76fd06f          	j	406 <__riscv_restore_0>

00002c94 <finsh_system_init>:
    2c94:	f4efd2ef          	jal	t0,3e2 <__riscv_save_0>
    2c98:	000117b7          	lui	a5,0x11
    2c9c:	7d078793          	addi	a5,a5,2000 # 117d0 <__fsym_list_mem>
    2ca0:	8cf1ac23          	sw	a5,-1832(gp) # 20003400 <_syscall_table_begin>
    2ca4:	000127b7          	lui	a5,0x12
    2ca8:	92078793          	addi	a5,a5,-1760 # 11920 <__rt_init_rti_start>
    2cac:	8cf1ae23          	sw	a5,-1828(gp) # 20003404 <_syscall_table_end>
    2cb0:	000127b7          	lui	a5,0x12
    2cb4:	92078793          	addi	a5,a5,-1760 # 11920 <__rt_init_rti_start>
    2cb8:	8ef1a023          	sw	a5,-1824(gp) # 20003408 <_sysvar_table_begin>
    2cbc:	000127b7          	lui	a5,0x12
    2cc0:	92078793          	addi	a5,a5,-1760 # 11920 <__rt_init_rti_start>
    2cc4:	21000593          	li	a1,528
    2cc8:	4505                	li	a0,1
    2cca:	8ef1a223          	sw	a5,-1820(gp) # 2000340c <_sysvar_table_end>
    2cce:	8d418413          	addi	s0,gp,-1836 # 200033fc <shell>
    2cd2:	abffe0ef          	jal	ra,1790 <rt_calloc>
    2cd6:	c008                	sw	a0,0(s0)
    2cd8:	c131                	beqz	a0,2d1c <finsh_system_init+0x88>
    2cda:	000035b7          	lui	a1,0x3
    2cde:	0000e537          	lui	a0,0xe
    2ce2:	47a9                	li	a5,10
    2ce4:	4755                	li	a4,21
    2ce6:	40000693          	li	a3,1024
    2cea:	4601                	li	a2,0
    2cec:	e2a58593          	addi	a1,a1,-470 # 2e2a <finsh_thread_entry>
    2cf0:	8a050513          	addi	a0,a0,-1888 # d8a0 <__fsym___cmd_ps_name+0x44>
    2cf4:	804ff0ef          	jal	ra,1cf8 <rt_thread_create>
    2cf8:	84aa                	mv	s1,a0
    2cfa:	4008                	lw	a0,0(s0)
    2cfc:	0000e5b7          	lui	a1,0xe
    2d00:	4681                	li	a3,0
    2d02:	4601                	li	a2,0
    2d04:	8a858593          	addi	a1,a1,-1880 # d8a8 <__fsym___cmd_ps_name+0x4c>
    2d08:	b77fd0ef          	jal	ra,87e <rt_sem_init>
    2d0c:	4401                	li	s0,0
    2d0e:	c481                	beqz	s1,2d16 <finsh_system_init+0x82>
    2d10:	8526                	mv	a0,s1
    2d12:	9a2ff0ef          	jal	ra,1eb4 <rt_thread_startup>
    2d16:	8522                	mv	a0,s0
    2d18:	eeefd06f          	j	406 <__riscv_restore_0>
    2d1c:	0000e537          	lui	a0,0xe
    2d20:	88850513          	addi	a0,a0,-1912 # d888 <__fsym___cmd_ps_name+0x2c>
    2d24:	ef4fe0ef          	jal	ra,1418 <rt_kprintf>
    2d28:	547d                	li	s0,-1
    2d2a:	b7f5                	j	2d16 <finsh_system_init+0x82>

00002d2c <finsh_get_prompt>:
    2d2c:	eb6fd2ef          	jal	t0,3e2 <__riscv_save_0>
    2d30:	c51ff0ef          	jal	ra,2980 <msh_is_used>
    2d34:	d7818413          	addi	s0,gp,-648 # 200038a0 <finsh_prompt.4315>
    2d38:	c51d                	beqz	a0,2d66 <finsh_get_prompt+0x3a>
    2d3a:	206877b7          	lui	a5,0x20687
    2d3e:	36d78793          	addi	a5,a5,877 # 2068736d <_eusrstack+0x67736d>
    2d42:	c01c                	sw	a5,0(s0)
    2d44:	00040223          	sb	zero,4(s0)
    2d48:	d7818513          	addi	a0,gp,-648 # 200038a0 <finsh_prompt.4315>
    2d4c:	075080ef          	jal	ra,b5c0 <strlen>
    2d50:	9522                	add	a0,a0,s0
    2d52:	03e00793          	li	a5,62
    2d56:	00f50023          	sb	a5,0(a0)
    2d5a:	000500a3          	sb	zero,1(a0)
    2d5e:	d7818513          	addi	a0,gp,-648 # 200038a0 <finsh_prompt.4315>
    2d62:	ea4fd06f          	j	406 <__riscv_restore_0>
    2d66:	736e77b7          	lui	a5,0x736e7
    2d6a:	96678793          	addi	a5,a5,-1690 # 736e6966 <_eusrstack+0x536d6966>
    2d6e:	c01c                	sw	a5,0(s0)
    2d70:	6789                	lui	a5,0x2
    2d72:	06878793          	addi	a5,a5,104 # 2068 <rt_timer_stop+0x20>
    2d76:	00f41223          	sh	a5,4(s0)
    2d7a:	00040323          	sb	zero,6(s0)
    2d7e:	b7e9                	j	2d48 <finsh_get_prompt+0x1c>

00002d80 <shell_handle_history>:
    2d80:	e62fd2ef          	jal	t0,3e2 <__riscv_save_0>
    2d84:	842a                	mv	s0,a0
    2d86:	0000e537          	lui	a0,0xe
    2d8a:	8c450513          	addi	a0,a0,-1852 # d8c4 <__fsym___cmd_ps_name+0x68>
    2d8e:	e8afe0ef          	jal	ra,1418 <rt_kprintf>
    2d92:	f9bff0ef          	jal	ra,2d2c <finsh_get_prompt>
    2d96:	85aa                	mv	a1,a0
    2d98:	0000e537          	lui	a0,0xe
    2d9c:	1ba40613          	addi	a2,s0,442
    2da0:	8cc50513          	addi	a0,a0,-1844 # d8cc <__fsym___cmd_ps_name+0x70>
    2da4:	e74fe0ef          	jal	ra,1418 <rt_kprintf>
    2da8:	4501                	li	a0,0
    2daa:	e5cfd06f          	j	406 <__riscv_restore_0>

00002dae <finsh_set_device>:
    2dae:	e34fd2ef          	jal	t0,3e2 <__riscv_save_0>
    2db2:	842a                	mv	s0,a0
    2db4:	841fd0ef          	jal	ra,5f4 <rt_device_find>
    2db8:	c12d                	beqz	a0,2e1a <finsh_set_device+0x6c>
    2dba:	8d418413          	addi	s0,gp,-1836 # 200033fc <shell>
    2dbe:	401c                	lw	a5,0(s0)
    2dc0:	84aa                	mv	s1,a0
    2dc2:	20c7a783          	lw	a5,524(a5)
    2dc6:	04a78863          	beq	a5,a0,2e16 <finsh_set_device+0x68>
    2dca:	14300593          	li	a1,323
    2dce:	8adfd0ef          	jal	ra,67a <rt_device_open>
    2dd2:	e131                	bnez	a0,2e16 <finsh_set_device+0x68>
    2dd4:	00042903          	lw	s2,0(s0)
    2dd8:	20c92503          	lw	a0,524(s2)
    2ddc:	c919                	beqz	a0,2df2 <finsh_set_device+0x44>
    2dde:	92bfd0ef          	jal	ra,708 <rt_device_close>
    2de2:	401c                	lw	a5,0(s0)
    2de4:	4581                	li	a1,0
    2de6:	20c7a503          	lw	a0,524(a5)
    2dea:	9b9fd0ef          	jal	ra,7a2 <rt_device_set_rx_indicate>
    2dee:	00042903          	lw	s2,0(s0)
    2df2:	4581                	li	a1,0
    2df4:	05000613          	li	a2,80
    2df8:	1ba90513          	addi	a0,s2,442
    2dfc:	e16fd0ef          	jal	ra,412 <memset>
    2e00:	000035b7          	lui	a1,0x3
    2e04:	20091523          	sh	zero,522(s2)
    2e08:	20992623          	sw	s1,524(s2)
    2e0c:	c8258593          	addi	a1,a1,-894 # 2c82 <finsh_rx_ind>
    2e10:	8526                	mv	a0,s1
    2e12:	991fd0ef          	jal	ra,7a2 <rt_device_set_rx_indicate>
    2e16:	df0fd06f          	j	406 <__riscv_restore_0>
    2e1a:	0000e537          	lui	a0,0xe
    2e1e:	85a2                	mv	a1,s0
    2e20:	86850513          	addi	a0,a0,-1944 # d868 <__fsym___cmd_ps_name+0xc>
    2e24:	df4fe0ef          	jal	ra,1418 <rt_kprintf>
    2e28:	b7fd                	j	2e16 <finsh_set_device+0x68>

00002e2a <finsh_thread_entry>:
    2e2a:	d88fd2ef          	jal	t0,3b2 <__riscv_save_12>
    2e2e:	8d418413          	addi	s0,gp,-1836 # 200033fc <shell>
    2e32:	401c                	lw	a5,0(s0)
    2e34:	1101                	addi	sp,sp,-32
    2e36:	0247c703          	lbu	a4,36(a5)
    2e3a:	20c7a683          	lw	a3,524(a5)
    2e3e:	00176713          	ori	a4,a4,1
    2e42:	02e78223          	sb	a4,36(a5)
    2e46:	48068e63          	beqz	a3,32e2 <finsh_thread_entry+0x4b8>
    2e4a:	ee3ff0ef          	jal	ra,2d2c <finsh_get_prompt>
    2e4e:	dcafe0ef          	jal	ra,1418 <rt_kprintf>
    2e52:	0000e937          	lui	s2,0xe
    2e56:	00042d83          	lw	s11,0(s0)
    2e5a:	0000ebb7          	lui	s7,0xe
    2e5e:	44ed                	li	s1,27
    2e60:	49a5                	li	s3,9
    2e62:	07f00a13          	li	s4,127
    2e66:	4aa1                	li	s5,8
    2e68:	4b35                	li	s6,13
    2e6a:	a039                	j	2e78 <finsh_thread_entry+0x4e>
    2e6c:	4008                	lw	a0,0(s0)
    2e6e:	55fd                	li	a1,-1
    2e70:	a35fd0ef          	jal	ra,8a4 <rt_sem_take>
    2e74:	00042d83          	lw	s11,0(s0)
    2e78:	20cda503          	lw	a0,524(s11)
    2e7c:	4685                	li	a3,1
    2e7e:	01f10613          	addi	a2,sp,31
    2e82:	55fd                	li	a1,-1
    2e84:	8c3fd0ef          	jal	ra,746 <rt_device_read>
    2e88:	4785                	li	a5,1
    2e8a:	fef511e3          	bne	a0,a5,2e6c <finsh_thread_entry+0x42>
    2e8e:	01f10c03          	lb	s8,31(sp)
    2e92:	00042d83          	lw	s11,0(s0)
    2e96:	0c9c0f63          	beq	s8,s1,2f74 <finsh_thread_entry+0x14a>
    2e9a:	020da703          	lw	a4,32(s11)
    2e9e:	0ca70e63          	beq	a4,a0,2f7a <finsh_thread_entry+0x150>
    2ea2:	4689                	li	a3,2
    2ea4:	06d70263          	beq	a4,a3,2f08 <finsh_thread_entry+0xde>
    2ea8:	fc0c08e3          	beqz	s8,2e78 <finsh_thread_entry+0x4e>
    2eac:	293c0563          	beq	s8,s3,3136 <finsh_thread_entry+0x30c>
    2eb0:	0d4c0c63          	beq	s8,s4,2f88 <finsh_thread_entry+0x15e>
    2eb4:	0d5c0a63          	beq	s8,s5,2f88 <finsh_thread_entry+0x15e>
    2eb8:	20adc703          	lbu	a4,522(s11)
    2ebc:	1b6c0a63          	beq	s8,s6,3070 <finsh_thread_entry+0x246>
    2ec0:	46a9                	li	a3,10
    2ec2:	1adc0763          	beq	s8,a3,3070 <finsh_thread_entry+0x246>
    2ec6:	04f00693          	li	a3,79
    2eca:	14e6f263          	bgeu	a3,a4,300e <finsh_thread_entry+0x1e4>
    2ece:	200d8523          	sb	zero,522(s11)
    2ed2:	4681                	li	a3,0
    2ed4:	96ee                	add	a3,a3,s11
    2ed6:	1b868d23          	sb	s8,442(a3)
    2eda:	024dc703          	lbu	a4,36(s11)
    2ede:	8b05                	andi	a4,a4,1
    2ee0:	ef35                	bnez	a4,2f5c <finsh_thread_entry+0x132>
    2ee2:	20adc703          	lbu	a4,522(s11)
    2ee6:	20bdc683          	lbu	a3,523(s11)
    2eea:	0705                	addi	a4,a4,1
    2eec:	0685                	addi	a3,a3,1
    2eee:	0ff77713          	andi	a4,a4,255
    2ef2:	20dd85a3          	sb	a3,523(s11)
    2ef6:	20ed8523          	sb	a4,522(s11)
    2efa:	04f00693          	li	a3,79
    2efe:	f6e6fde3          	bgeu	a3,a4,2e78 <finsh_thread_entry+0x4e>
    2f02:	200d9523          	sh	zero,522(s11)
    2f06:	bf8d                	j	2e78 <finsh_thread_entry+0x4e>
    2f08:	020da023          	sw	zero,32(s11)
    2f0c:	04100713          	li	a4,65
    2f10:	0aec0a63          	beq	s8,a4,2fc4 <finsh_thread_entry+0x19a>
    2f14:	04200713          	li	a4,66
    2f18:	1eec0263          	beq	s8,a4,30fc <finsh_thread_entry+0x2d2>
    2f1c:	04400713          	li	a4,68
    2f20:	2eec0963          	beq	s8,a4,3212 <finsh_thread_entry+0x3e8>
    2f24:	04300713          	li	a4,67
    2f28:	f8ec10e3          	bne	s8,a4,2ea8 <finsh_thread_entry+0x7e>
    2f2c:	20bdc703          	lbu	a4,523(s11)
    2f30:	20adc683          	lbu	a3,522(s11)
    2f34:	f4d772e3          	bgeu	a4,a3,2e78 <finsh_thread_entry+0x4e>
    2f38:	00ed87b3          	add	a5,s11,a4
    2f3c:	1ba78583          	lb	a1,442(a5)
    2f40:	0000e7b7          	lui	a5,0xe
    2f44:	8b478513          	addi	a0,a5,-1868 # d8b4 <__fsym___cmd_ps_name+0x58>
    2f48:	cd0fe0ef          	jal	ra,1418 <rt_kprintf>
    2f4c:	00042d83          	lw	s11,0(s0)
    2f50:	20bdc703          	lbu	a4,523(s11)
    2f54:	0705                	addi	a4,a4,1
    2f56:	20ed85a3          	sb	a4,523(s11)
    2f5a:	bf39                	j	2e78 <finsh_thread_entry+0x4e>
    2f5c:	0000e7b7          	lui	a5,0xe
    2f60:	85e2                	mv	a1,s8
    2f62:	8b478513          	addi	a0,a5,-1868 # d8b4 <__fsym___cmd_ps_name+0x58>
    2f66:	cb2fe0ef          	jal	ra,1418 <rt_kprintf>
    2f6a:	00042d83          	lw	s11,0(s0)
    2f6e:	20adc703          	lbu	a4,522(s11)
    2f72:	bf95                	j	2ee6 <finsh_thread_entry+0xbc>
    2f74:	02ada023          	sw	a0,32(s11)
    2f78:	b701                	j	2e78 <finsh_thread_entry+0x4e>
    2f7a:	05b00713          	li	a4,91
    2f7e:	0eec0563          	beq	s8,a4,3068 <finsh_thread_entry+0x23e>
    2f82:	020da023          	sw	zero,32(s11)
    2f86:	b70d                	j	2ea8 <finsh_thread_entry+0x7e>
    2f88:	20bdc603          	lbu	a2,523(s11)
    2f8c:	ee0606e3          	beqz	a2,2e78 <finsh_thread_entry+0x4e>
    2f90:	20adc703          	lbu	a4,522(s11)
    2f94:	167d                	addi	a2,a2,-1
    2f96:	0ff67613          	andi	a2,a2,255
    2f9a:	177d                	addi	a4,a4,-1
    2f9c:	0ff77713          	andi	a4,a4,255
    2fa0:	20ed8523          	sb	a4,522(s11)
    2fa4:	20cd85a3          	sb	a2,523(s11)
    2fa8:	1ee66a63          	bltu	a2,a4,319c <finsh_thread_entry+0x372>
    2fac:	8c0b8513          	addi	a0,s7,-1856 # d8c0 <__fsym___cmd_ps_name+0x64>
    2fb0:	c68fe0ef          	jal	ra,1418 <rt_kprintf>
    2fb4:	00042d83          	lw	s11,0(s0)
    2fb8:	20adc703          	lbu	a4,522(s11)
    2fbc:	976e                	add	a4,a4,s11
    2fbe:	1a070d23          	sb	zero,442(a4)
    2fc2:	bd5d                	j	2e78 <finsh_thread_entry+0x4e>
    2fc4:	026dd703          	lhu	a4,38(s11)
    2fc8:	ea0708e3          	beqz	a4,2e78 <finsh_thread_entry+0x4e>
    2fcc:	177d                	addi	a4,a4,-1
    2fce:	0742                	slli	a4,a4,0x10
    2fd0:	8341                	srli	a4,a4,0x10
    2fd2:	00271593          	slli	a1,a4,0x2
    2fd6:	95ba                	add	a1,a1,a4
    2fd8:	0592                	slli	a1,a1,0x4
    2fda:	1bad8693          	addi	a3,s11,442
    2fde:	02a58593          	addi	a1,a1,42
    2fe2:	95ee                	add	a1,a1,s11
    2fe4:	05000613          	li	a2,80
    2fe8:	02ed9323          	sh	a4,38(s11)
    2fec:	8536                	mv	a0,a3
    2fee:	33a080ef          	jal	ra,b328 <memcpy>
    2ff2:	5ce080ef          	jal	ra,b5c0 <strlen>
    2ff6:	0ff57513          	andi	a0,a0,255
    2ffa:	20ad8523          	sb	a0,522(s11)
    2ffe:	20ad85a3          	sb	a0,523(s11)
    3002:	856e                	mv	a0,s11
    3004:	d7dff0ef          	jal	ra,2d80 <shell_handle_history>
    3008:	00042d83          	lw	s11,0(s0)
    300c:	b5b5                	j	2e78 <finsh_thread_entry+0x4e>
    300e:	20bdc603          	lbu	a2,523(s11)
    3012:	86ba                	mv	a3,a4
    3014:	ece670e3          	bgeu	a2,a4,2ed4 <finsh_thread_entry+0xaa>
    3018:	1ba60593          	addi	a1,a2,442
    301c:	1bb60513          	addi	a0,a2,443
    3020:	95ee                	add	a1,a1,s11
    3022:	956e                	add	a0,a0,s11
    3024:	40c70633          	sub	a2,a4,a2
    3028:	ee7fd0ef          	jal	ra,f0e <rt_memmove>
    302c:	00042d83          	lw	s11,0(s0)
    3030:	20bdc683          	lbu	a3,523(s11)
    3034:	00dd8733          	add	a4,s11,a3
    3038:	1b870d23          	sb	s8,442(a4)
    303c:	024dc703          	lbu	a4,36(s11)
    3040:	8c36                	mv	s8,a3
    3042:	8b05                	andi	a4,a4,1
    3044:	26071763          	bnez	a4,32b2 <finsh_thread_entry+0x488>
    3048:	20adc703          	lbu	a4,522(s11)
    304c:	e8e6dfe3          	bge	a3,a4,2eea <finsh_thread_entry+0xc0>
    3050:	8b090513          	addi	a0,s2,-1872 # d8b0 <__fsym___cmd_ps_name+0x54>
    3054:	bc4fe0ef          	jal	ra,1418 <rt_kprintf>
    3058:	00042d83          	lw	s11,0(s0)
    305c:	0c05                	addi	s8,s8,1
    305e:	20adc703          	lbu	a4,522(s11)
    3062:	feec47e3          	blt	s8,a4,3050 <finsh_thread_entry+0x226>
    3066:	b541                	j	2ee6 <finsh_thread_entry+0xbc>
    3068:	4709                	li	a4,2
    306a:	02eda023          	sw	a4,32(s11)
    306e:	b529                	j	2e78 <finsh_thread_entry+0x4e>
    3070:	028dd683          	lhu	a3,40(s11)
    3074:	cf29                	beqz	a4,30ce <finsh_thread_entry+0x2a4>
    3076:	4791                	li	a5,4
    3078:	1bad8c93          	addi	s9,s11,442
    307c:	1cd7f263          	bgeu	a5,a3,3240 <finsh_thread_entry+0x416>
    3080:	16ad8c13          	addi	s8,s11,362
    3084:	05000613          	li	a2,80
    3088:	85e6                	mv	a1,s9
    308a:	8562                	mv	a0,s8
    308c:	c636                	sw	a3,12(sp)
    308e:	274080ef          	jal	ra,b302 <memcmp>
    3092:	46b2                	lw	a3,12(sp)
    3094:	cd0d                	beqz	a0,30ce <finsh_thread_entry+0x2a4>
    3096:	02ad8d13          	addi	s10,s11,42
    309a:	856a                	mv	a0,s10
    309c:	050d0d13          	addi	s10,s10,80
    30a0:	05000613          	li	a2,80
    30a4:	85ea                	mv	a1,s10
    30a6:	282080ef          	jal	ra,b328 <memcpy>
    30aa:	ffac18e3          	bne	s8,s10,309a <finsh_thread_entry+0x270>
    30ae:	05000613          	li	a2,80
    30b2:	4581                	li	a1,0
    30b4:	8562                	mv	a0,s8
    30b6:	b5cfd0ef          	jal	ra,412 <memset>
    30ba:	20adc603          	lbu	a2,522(s11)
    30be:	85e6                	mv	a1,s9
    30c0:	8562                	mv	a0,s8
    30c2:	266080ef          	jal	ra,b328 <memcpy>
    30c6:	4795                	li	a5,5
    30c8:	4695                	li	a3,5
    30ca:	02fd9423          	sh	a5,40(s11)
    30ce:	02dd9323          	sh	a3,38(s11)
    30d2:	8afff0ef          	jal	ra,2980 <msh_is_used>
    30d6:	4785                	li	a5,1
    30d8:	12f50163          	beq	a0,a5,31fa <finsh_thread_entry+0x3d0>
    30dc:	c51ff0ef          	jal	ra,2d2c <finsh_get_prompt>
    30e0:	b38fe0ef          	jal	ra,1418 <rt_kprintf>
    30e4:	00042d83          	lw	s11,0(s0)
    30e8:	05000613          	li	a2,80
    30ec:	4581                	li	a1,0
    30ee:	1bad8513          	addi	a0,s11,442
    30f2:	b20fd0ef          	jal	ra,412 <memset>
    30f6:	200d9523          	sh	zero,522(s11)
    30fa:	bbbd                	j	2e78 <finsh_thread_entry+0x4e>
    30fc:	028dd603          	lhu	a2,40(s11)
    3100:	026dd683          	lhu	a3,38(s11)
    3104:	fff60713          	addi	a4,a2,-1
    3108:	12e6c563          	blt	a3,a4,3232 <finsh_thread_entry+0x408>
    310c:	d60606e3          	beqz	a2,2e78 <finsh_thread_entry+0x4e>
    3110:	0742                	slli	a4,a4,0x10
    3112:	8341                	srli	a4,a4,0x10
    3114:	02ed9323          	sh	a4,38(s11)
    3118:	00271593          	slli	a1,a4,0x2
    311c:	95ba                	add	a1,a1,a4
    311e:	0592                	slli	a1,a1,0x4
    3120:	1bad8713          	addi	a4,s11,442
    3124:	02a58593          	addi	a1,a1,42
    3128:	95ee                	add	a1,a1,s11
    312a:	05000613          	li	a2,80
    312e:	853a                	mv	a0,a4
    3130:	1f8080ef          	jal	ra,b328 <memcpy>
    3134:	bd7d                	j	2ff2 <finsh_thread_entry+0x1c8>
    3136:	20bdc703          	lbu	a4,523(s11)
    313a:	cf09                	beqz	a4,3154 <finsh_thread_entry+0x32a>
    313c:	4c01                	li	s8,0
    313e:	8b090513          	addi	a0,s2,-1872
    3142:	ad6fe0ef          	jal	ra,1418 <rt_kprintf>
    3146:	00042d83          	lw	s11,0(s0)
    314a:	0c05                	addi	s8,s8,1
    314c:	20bdc703          	lbu	a4,523(s11)
    3150:	feec47e3          	blt	s8,a4,313e <finsh_thread_entry+0x314>
    3154:	000117b7          	lui	a5,0x11
    3158:	37478513          	addi	a0,a5,884 # 11374 <asc2_3216+0x1898>
    315c:	abcfe0ef          	jal	ra,1418 <rt_kprintf>
    3160:	821ff0ef          	jal	ra,2980 <msh_is_used>
    3164:	4705                	li	a4,1
    3166:	1bad8d93          	addi	s11,s11,442
    316a:	14e50063          	beq	a0,a4,32aa <finsh_thread_entry+0x480>
    316e:	bbfff0ef          	jal	ra,2d2c <finsh_get_prompt>
    3172:	0000e7b7          	lui	a5,0xe
    3176:	866e                	mv	a2,s11
    3178:	85aa                	mv	a1,a0
    317a:	8cc78513          	addi	a0,a5,-1844 # d8cc <__fsym___cmd_ps_name+0x70>
    317e:	a9afe0ef          	jal	ra,1418 <rt_kprintf>
    3182:	00042d83          	lw	s11,0(s0)
    3186:	1bad8513          	addi	a0,s11,442
    318a:	436080ef          	jal	ra,b5c0 <strlen>
    318e:	0ff57513          	andi	a0,a0,255
    3192:	20ad8523          	sb	a0,522(s11)
    3196:	20ad85a3          	sb	a0,523(s11)
    319a:	b9f9                	j	2e78 <finsh_thread_entry+0x4e>
    319c:	1bb60593          	addi	a1,a2,443
    31a0:	1ba60513          	addi	a0,a2,442
    31a4:	95ee                	add	a1,a1,s11
    31a6:	40c70633          	sub	a2,a4,a2
    31aa:	956e                	add	a0,a0,s11
    31ac:	d63fd0ef          	jal	ra,f0e <rt_memmove>
    31b0:	401c                	lw	a5,0(s0)
    31b2:	0000e737          	lui	a4,0xe
    31b6:	8b870513          	addi	a0,a4,-1864 # d8b8 <__fsym___cmd_ps_name+0x5c>
    31ba:	20a7c703          	lbu	a4,522(a5)
    31be:	973e                	add	a4,a4,a5
    31c0:	1a070d23          	sb	zero,442(a4)
    31c4:	20b7c583          	lbu	a1,523(a5)
    31c8:	1ba58593          	addi	a1,a1,442
    31cc:	95be                	add	a1,a1,a5
    31ce:	a4afe0ef          	jal	ra,1418 <rt_kprintf>
    31d2:	00042d83          	lw	s11,0(s0)
    31d6:	20bdcc03          	lbu	s8,523(s11)
    31da:	20adc703          	lbu	a4,522(s11)
    31de:	c9874de3          	blt	a4,s8,2e78 <finsh_thread_entry+0x4e>
    31e2:	8b090513          	addi	a0,s2,-1872
    31e6:	a32fe0ef          	jal	ra,1418 <rt_kprintf>
    31ea:	00042d83          	lw	s11,0(s0)
    31ee:	0c05                	addi	s8,s8,1
    31f0:	20adc703          	lbu	a4,522(s11)
    31f4:	ff8757e3          	bge	a4,s8,31e2 <finsh_thread_entry+0x3b8>
    31f8:	b141                	j	2e78 <finsh_thread_entry+0x4e>
    31fa:	4008                	lw	a0,0(s0)
    31fc:	02454783          	lbu	a5,36(a0)
    3200:	8b85                	andi	a5,a5,1
    3202:	ebe1                	bnez	a5,32d2 <finsh_thread_entry+0x4a8>
    3204:	20a54583          	lbu	a1,522(a0)
    3208:	1ba50513          	addi	a0,a0,442
    320c:	f78ff0ef          	jal	ra,2984 <msh_exec>
    3210:	b5f1                	j	30dc <finsh_thread_entry+0x2b2>
    3212:	20bdc703          	lbu	a4,523(s11)
    3216:	c60701e3          	beqz	a4,2e78 <finsh_thread_entry+0x4e>
    321a:	8b090513          	addi	a0,s2,-1872
    321e:	9fafe0ef          	jal	ra,1418 <rt_kprintf>
    3222:	00042d83          	lw	s11,0(s0)
    3226:	20bdc703          	lbu	a4,523(s11)
    322a:	177d                	addi	a4,a4,-1
    322c:	20ed85a3          	sb	a4,523(s11)
    3230:	b1a1                	j	2e78 <finsh_thread_entry+0x4e>
    3232:	00168713          	addi	a4,a3,1
    3236:	0742                	slli	a4,a4,0x10
    3238:	8341                	srli	a4,a4,0x10
    323a:	02ed9323          	sh	a4,38(s11)
    323e:	bde9                	j	3118 <finsh_thread_entry+0x2ee>
    3240:	c29d                	beqz	a3,3266 <finsh_thread_entry+0x43c>
    3242:	fff68713          	addi	a4,a3,-1
    3246:	00271513          	slli	a0,a4,0x2
    324a:	953a                	add	a0,a0,a4
    324c:	0512                	slli	a0,a0,0x4
    324e:	02a50513          	addi	a0,a0,42
    3252:	05000613          	li	a2,80
    3256:	85e6                	mv	a1,s9
    3258:	956e                	add	a0,a0,s11
    325a:	c636                	sw	a3,12(sp)
    325c:	0a6080ef          	jal	ra,b302 <memcmp>
    3260:	46b2                	lw	a3,12(sp)
    3262:	e60506e3          	beqz	a0,30ce <finsh_thread_entry+0x2a4>
    3266:	00269513          	slli	a0,a3,0x2
    326a:	9536                	add	a0,a0,a3
    326c:	0512                	slli	a0,a0,0x4
    326e:	02a50513          	addi	a0,a0,42
    3272:	05000613          	li	a2,80
    3276:	4581                	li	a1,0
    3278:	956e                	add	a0,a0,s11
    327a:	998fd0ef          	jal	ra,412 <memset>
    327e:	028dd703          	lhu	a4,40(s11)
    3282:	20adc603          	lbu	a2,522(s11)
    3286:	85e6                	mv	a1,s9
    3288:	00271513          	slli	a0,a4,0x2
    328c:	953a                	add	a0,a0,a4
    328e:	0512                	slli	a0,a0,0x4
    3290:	02a50513          	addi	a0,a0,42
    3294:	956e                	add	a0,a0,s11
    3296:	092080ef          	jal	ra,b328 <memcpy>
    329a:	028dd683          	lhu	a3,40(s11)
    329e:	0685                	addi	a3,a3,1
    32a0:	06c2                	slli	a3,a3,0x10
    32a2:	82c1                	srli	a3,a3,0x10
    32a4:	02dd9423          	sh	a3,40(s11)
    32a8:	b51d                	j	30ce <finsh_thread_entry+0x2a4>
    32aa:	856e                	mv	a0,s11
    32ac:	8edff0ef          	jal	ra,2b98 <msh_auto_complete>
    32b0:	bd7d                	j	316e <finsh_thread_entry+0x344>
    32b2:	1ba68693          	addi	a3,a3,442
    32b6:	0000d7b7          	lui	a5,0xd
    32ba:	00dd85b3          	add	a1,s11,a3
    32be:	65c78513          	addi	a0,a5,1628 # d65c <__fsym_reboot_name+0x8>
    32c2:	956fe0ef          	jal	ra,1418 <rt_kprintf>
    32c6:	00042d83          	lw	s11,0(s0)
    32ca:	20bdc683          	lbu	a3,523(s11)
    32ce:	8c36                	mv	s8,a3
    32d0:	bba5                	j	3048 <finsh_thread_entry+0x21e>
    32d2:	000117b7          	lui	a5,0x11
    32d6:	37478513          	addi	a0,a5,884 # 11374 <asc2_3216+0x1898>
    32da:	93efe0ef          	jal	ra,1418 <rt_kprintf>
    32de:	4008                	lw	a0,0(s0)
    32e0:	b715                	j	3204 <finsh_thread_entry+0x3da>
    32e2:	900fe0ef          	jal	ra,13e2 <rt_console_get_device>
    32e6:	b60502e3          	beqz	a0,2e4a <finsh_thread_entry+0x20>
    32ea:	ac5ff0ef          	jal	ra,2dae <finsh_set_device>
    32ee:	beb1                	j	2e4a <finsh_thread_entry+0x20>

000032f0 <rt_serial_init>:
    32f0:	417c                	lw	a5,68(a0)
    32f2:	04052823          	sw	zero,80(a0)
    32f6:	04052a23          	sw	zero,84(a0)
    32fa:	439c                	lw	a5,0(a5)
    32fc:	cb81                	beqz	a5,330c <rt_serial_init+0x1c>
    32fe:	8e4fd2ef          	jal	t0,3e2 <__riscv_save_0>
    3302:	04850593          	addi	a1,a0,72
    3306:	9782                	jalr	a5
    3308:	8fefd06f          	j	406 <__riscv_restore_0>
    330c:	4501                	li	a0,0
    330e:	8082                	ret

00003310 <rt_serial_write>:
    3310:	8b8fd2ef          	jal	t0,3c8 <__riscv_save_4>
    3314:	8936                	mv	s2,a3
    3316:	e681                	bnez	a3,331e <rt_serial_write+0xe>
    3318:	854a                	mv	a0,s2
    331a:	8e2fd06f          	j	3fc <__riscv_restore_4>
    331e:	84aa                	mv	s1,a0
    3320:	8432                	mv	s0,a2
    3322:	00d60a33          	add	s4,a2,a3
    3326:	49a9                	li	s3,10
    3328:	a809                	j	333a <rt_serial_write+0x2a>
    332a:	01871593          	slli	a1,a4,0x18
    332e:	0405                	addi	s0,s0,1
    3330:	85e1                	srai	a1,a1,0x18
    3332:	8526                	mv	a0,s1
    3334:	9682                	jalr	a3
    3336:	ff4401e3          	beq	s0,s4,3318 <rt_serial_write+0x8>
    333a:	40fc                	lw	a5,68(s1)
    333c:	00044703          	lbu	a4,0(s0)
    3340:	4794                	lw	a3,8(a5)
    3342:	ff3714e3          	bne	a4,s3,332a <rt_serial_write+0x1a>
    3346:	01a4d783          	lhu	a5,26(s1)
    334a:	45b5                	li	a1,13
    334c:	8526                	mv	a0,s1
    334e:	0407f793          	andi	a5,a5,64
    3352:	dfe1                	beqz	a5,332a <rt_serial_write+0x1a>
    3354:	9682                	jalr	a3
    3356:	40fc                	lw	a5,68(s1)
    3358:	00044703          	lbu	a4,0(s0)
    335c:	4794                	lw	a3,8(a5)
    335e:	b7f1                	j	332a <rt_serial_write+0x1a>

00003360 <rt_serial_open>:
    3360:	1005f713          	andi	a4,a1,256
    3364:	c711                	beqz	a4,3370 <rt_serial_open+0x10>
    3366:	01855783          	lhu	a5,24(a0)
    336a:	1007f793          	andi	a5,a5,256
    336e:	c7c5                	beqz	a5,3416 <rt_serial_open+0xb6>
    3370:	4005f793          	andi	a5,a1,1024
    3374:	c791                	beqz	a5,3380 <rt_serial_open+0x20>
    3376:	01855783          	lhu	a5,24(a0)
    337a:	4007f793          	andi	a5,a5,1024
    337e:	cfc1                	beqz	a5,3416 <rt_serial_open+0xb6>
    3380:	862fd2ef          	jal	t0,3e2 <__riscv_save_0>
    3384:	0405f793          	andi	a5,a1,64
    3388:	04000493          	li	s1,64
    338c:	c38d                	beqz	a5,33ae <rt_serial_open+0x4e>
    338e:	493c                	lw	a5,80(a0)
    3390:	0ff5f593          	andi	a1,a1,255
    3394:	00b51d23          	sh	a1,26(a0)
    3398:	842a                	mv	s0,a0
    339a:	c78d                	beqz	a5,33c4 <rt_serial_open+0x64>
    339c:	c319                	beqz	a4,33a2 <rt_serial_open+0x42>
    339e:	1005e593          	ori	a1,a1,256
    33a2:	8dc5                	or	a1,a1,s1
    33a4:	00b41d23          	sh	a1,26(s0)
    33a8:	4501                	li	a0,0
    33aa:	85cfd06f          	j	406 <__riscv_restore_0>
    33ae:	01a55483          	lhu	s1,26(a0)
    33b2:	493c                	lw	a5,80(a0)
    33b4:	0ff5f593          	andi	a1,a1,255
    33b8:	00b51d23          	sh	a1,26(a0)
    33bc:	0404f493          	andi	s1,s1,64
    33c0:	842a                	mv	s0,a0
    33c2:	ffe9                	bnez	a5,339c <rt_serial_open+0x3c>
    33c4:	df79                	beqz	a4,33a2 <rt_serial_open+0x42>
    33c6:	4568                	lw	a0,76(a0)
    33c8:	8129                	srli	a0,a0,0xa
    33ca:	0542                	slli	a0,a0,0x10
    33cc:	8141                	srli	a0,a0,0x10
    33ce:	0531                	addi	a0,a0,12
    33d0:	a88fe0ef          	jal	ra,1658 <rt_malloc>
    33d4:	4470                	lw	a2,76(s0)
    33d6:	892a                	mv	s2,a0
    33d8:	0531                	addi	a0,a0,12
    33da:	8229                	srli	a2,a2,0xa
    33dc:	0642                	slli	a2,a2,0x10
    33de:	4581                	li	a1,0
    33e0:	8241                	srli	a2,a2,0x10
    33e2:	00a92023          	sw	a0,0(s2)
    33e6:	a9bfd0ef          	jal	ra,e80 <rt_memset>
    33ea:	4078                	lw	a4,68(s0)
    33ec:	00092223          	sw	zero,4(s2)
    33f0:	01a45783          	lhu	a5,26(s0)
    33f4:	4358                	lw	a4,4(a4)
    33f6:	00092423          	sw	zero,8(s2)
    33fa:	1007e793          	ori	a5,a5,256
    33fe:	45c1                	li	a1,16
    3400:	05242823          	sw	s2,80(s0)
    3404:	00f41d23          	sh	a5,26(s0)
    3408:	10000613          	li	a2,256
    340c:	8522                	mv	a0,s0
    340e:	9702                	jalr	a4
    3410:	01a45583          	lhu	a1,26(s0)
    3414:	b779                	j	33a2 <rt_serial_open+0x42>
    3416:	5561                	li	a0,-8
    3418:	8082                	ret

0000341a <rt_serial_control>:
    341a:	4809                	li	a6,2
    341c:	872a                	mv	a4,a0
    341e:	01058f63          	beq	a1,a6,343c <rt_serial_control+0x22>
    3422:	fc1fc2ef          	jal	t0,3e2 <__riscv_save_0>
    3426:	480d                	li	a6,3
    3428:	03058b63          	beq	a1,a6,345e <rt_serial_control+0x44>
    342c:	4685                	li	a3,1
    342e:	00d58f63          	beq	a1,a3,344c <rt_serial_control+0x32>
    3432:	417c                	lw	a5,68(a0)
    3434:	43dc                	lw	a5,4(a5)
    3436:	9782                	jalr	a5
    3438:	fcffc06f          	j	406 <__riscv_restore_0>
    343c:	01855783          	lhu	a5,24(a0)
    3440:	4501                	li	a0,0
    3442:	0207e793          	ori	a5,a5,32
    3446:	00f71c23          	sh	a5,24(a4)
    344a:	8082                	ret
    344c:	01855783          	lhu	a5,24(a0)
    3450:	4501                	li	a0,0
    3452:	fdf7f793          	andi	a5,a5,-33
    3456:	00f71c23          	sh	a5,24(a4)
    345a:	fadfc06f          	j	406 <__riscv_restore_0>
    345e:	86b2                	mv	a3,a2
    3460:	ce15                	beqz	a2,349c <rt_serial_control+0x82>
    3462:	4250                	lw	a2,4(a2)
    3464:	457c                	lw	a5,76(a0)
    3466:	01c54583          	lbu	a1,28(a0)
    346a:	8229                	srli	a2,a2,0xa
    346c:	83a9                	srli	a5,a5,0xa
    346e:	0642                	slli	a2,a2,0x10
    3470:	07c2                	slli	a5,a5,0x10
    3472:	8241                	srli	a2,a2,0x10
    3474:	83c1                	srli	a5,a5,0x10
    3476:	00f60a63          	beq	a2,a5,348a <rt_serial_control+0x70>
    347a:	451d                	li	a0,7
    347c:	fdd5                	bnez	a1,3438 <rt_serial_control+0x1e>
    347e:	429c                	lw	a5,0(a3)
    3480:	4501                	li	a0,0
    3482:	c73c                	sw	a5,72(a4)
    3484:	42dc                	lw	a5,4(a3)
    3486:	c77c                	sw	a5,76(a4)
    3488:	bf45                	j	3438 <rt_serial_control+0x1e>
    348a:	429c                	lw	a5,0(a3)
    348c:	c53c                	sw	a5,72(a0)
    348e:	42dc                	lw	a5,4(a3)
    3490:	c57c                	sw	a5,76(a0)
    3492:	c589                	beqz	a1,349c <rt_serial_control+0x82>
    3494:	417c                	lw	a5,68(a0)
    3496:	85b6                	mv	a1,a3
    3498:	439c                	lw	a5,0(a5)
    349a:	9782                	jalr	a5
    349c:	4501                	li	a0,0
    349e:	f69fc06f          	j	406 <__riscv_restore_0>

000034a2 <rt_serial_read>:
    34a2:	c2b9                	beqz	a3,34e8 <rt_serial_read+0x46>
    34a4:	f25fc2ef          	jal	t0,3c8 <__riscv_save_4>
    34a8:	01a55783          	lhu	a5,26(a0)
    34ac:	8a36                	mv	s4,a3
    34ae:	892a                	mv	s2,a0
    34b0:	1007f793          	andi	a5,a5,256
    34b4:	8432                	mv	s0,a2
    34b6:	84b6                	mv	s1,a3
    34b8:	59fd                	li	s3,-1
    34ba:	4aa9                	li	s5,10
    34bc:	eb85                	bnez	a5,34ec <rt_serial_read+0x4a>
    34be:	04492783          	lw	a5,68(s2)
    34c2:	854a                	mv	a0,s2
    34c4:	47dc                	lw	a5,12(a5)
    34c6:	9782                	jalr	a5
    34c8:	01350c63          	beq	a0,s3,34e0 <rt_serial_read+0x3e>
    34cc:	00a40023          	sb	a0,0(s0)
    34d0:	14fd                	addi	s1,s1,-1
    34d2:	0405                	addi	s0,s0,1
    34d4:	01550663          	beq	a0,s5,34e0 <rt_serial_read+0x3e>
    34d8:	f0fd                	bnez	s1,34be <rt_serial_read+0x1c>
    34da:	8552                	mv	a0,s4
    34dc:	f21fc06f          	j	3fc <__riscv_restore_4>
    34e0:	409a0533          	sub	a0,s4,s1
    34e4:	f19fc06f          	j	3fc <__riscv_restore_4>
    34e8:	4501                	li	a0,0
    34ea:	8082                	ret
    34ec:	05052983          	lw	s3,80(a0)
    34f0:	4a85                	li	s5,1
    34f2:	caffe0ef          	jal	ra,21a0 <rt_hw_interrupt_disable>
    34f6:	0069d683          	lhu	a3,6(s3)
    34fa:	0049d783          	lhu	a5,4(s3)
    34fe:	882a                	mv	a6,a0
    3500:	00168713          	addi	a4,a3,1
    3504:	0742                	slli	a4,a4,0x10
    3506:	8341                	srli	a4,a4,0x10
    3508:	0089a583          	lw	a1,8(s3)
    350c:	02d78f63          	beq	a5,a3,354a <rt_serial_read+0xa8>
    3510:	04c92783          	lw	a5,76(s2)
    3514:	0009a603          	lw	a2,0(s3)
    3518:	8542                	mv	a0,a6
    351a:	83a9                	srli	a5,a5,0xa
    351c:	96b2                	add	a3,a3,a2
    351e:	07c2                	slli	a5,a5,0x10
    3520:	0006cb03          	lbu	s6,0(a3)
    3524:	83c1                	srli	a5,a5,0x10
    3526:	00e99323          	sh	a4,6(s3)
    352a:	14fd                	addi	s1,s1,-1
    352c:	00f76463          	bltu	a4,a5,3534 <rt_serial_read+0x92>
    3530:	00099323          	sh	zero,6(s3)
    3534:	01559463          	bne	a1,s5,353c <rt_serial_read+0x9a>
    3538:	0009a423          	sw	zero,8(s3)
    353c:	c71fe0ef          	jal	ra,21ac <rt_hw_interrupt_enable>
    3540:	01640023          	sb	s6,0(s0)
    3544:	0405                	addi	s0,s0,1
    3546:	f4d5                	bnez	s1,34f2 <rt_serial_read+0x50>
    3548:	bf49                	j	34da <rt_serial_read+0x38>
    354a:	f1f9                	bnez	a1,3510 <rt_serial_read+0x6e>
    354c:	c61fe0ef          	jal	ra,21ac <rt_hw_interrupt_enable>
    3550:	409a0a33          	sub	s4,s4,s1
    3554:	b759                	j	34da <rt_serial_read+0x38>

00003556 <rt_serial_close>:
    3556:	01c54703          	lbu	a4,28(a0)
    355a:	4785                	li	a5,1
    355c:	00e7e763          	bltu	a5,a4,356a <rt_serial_close+0x14>
    3560:	01a55783          	lhu	a5,26(a0)
    3564:	1007f793          	andi	a5,a5,256
    3568:	e399                	bnez	a5,356e <rt_serial_close+0x18>
    356a:	4501                	li	a0,0
    356c:	8082                	ret
    356e:	e75fc2ef          	jal	t0,3e2 <__riscv_save_0>
    3572:	842a                	mv	s0,a0
    3574:	4928                	lw	a0,80(a0)
    3576:	a38fe0ef          	jal	ra,17ae <rt_free>
    357a:	4078                	lw	a4,68(s0)
    357c:	01a45783          	lhu	a5,26(s0)
    3580:	04042823          	sw	zero,80(s0)
    3584:	4358                	lw	a4,4(a4)
    3586:	eff7f793          	andi	a5,a5,-257
    358a:	00f41d23          	sh	a5,26(s0)
    358e:	10000613          	li	a2,256
    3592:	45c5                	li	a1,17
    3594:	8522                	mv	a0,s0
    3596:	9702                	jalr	a4
    3598:	4501                	li	a0,0
    359a:	e6dfc06f          	j	406 <__riscv_restore_0>

0000359e <rt_hw_serial_register>:
    359e:	e45fc2ef          	jal	t0,3e2 <__riscv_save_0>
    35a2:	00003737          	lui	a4,0x3
    35a6:	2f070713          	addi	a4,a4,752 # 32f0 <rt_serial_init>
    35aa:	d518                	sw	a4,40(a0)
    35ac:	00003737          	lui	a4,0x3
    35b0:	36070713          	addi	a4,a4,864 # 3360 <rt_serial_open>
    35b4:	d558                	sw	a4,44(a0)
    35b6:	00003737          	lui	a4,0x3
    35ba:	55670713          	addi	a4,a4,1366 # 3556 <rt_serial_close>
    35be:	d918                	sw	a4,48(a0)
    35c0:	00003737          	lui	a4,0x3
    35c4:	4a270713          	addi	a4,a4,1186 # 34a2 <rt_serial_read>
    35c8:	d958                	sw	a4,52(a0)
    35ca:	00003737          	lui	a4,0x3
    35ce:	31070713          	addi	a4,a4,784 # 3310 <rt_serial_write>
    35d2:	dd18                	sw	a4,56(a0)
    35d4:	00003737          	lui	a4,0x3
    35d8:	41a70713          	addi	a4,a4,1050 # 341a <rt_serial_control>
    35dc:	0642                	slli	a2,a2,0x10
    35de:	dd58                	sw	a4,60(a0)
    35e0:	c134                	sw	a3,64(a0)
    35e2:	8241                	srli	a2,a2,0x10
    35e4:	00052a23          	sw	zero,20(a0)
    35e8:	02052023          	sw	zero,32(a0)
    35ec:	02052223          	sw	zero,36(a0)
    35f0:	856fd0ef          	jal	ra,646 <rt_device_register>
    35f4:	e13fc06f          	j	406 <__riscv_restore_0>

000035f8 <rt_hw_serial_isr>:
    35f8:	0ff5f593          	andi	a1,a1,255
    35fc:	4785                	li	a5,1
    35fe:	00f58363          	beq	a1,a5,3604 <rt_hw_serial_isr+0xc>
    3602:	8082                	ret
    3604:	dc5fc2ef          	jal	t0,3c8 <__riscv_save_4>
    3608:	84aa                	mv	s1,a0
    360a:	4920                	lw	s0,80(a0)
    360c:	597d                	li	s2,-1
    360e:	4985                	li	s3,1
    3610:	a019                	j	3616 <rt_hw_serial_isr+0x1e>
    3612:	b9bfe0ef          	jal	ra,21ac <rt_hw_interrupt_enable>
    3616:	40fc                	lw	a5,68(s1)
    3618:	8526                	mv	a0,s1
    361a:	47dc                	lw	a5,12(a5)
    361c:	9782                	jalr	a5
    361e:	8a2a                	mv	s4,a0
    3620:	05250a63          	beq	a0,s2,3674 <rt_hw_serial_isr+0x7c>
    3624:	b7dfe0ef          	jal	ra,21a0 <rt_hw_interrupt_disable>
    3628:	00445703          	lhu	a4,4(s0)
    362c:	401c                	lw	a5,0(s0)
    362e:	97ba                	add	a5,a5,a4
    3630:	01478023          	sb	s4,0(a5)
    3634:	00445783          	lhu	a5,4(s0)
    3638:	44f8                	lw	a4,76(s1)
    363a:	0785                	addi	a5,a5,1
    363c:	07c2                	slli	a5,a5,0x10
    363e:	8329                	srli	a4,a4,0xa
    3640:	83c1                	srli	a5,a5,0x10
    3642:	0742                	slli	a4,a4,0x10
    3644:	00f41223          	sh	a5,4(s0)
    3648:	8341                	srli	a4,a4,0x10
    364a:	00e7e563          	bltu	a5,a4,3654 <rt_hw_serial_isr+0x5c>
    364e:	00041223          	sh	zero,4(s0)
    3652:	4781                	li	a5,0
    3654:	00645683          	lhu	a3,6(s0)
    3658:	faf69de3          	bne	a3,a5,3612 <rt_hw_serial_isr+0x1a>
    365c:	0785                	addi	a5,a5,1
    365e:	07c2                	slli	a5,a5,0x10
    3660:	83c1                	srli	a5,a5,0x10
    3662:	00f41323          	sh	a5,6(s0)
    3666:	01342423          	sw	s3,8(s0)
    366a:	fae7e4e3          	bltu	a5,a4,3612 <rt_hw_serial_isr+0x1a>
    366e:	00041323          	sh	zero,6(s0)
    3672:	b745                	j	3612 <rt_hw_serial_isr+0x1a>
    3674:	509c                	lw	a5,32(s1)
    3676:	c79d                	beqz	a5,36a4 <rt_hw_serial_isr+0xac>
    3678:	b29fe0ef          	jal	ra,21a0 <rt_hw_interrupt_disable>
    367c:	00445783          	lhu	a5,4(s0)
    3680:	00645583          	lhu	a1,6(s0)
    3684:	40b78433          	sub	s0,a5,a1
    3688:	00b7f863          	bgeu	a5,a1,3698 <rt_hw_serial_isr+0xa0>
    368c:	44e0                	lw	s0,76(s1)
    368e:	8d9d                	sub	a1,a1,a5
    3690:	8029                	srli	s0,s0,0xa
    3692:	0442                	slli	s0,s0,0x10
    3694:	8041                	srli	s0,s0,0x10
    3696:	8c0d                	sub	s0,s0,a1
    3698:	b15fe0ef          	jal	ra,21ac <rt_hw_interrupt_enable>
    369c:	509c                	lw	a5,32(s1)
    369e:	85a2                	mv	a1,s0
    36a0:	8526                	mv	a0,s1
    36a2:	9782                	jalr	a5
    36a4:	d59fc06f          	j	3fc <__riscv_restore_4>

000036a8 <_pin_control>:
    36a8:	ce11                	beqz	a2,36c4 <_pin_control+0x1c>
    36aa:	d39fc2ef          	jal	t0,3e2 <__riscv_save_0>
    36ae:	4178                	lw	a4,68(a0)
    36b0:	87b2                	mv	a5,a2
    36b2:	0007d583          	lhu	a1,0(a5)
    36b6:	00265603          	lhu	a2,2(a2)
    36ba:	431c                	lw	a5,0(a4)
    36bc:	9782                	jalr	a5
    36be:	4501                	li	a0,0
    36c0:	d47fc06f          	j	406 <__riscv_restore_0>
    36c4:	557d                	li	a0,-1
    36c6:	8082                	ret

000036c8 <rt_pin_mode>:
    36c8:	d1bfc2ef          	jal	t0,3e2 <__riscv_save_0>
    36cc:	dfc18713          	addi	a4,gp,-516 # 20003924 <_hw_pin>
    36d0:	4378                	lw	a4,68(a4)
    36d2:	862e                	mv	a2,a1
    36d4:	85aa                	mv	a1,a0
    36d6:	4318                	lw	a4,0(a4)
    36d8:	dfc18513          	addi	a0,gp,-516 # 20003924 <_hw_pin>
    36dc:	9702                	jalr	a4
    36de:	d29fc06f          	j	406 <__riscv_restore_0>

000036e2 <rt_pin_write>:
    36e2:	d01fc2ef          	jal	t0,3e2 <__riscv_save_0>
    36e6:	dfc18713          	addi	a4,gp,-516 # 20003924 <_hw_pin>
    36ea:	4378                	lw	a4,68(a4)
    36ec:	862e                	mv	a2,a1
    36ee:	85aa                	mv	a1,a0
    36f0:	4358                	lw	a4,4(a4)
    36f2:	dfc18513          	addi	a0,gp,-516 # 20003924 <_hw_pin>
    36f6:	9702                	jalr	a4
    36f8:	d0ffc06f          	j	406 <__riscv_restore_0>

000036fc <rt_pin_read>:
    36fc:	ce7fc2ef          	jal	t0,3e2 <__riscv_save_0>
    3700:	dfc18713          	addi	a4,gp,-516 # 20003924 <_hw_pin>
    3704:	4378                	lw	a4,68(a4)
    3706:	85aa                	mv	a1,a0
    3708:	dfc18513          	addi	a0,gp,-516 # 20003924 <_hw_pin>
    370c:	471c                	lw	a5,8(a4)
    370e:	9782                	jalr	a5
    3710:	cf7fc06f          	j	406 <__riscv_restore_0>

00003714 <_pin_read>:
    3714:	c60d                	beqz	a2,373e <_pin_read+0x2a>
    3716:	4591                	li	a1,4
    3718:	4781                	li	a5,0
    371a:	00b68463          	beq	a3,a1,3722 <_pin_read+0xe>
    371e:	853e                	mv	a0,a5
    3720:	8082                	ret
    3722:	cc1fc2ef          	jal	t0,3e2 <__riscv_save_0>
    3726:	417c                	lw	a5,68(a0)
    3728:	00065583          	lhu	a1,0(a2)
    372c:	8432                	mv	s0,a2
    372e:	479c                	lw	a5,8(a5)
    3730:	9782                	jalr	a5
    3732:	4791                	li	a5,4
    3734:	00a41123          	sh	a0,2(s0)
    3738:	853e                	mv	a0,a5
    373a:	ccdfc06f          	j	406 <__riscv_restore_0>
    373e:	4781                	li	a5,0
    3740:	853e                	mv	a0,a5
    3742:	8082                	ret

00003744 <_pin_write>:
    3744:	c60d                	beqz	a2,376e <_pin_write+0x2a>
    3746:	4591                	li	a1,4
    3748:	4781                	li	a5,0
    374a:	00b68463          	beq	a3,a1,3752 <_pin_write+0xe>
    374e:	853e                	mv	a0,a5
    3750:	8082                	ret
    3752:	c91fc2ef          	jal	t0,3e2 <__riscv_save_0>
    3756:	4178                	lw	a4,68(a0)
    3758:	87b2                	mv	a5,a2
    375a:	0007d583          	lhu	a1,0(a5)
    375e:	00265603          	lhu	a2,2(a2)
    3762:	435c                	lw	a5,4(a4)
    3764:	9782                	jalr	a5
    3766:	4791                	li	a5,4
    3768:	853e                	mv	a0,a5
    376a:	c9dfc06f          	j	406 <__riscv_restore_0>
    376e:	4781                	li	a5,0
    3770:	853e                	mv	a0,a5
    3772:	8082                	ret

00003774 <rt_device_pin_register>:
    3774:	c6ffc2ef          	jal	t0,3e2 <__riscv_save_0>
    3778:	dfc18793          	addi	a5,gp,-516 # 20003924 <_hw_pin>
    377c:	c3ec                	sw	a1,68(a5)
    377e:	85aa                	mv	a1,a0
    3780:	dfc18513          	addi	a0,gp,-516 # 20003924 <_hw_pin>
    3784:	4749                	li	a4,18
    3786:	cbd8                	sw	a4,20(a5)
    3788:	00003737          	lui	a4,0x3
    378c:	71470713          	addi	a4,a4,1812 # 3714 <_pin_read>
    3790:	dbd8                	sw	a4,52(a5)
    3792:	00003737          	lui	a4,0x3
    3796:	74470713          	addi	a4,a4,1860 # 3744 <_pin_write>
    379a:	df98                	sw	a4,56(a5)
    379c:	00003737          	lui	a4,0x3
    37a0:	c3b0                	sw	a2,64(a5)
    37a2:	6a870713          	addi	a4,a4,1704 # 36a8 <_pin_control>
    37a6:	460d                	li	a2,3
    37a8:	0207a023          	sw	zero,32(a5)
    37ac:	0207a223          	sw	zero,36(a5)
    37b0:	0207a423          	sw	zero,40(a5)
    37b4:	0207a623          	sw	zero,44(a5)
    37b8:	0207a823          	sw	zero,48(a5)
    37bc:	dfd8                	sw	a4,60(a5)
    37be:	e89fc0ef          	jal	ra,646 <rt_device_register>
    37c2:	4501                	li	a0,0
    37c4:	c43fc06f          	j	406 <__riscv_restore_0>

000037c8 <rt_device_timer_register>:
    37c8:	c1bfc2ef          	jal	t0,3e2 <__riscv_save_0>
    37cc:	e4418793          	addi	a5,gp,-444 # 2000396c <_hw_timer>
    37d0:	c3ec                	sw	a1,68(a5)
    37d2:	c3b0                	sw	a2,64(a5)
    37d4:	85aa                	mv	a1,a0
    37d6:	460d                	li	a2,3
    37d8:	e4418513          	addi	a0,gp,-444 # 2000396c <_hw_timer>
    37dc:	4745                	li	a4,17
    37de:	cbd8                	sw	a4,20(a5)
    37e0:	0207a023          	sw	zero,32(a5)
    37e4:	0207a223          	sw	zero,36(a5)
    37e8:	0207a423          	sw	zero,40(a5)
    37ec:	0207a623          	sw	zero,44(a5)
    37f0:	0207a823          	sw	zero,48(a5)
    37f4:	0207aa23          	sw	zero,52(a5)
    37f8:	0207ac23          	sw	zero,56(a5)
    37fc:	0207ae23          	sw	zero,60(a5)
    3800:	e47fc0ef          	jal	ra,646 <rt_device_register>
    3804:	4501                	li	a0,0
    3806:	c01fc06f          	j	406 <__riscv_restore_0>

0000380a <rt_user_timer_mode>:
    380a:	bd9fc2ef          	jal	t0,3e2 <__riscv_save_0>
    380e:	e881a783          	lw	a5,-376(gp) # 200039b0 <_hw_timer+0x44>
    3812:	439c                	lw	a5,0(a5)
    3814:	9782                	jalr	a5
    3816:	bf1fc06f          	j	406 <__riscv_restore_0>

0000381a <rt_user_timer_init>:
    381a:	bc9fc2ef          	jal	t0,3e2 <__riscv_save_0>
    381e:	e881a783          	lw	a5,-376(gp) # 200039b0 <_hw_timer+0x44>
    3822:	47dc                	lw	a5,12(a5)
    3824:	9782                	jalr	a5
    3826:	be1fc06f          	j	406 <__riscv_restore_0>

0000382a <rt_user_timer_attach_irq>:
    382a:	bb9fc2ef          	jal	t0,3e2 <__riscv_save_0>
    382e:	e881a783          	lw	a5,-376(gp) # 200039b0 <_hw_timer+0x44>
    3832:	4b9c                	lw	a5,16(a5)
    3834:	9782                	jalr	a5
    3836:	bd1fc06f          	j	406 <__riscv_restore_0>

0000383a <rt_user_timer_irq_enable>:
    383a:	ba9fc2ef          	jal	t0,3e2 <__riscv_save_0>
    383e:	e881a783          	lw	a5,-376(gp) # 200039b0 <_hw_timer+0x44>
    3842:	4f9c                	lw	a5,24(a5)
    3844:	9782                	jalr	a5
    3846:	bc1fc06f          	j	406 <__riscv_restore_0>

0000384a <rt_heap_begin_get>:
    384a:	20004537          	lui	a0,0x20004
    384e:	9b450513          	addi	a0,a0,-1612 # 200039b4 <rt_heap>
    3852:	8082                	ret

00003854 <rt_heap_end_get>:
    3854:	20005537          	lui	a0,0x20005
    3858:	9b450513          	addi	a0,a0,-1612 # 200049b4 <serial1>
    385c:	8082                	ret

0000385e <rt_hw_board_init>:
    385e:	b85fc2ef          	jal	t0,3e2 <__riscv_save_0>
    3862:	8281a703          	lw	a4,-2008(gp) # 20003350 <SystemCoreClock>
    3866:	3e800693          	li	a3,1000
    386a:	e000e7b7          	lui	a5,0xe000e
    386e:	02d75733          	divu	a4,a4,a3
    3872:	56c1                	li	a3,-16
    3874:	40d78623          	sb	a3,1036(a5) # e000e40c <_eusrstack+0xbfffe40c>
    3878:	40d78723          	sb	a3,1038(a5)
    387c:	6685                	lui	a3,0x1
    387e:	10d7a023          	sw	a3,256(a5)
    3882:	6691                	lui	a3,0x4
    3884:	10d7a023          	sw	a3,256(a5)
    3888:	e000f7b7          	lui	a5,0xe000f
    388c:	0007a023          	sw	zero,0(a5) # e000f000 <_eusrstack+0xbffff000>
    3890:	0007a223          	sw	zero,4(a5)
    3894:	4501                	li	a0,0
    3896:	c788                	sw	a0,8(a5)
    3898:	4581                	li	a1,0
    389a:	c7cc                	sw	a1,12(a5)
    389c:	4681                	li	a3,0
    389e:	fff70613          	addi	a2,a4,-1
    38a2:	cb90                	sw	a2,16(a5)
    38a4:	cbd4                	sw	a3,20(a5)
    38a6:	473d                	li	a4,15
    38a8:	c398                	sw	a4,0(a5)
    38aa:	cb9fc0ef          	jal	ra,562 <rt_components_board_init>
    38ae:	f9dff0ef          	jal	ra,384a <rt_heap_begin_get>
    38b2:	842a                	mv	s0,a0
    38b4:	fa1ff0ef          	jal	ra,3854 <rt_heap_end_get>
    38b8:	85aa                	mv	a1,a0
    38ba:	8522                	mv	a0,s0
    38bc:	d17fd0ef          	jal	ra,15d2 <rt_system_heap_init>
    38c0:	0000e537          	lui	a0,0xe
    38c4:	94450513          	addi	a0,a0,-1724 # d944 <__fsym_pinMode_name+0x8>
    38c8:	b21fd0ef          	jal	ra,13e8 <rt_console_set_device>
    38cc:	b3bfc06f          	j	406 <__riscv_restore_0>

000038d0 <SysTick_Handler>:
    38d0:	34011173          	csrrw	sp,mscratch,sp
    38d4:	b1efd0ef          	jal	ra,bf2 <rt_interrupt_enter>
    38d8:	e000f7b7          	lui	a5,0xe000f
    38dc:	0007a223          	sw	zero,4(a5) # e000f004 <_eusrstack+0xbffff004>
    38e0:	be1fc0ef          	jal	ra,4c0 <rt_tick_increase>
    38e4:	b40fd0ef          	jal	ra,c24 <rt_interrupt_leave>
    38e8:	34011173          	csrrw	sp,mscratch,sp
    38ec:	30200073          	mret

000038f0 <GPIOD_CLK_ENABLE>:
    38f0:	af3fc2ef          	jal	t0,3e2 <__riscv_save_0>
    38f4:	4585                	li	a1,1
    38f6:	02000513          	li	a0,32
    38fa:	56c050ef          	jal	ra,8e66 <RCC_APB2PeriphClockCmd>
    38fe:	b09fc06f          	j	406 <__riscv_restore_0>

00003902 <GPIOB_CLK_ENABLE>:
    3902:	ae1fc2ef          	jal	t0,3e2 <__riscv_save_0>
    3906:	4585                	li	a1,1
    3908:	4521                	li	a0,8
    390a:	55c050ef          	jal	ra,8e66 <RCC_APB2PeriphClockCmd>
    390e:	af9fc06f          	j	406 <__riscv_restore_0>

00003912 <GPIOA_CLK_ENABLE>:
    3912:	ad1fc2ef          	jal	t0,3e2 <__riscv_save_0>
    3916:	4585                	li	a1,1
    3918:	4511                	li	a0,4
    391a:	54c050ef          	jal	ra,8e66 <RCC_APB2PeriphClockCmd>
    391e:	ae9fc06f          	j	406 <__riscv_restore_0>

00003922 <GPIOC_CLK_ENABLE>:
    3922:	ac1fc2ef          	jal	t0,3e2 <__riscv_save_0>
    3926:	4585                	li	a1,1
    3928:	4541                	li	a0,16
    392a:	53c050ef          	jal	ra,8e66 <RCC_APB2PeriphClockCmd>
    392e:	ad9fc06f          	j	406 <__riscv_restore_0>

00003932 <GPIOE_CLK_ENABLE>:
    3932:	ab1fc2ef          	jal	t0,3e2 <__riscv_save_0>
    3936:	4585                	li	a1,1
    3938:	04000513          	li	a0,64
    393c:	52a050ef          	jal	ra,8e66 <RCC_APB2PeriphClockCmd>
    3940:	ac7fc06f          	j	406 <__riscv_restore_0>

00003944 <ch32_pin_write>:
    3944:	0ff5f713          	andi	a4,a1,255
    3948:	06400793          	li	a5,100
    394c:	02e7e663          	bltu	a5,a4,3978 <ch32_pin_write+0x34>
    3950:	0ff5f593          	andi	a1,a1,255
    3954:	67b9                	lui	a5,0xe
    3956:	0592                	slli	a1,a1,0x4
    3958:	9e478793          	addi	a5,a5,-1564 # d9e4 <pins>
    395c:	97ae                	add	a5,a5,a1
    395e:	4394                	lw	a3,0(a5)
    3960:	577d                	li	a4,-1
    3962:	00e68b63          	beq	a3,a4,3978 <ch32_pin_write+0x34>
    3966:	a7dfc2ef          	jal	t0,3e2 <__riscv_save_0>
    396a:	00c7d583          	lhu	a1,12(a5)
    396e:	4788                	lw	a0,8(a5)
    3970:	212050ef          	jal	ra,8b82 <GPIO_WriteBit>
    3974:	a93fc06f          	j	406 <__riscv_restore_0>
    3978:	8082                	ret

0000397a <ch32_pin_read>:
    397a:	0ff5f713          	andi	a4,a1,255
    397e:	06400793          	li	a5,100
    3982:	4501                	li	a0,0
    3984:	02e7e663          	bltu	a5,a4,39b0 <ch32_pin_read+0x36>
    3988:	0ff5f593          	andi	a1,a1,255
    398c:	67b9                	lui	a5,0xe
    398e:	0592                	slli	a1,a1,0x4
    3990:	9e478793          	addi	a5,a5,-1564 # d9e4 <pins>
    3994:	97ae                	add	a5,a5,a1
    3996:	4394                	lw	a3,0(a5)
    3998:	577d                	li	a4,-1
    399a:	00e68b63          	beq	a3,a4,39b0 <ch32_pin_read+0x36>
    399e:	a45fc2ef          	jal	t0,3e2 <__riscv_save_0>
    39a2:	00c7d583          	lhu	a1,12(a5)
    39a6:	4788                	lw	a0,8(a5)
    39a8:	1c8050ef          	jal	ra,8b70 <GPIO_ReadInputDataBit>
    39ac:	a5bfc06f          	j	406 <__riscv_restore_0>
    39b0:	8082                	ret

000039b2 <ch32_pin_mode>:
    39b2:	0ff5f713          	andi	a4,a1,255
    39b6:	06400793          	li	a5,100
    39ba:	08e7e063          	bltu	a5,a4,3a3a <ch32_pin_mode+0x88>
    39be:	a0bfc2ef          	jal	t0,3c8 <__riscv_save_4>
    39c2:	0ff5f593          	andi	a1,a1,255
    39c6:	64b9                	lui	s1,0xe
    39c8:	9e448493          	addi	s1,s1,-1564 # d9e4 <pins>
    39cc:	00459413          	slli	s0,a1,0x4
    39d0:	008489b3          	add	s3,s1,s0
    39d4:	0009a703          	lw	a4,0(s3)
    39d8:	57fd                	li	a5,-1
    39da:	1141                	addi	sp,sp,-16
    39dc:	02f70563          	beq	a4,a5,3a06 <ch32_pin_mode+0x54>
    39e0:	0049a783          	lw	a5,4(s3)
    39e4:	8932                	mv	s2,a2
    39e6:	9782                	jalr	a5
    39e8:	00c9a703          	lw	a4,12(s3)
    39ec:	478d                	li	a5,3
    39ee:	c43e                	sw	a5,8(sp)
    39f0:	00e11223          	sh	a4,4(sp)
    39f4:	4741                	li	a4,16
    39f6:	c63a                	sw	a4,12(sp)
    39f8:	00091a63          	bnez	s2,3a0c <ch32_pin_mode+0x5a>
    39fc:	9426                	add	s0,s0,s1
    39fe:	4408                	lw	a0,8(s0)
    3a00:	004c                	addi	a1,sp,4
    3a02:	09a050ef          	jal	ra,8a9c <GPIO_Init>
    3a06:	0141                	addi	sp,sp,16
    3a08:	9f5fc06f          	j	3fc <__riscv_restore_4>
    3a0c:	4715                	li	a4,5
    3a0e:	02e90763          	beq	s2,a4,3a3c <ch32_pin_mode+0x8a>
    3a12:	4705                	li	a4,1
    3a14:	02e90663          	beq	s2,a4,3a40 <ch32_pin_mode+0x8e>
    3a18:	02f90a63          	beq	s2,a5,3a4c <ch32_pin_mode+0x9a>
    3a1c:	4789                	li	a5,2
    3a1e:	02f90b63          	beq	s2,a5,3a54 <ch32_pin_mode+0xa2>
    3a22:	4791                	li	a5,4
    3a24:	02f90163          	beq	s2,a5,3a46 <ch32_pin_mode+0x94>
    3a28:	4799                	li	a5,6
    3a2a:	02f90963          	beq	s2,a5,3a5c <ch32_pin_mode+0xaa>
    3a2e:	479d                	li	a5,7
    3a30:	fcf916e3          	bne	s2,a5,39fc <ch32_pin_mode+0x4a>
    3a34:	47e1                	li	a5,24
    3a36:	c63e                	sw	a5,12(sp)
    3a38:	b7d1                	j	39fc <ch32_pin_mode+0x4a>
    3a3a:	8082                	ret
    3a3c:	c602                	sw	zero,12(sp)
    3a3e:	bf7d                	j	39fc <ch32_pin_mode+0x4a>
    3a40:	4791                	li	a5,4
    3a42:	c63e                	sw	a5,12(sp)
    3a44:	bf65                	j	39fc <ch32_pin_mode+0x4a>
    3a46:	47d1                	li	a5,20
    3a48:	c63e                	sw	a5,12(sp)
    3a4a:	bf4d                	j	39fc <ch32_pin_mode+0x4a>
    3a4c:	02800793          	li	a5,40
    3a50:	c63e                	sw	a5,12(sp)
    3a52:	b76d                	j	39fc <ch32_pin_mode+0x4a>
    3a54:	04800793          	li	a5,72
    3a58:	c63e                	sw	a5,12(sp)
    3a5a:	b74d                	j	39fc <ch32_pin_mode+0x4a>
    3a5c:	47f1                	li	a5,28
    3a5e:	c63e                	sw	a5,12(sp)
    3a60:	bf71                	j	39fc <ch32_pin_mode+0x4a>

00003a62 <ch32_pin_attach_irq>:
    3a62:	0ff5f813          	andi	a6,a1,255
    3a66:	06400793          	li	a5,100
    3a6a:	4519                	li	a0,6
    3a6c:	0907ee63          	bltu	a5,a6,3b08 <ch32_pin_attach_irq+0xa6>
    3a70:	0ff5f793          	andi	a5,a1,255
    3a74:	00479813          	slli	a6,a5,0x4
    3a78:	67b9                	lui	a5,0xe
    3a7a:	9e478793          	addi	a5,a5,-1564 # d9e4 <pins>
    3a7e:	97c2                	add	a5,a5,a6
    3a80:	0007a883          	lw	a7,0(a5)
    3a84:	587d                	li	a6,-1
    3a86:	09088163          	beq	a7,a6,3b08 <ch32_pin_attach_irq+0xa6>
    3a8a:	93ffc2ef          	jal	t0,3c8 <__riscv_save_4>
    3a8e:	00c7a803          	lw	a6,12(a5)
    3a92:	4401                	li	s0,0
    3a94:	4505                	li	a0,1
    3a96:	02000893          	li	a7,32
    3a9a:	a021                	j	3aa2 <ch32_pin_attach_irq+0x40>
    3a9c:	0405                	addi	s0,s0,1
    3a9e:	07140263          	beq	s0,a7,3b02 <ch32_pin_attach_irq+0xa0>
    3aa2:	008517b3          	sll	a5,a0,s0
    3aa6:	fef81be3          	bne	a6,a5,3a9c <ch32_pin_attach_irq+0x3a>
    3aaa:	47bd                	li	a5,15
    3aac:	0487cb63          	blt	a5,s0,3b02 <ch32_pin_attach_irq+0xa0>
    3ab0:	8a3a                	mv	s4,a4
    3ab2:	8936                	mv	s2,a3
    3ab4:	84ae                	mv	s1,a1
    3ab6:	89b2                	mv	s3,a2
    3ab8:	ee8fe0ef          	jal	ra,21a0 <rt_hw_interrupt_disable>
    3abc:	00141713          	slli	a4,s0,0x1
    3ac0:	008705b3          	add	a1,a4,s0
    3ac4:	200007b7          	lui	a5,0x20000
    3ac8:	08078793          	addi	a5,a5,128 # 20000080 <pin_irq_hdr_tab>
    3acc:	058a                	slli	a1,a1,0x2
    3ace:	95be                	add	a1,a1,a5
    3ad0:	00059683          	lh	a3,0(a1)
    3ad4:	882a                	mv	a6,a0
    3ad6:	04968063          	beq	a3,s1,3b16 <ch32_pin_attach_irq+0xb4>
    3ada:	567d                	li	a2,-1
    3adc:	02c69763          	bne	a3,a2,3b0a <ch32_pin_attach_irq+0xa8>
    3ae0:	9722                	add	a4,a4,s0
    3ae2:	070a                	slli	a4,a4,0x2
    3ae4:	97ba                	add	a5,a5,a4
    3ae6:	8542                	mv	a0,a6
    3ae8:	00979023          	sh	s1,0(a5)
    3aec:	0127a223          	sw	s2,4(a5)
    3af0:	01379123          	sh	s3,2(a5)
    3af4:	0147a423          	sw	s4,8(a5)
    3af8:	eb4fe0ef          	jal	ra,21ac <rt_hw_interrupt_enable>
    3afc:	4501                	li	a0,0
    3afe:	8fffc06f          	j	3fc <__riscv_restore_4>
    3b02:	4519                	li	a0,6
    3b04:	8f9fc06f          	j	3fc <__riscv_restore_4>
    3b08:	8082                	ret
    3b0a:	8542                	mv	a0,a6
    3b0c:	ea0fe0ef          	jal	ra,21ac <rt_hw_interrupt_enable>
    3b10:	451d                	li	a0,7
    3b12:	8ebfc06f          	j	3fc <__riscv_restore_4>
    3b16:	41d0                	lw	a2,4(a1)
    3b18:	fd2611e3          	bne	a2,s2,3ada <ch32_pin_attach_irq+0x78>
    3b1c:	0025d603          	lhu	a2,2(a1)
    3b20:	fb361de3          	bne	a2,s3,3ada <ch32_pin_attach_irq+0x78>
    3b24:	4590                	lw	a2,8(a1)
    3b26:	fb461ae3          	bne	a2,s4,3ada <ch32_pin_attach_irq+0x78>
    3b2a:	b7f9                	j	3af8 <ch32_pin_attach_irq+0x96>

00003b2c <ch32_pin_dettach_irq>:
    3b2c:	0ff5f713          	andi	a4,a1,255
    3b30:	06400793          	li	a5,100
    3b34:	4519                	li	a0,6
    3b36:	06e7ee63          	bltu	a5,a4,3bb2 <ch32_pin_dettach_irq+0x86>
    3b3a:	0ff5f593          	andi	a1,a1,255
    3b3e:	67b9                	lui	a5,0xe
    3b40:	9e478793          	addi	a5,a5,-1564 # d9e4 <pins>
    3b44:	0592                	slli	a1,a1,0x4
    3b46:	95be                	add	a1,a1,a5
    3b48:	4198                	lw	a4,0(a1)
    3b4a:	57fd                	li	a5,-1
    3b4c:	06f70363          	beq	a4,a5,3bb2 <ch32_pin_dettach_irq+0x86>
    3b50:	893fc2ef          	jal	t0,3e2 <__riscv_save_0>
    3b54:	45d4                	lw	a3,12(a1)
    3b56:	4401                	li	s0,0
    3b58:	4705                	li	a4,1
    3b5a:	02000613          	li	a2,32
    3b5e:	a021                	j	3b66 <ch32_pin_dettach_irq+0x3a>
    3b60:	0405                	addi	s0,s0,1
    3b62:	04c40563          	beq	s0,a2,3bac <ch32_pin_dettach_irq+0x80>
    3b66:	008717b3          	sll	a5,a4,s0
    3b6a:	fef69be3          	bne	a3,a5,3b60 <ch32_pin_dettach_irq+0x34>
    3b6e:	47bd                	li	a5,15
    3b70:	0287ce63          	blt	a5,s0,3bac <ch32_pin_dettach_irq+0x80>
    3b74:	e2cfe0ef          	jal	ra,21a0 <rt_hw_interrupt_disable>
    3b78:	00141793          	slli	a5,s0,0x1
    3b7c:	943e                	add	s0,s0,a5
    3b7e:	200007b7          	lui	a5,0x20000
    3b82:	040a                	slli	s0,s0,0x2
    3b84:	08078793          	addi	a5,a5,128 # 20000080 <pin_irq_hdr_tab>
    3b88:	97a2                	add	a5,a5,s0
    3b8a:	00079683          	lh	a3,0(a5)
    3b8e:	577d                	li	a4,-1
    3b90:	00e68963          	beq	a3,a4,3ba2 <ch32_pin_dettach_irq+0x76>
    3b94:	6741                	lui	a4,0x10
    3b96:	177d                	addi	a4,a4,-1
    3b98:	c398                	sw	a4,0(a5)
    3b9a:	0007a223          	sw	zero,4(a5)
    3b9e:	0007a423          	sw	zero,8(a5)
    3ba2:	e0afe0ef          	jal	ra,21ac <rt_hw_interrupt_enable>
    3ba6:	4501                	li	a0,0
    3ba8:	85ffc06f          	j	406 <__riscv_restore_0>
    3bac:	4519                	li	a0,6
    3bae:	859fc06f          	j	406 <__riscv_restore_0>
    3bb2:	8082                	ret

00003bb4 <ch32_pin_irq_enable>:
    3bb4:	0ff5f713          	andi	a4,a1,255
    3bb8:	06400793          	li	a5,100
    3bbc:	4519                	li	a0,6
    3bbe:	06e7eb63          	bltu	a5,a4,3c34 <ch32_pin_irq_enable+0x80>
    3bc2:	807fc2ef          	jal	t0,3c8 <__riscv_save_4>
    3bc6:	0ff5f593          	andi	a1,a1,255
    3bca:	6939                	lui	s2,0xe
    3bcc:	9e490913          	addi	s2,s2,-1564 # d9e4 <pins>
    3bd0:	00459493          	slli	s1,a1,0x4
    3bd4:	009907b3          	add	a5,s2,s1
    3bd8:	4394                	lw	a3,0(a5)
    3bda:	577d                	li	a4,-1
    3bdc:	1101                	addi	sp,sp,-32
    3bde:	04e68863          	beq	a3,a4,3c2e <ch32_pin_irq_enable+0x7a>
    3be2:	4705                	li	a4,1
    3be4:	04e60963          	beq	a2,a4,3c36 <ch32_pin_irq_enable+0x82>
    3be8:	e239                	bnez	a2,3c2e <ch32_pin_irq_enable+0x7a>
    3bea:	47d0                	lw	a2,12(a5)
    3bec:	4685                	li	a3,1
    3bee:	4781                	li	a5,0
    3bf0:	02000593          	li	a1,32
    3bf4:	a021                	j	3bfc <ch32_pin_irq_enable+0x48>
    3bf6:	0785                	addi	a5,a5,1
    3bf8:	14b78263          	beq	a5,a1,3d3c <ch32_pin_irq_enable+0x188>
    3bfc:	00f69733          	sll	a4,a3,a5
    3c00:	fec71be3          	bne	a4,a2,3bf6 <ch32_pin_irq_enable+0x42>
    3c04:	473d                	li	a4,15
    3c06:	12f74b63          	blt	a4,a5,3d3c <ch32_pin_irq_enable+0x188>
    3c0a:	6739                	lui	a4,0xe
    3c0c:	96470713          	addi	a4,a4,-1692 # d964 <pin_irq_map>
    3c10:	078e                	slli	a5,a5,0x3
    3c12:	97ba                	add	a5,a5,a4
    3c14:	43d8                	lw	a4,4(a5)
    3c16:	4501                	li	a0,0
    3c18:	00575793          	srli	a5,a4,0x5
    3c1c:	06078793          	addi	a5,a5,96
    3c20:	00e696b3          	sll	a3,a3,a4
    3c24:	078a                	slli	a5,a5,0x2
    3c26:	e000e737          	lui	a4,0xe000e
    3c2a:	97ba                	add	a5,a5,a4
    3c2c:	c394                	sw	a3,0(a5)
    3c2e:	6105                	addi	sp,sp,32
    3c30:	fccfc06f          	j	3fc <__riscv_restore_4>
    3c34:	8082                	ret
    3c36:	00c7aa03          	lw	s4,12(a5)
    3c3a:	4401                	li	s0,0
    3c3c:	4985                	li	s3,1
    3c3e:	02000713          	li	a4,32
    3c42:	a021                	j	3c4a <ch32_pin_irq_enable+0x96>
    3c44:	0405                	addi	s0,s0,1
    3c46:	0ee40b63          	beq	s0,a4,3d3c <ch32_pin_irq_enable+0x188>
    3c4a:	008997b3          	sll	a5,s3,s0
    3c4e:	fefa1be3          	bne	s4,a5,3c44 <ch32_pin_irq_enable+0x90>
    3c52:	47bd                	li	a5,15
    3c54:	0e87c463          	blt	a5,s0,3d3c <ch32_pin_irq_enable+0x188>
    3c58:	00141a93          	slli	s5,s0,0x1
    3c5c:	d44fe0ef          	jal	ra,21a0 <rt_hw_interrupt_disable>
    3c60:	9aa2                	add	s5,s5,s0
    3c62:	002a9793          	slli	a5,s5,0x2
    3c66:	20000ab7          	lui	s5,0x20000
    3c6a:	080a8a93          	addi	s5,s5,128 # 20000080 <pin_irq_hdr_tab>
    3c6e:	9abe                	add	s5,s5,a5
    3c70:	000a9703          	lh	a4,0(s5)
    3c74:	57fd                	li	a5,-1
    3c76:	8b2a                	mv	s6,a0
    3c78:	0ef70263          	beq	a4,a5,3d5c <ch32_pin_irq_enable+0x1a8>
    3c7c:	009907b3          	add	a5,s2,s1
    3c80:	43dc                	lw	a5,4(a5)
    3c82:	9782                	jalr	a5
    3c84:	4585                	li	a1,1
    3c86:	4505                	li	a0,1
    3c88:	1de050ef          	jal	ra,8e66 <RCC_APB2PeriphClockCmd>
    3c8c:	002ad783          	lhu	a5,2(s5)
    3c90:	470d                	li	a4,3
    3c92:	01411223          	sh	s4,4(sp)
    3c96:	c43a                	sw	a4,8(sp)
    3c98:	c852                	sw	s4,16(sp)
    3c9a:	ca02                	sw	zero,20(sp)
    3c9c:	ce4e                	sw	s3,28(sp)
    3c9e:	0b378963          	beq	a5,s3,3d50 <ch32_pin_irq_enable+0x19c>
    3ca2:	c3cd                	beqz	a5,3d44 <ch32_pin_irq_enable+0x190>
    3ca4:	4709                	li	a4,2
    3ca6:	00e79663          	bne	a5,a4,3cb2 <ch32_pin_irq_enable+0xfe>
    3caa:	4791                	li	a5,4
    3cac:	c63e                	sw	a5,12(sp)
    3cae:	47c1                	li	a5,16
    3cb0:	cc3e                	sw	a5,24(sp)
    3cb2:	94ca                	add	s1,s1,s2
    3cb4:	4484                	lw	s1,8(s1)
    3cb6:	004c                	addi	a1,sp,4
    3cb8:	8526                	mv	a0,s1
    3cba:	5e3040ef          	jal	ra,8a9c <GPIO_Init>
    3cbe:	400117b7          	lui	a5,0x40011
    3cc2:	c0078713          	addi	a4,a5,-1024 # 40010c00 <_eusrstack+0x20000c00>
    3cc6:	4505                	li	a0,1
    3cc8:	02e48463          	beq	s1,a4,3cf0 <ch32_pin_irq_enable+0x13c>
    3ccc:	4509                	li	a0,2
    3cce:	02f48163          	beq	s1,a5,3cf0 <ch32_pin_irq_enable+0x13c>
    3cd2:	40078793          	addi	a5,a5,1024
    3cd6:	450d                	li	a0,3
    3cd8:	00f48c63          	beq	s1,a5,3cf0 <ch32_pin_irq_enable+0x13c>
    3cdc:	400127b7          	lui	a5,0x40012
    3ce0:	80078793          	addi	a5,a5,-2048 # 40011800 <_eusrstack+0x20001800>
    3ce4:	40f487b3          	sub	a5,s1,a5
    3ce8:	0017b793          	seqz	a5,a5
    3cec:	00279513          	slli	a0,a5,0x2
    3cf0:	0ff47593          	andi	a1,s0,255
    3cf4:	699040ef          	jal	ra,8b8c <GPIO_EXTILineConfig>
    3cf8:	0808                	addi	a0,sp,16
    3cfa:	355040ef          	jal	ra,884e <EXTI_Init>
    3cfe:	67b9                	lui	a5,0xe
    3d00:	96478793          	addi	a5,a5,-1692 # d964 <pin_irq_map>
    3d04:	040e                	slli	s0,s0,0x3
    3d06:	943e                	add	s0,s0,a5
    3d08:	4050                	lw	a2,4(s0)
    3d0a:	e000e737          	lui	a4,0xe000e
    3d0e:	05000593          	li	a1,80
    3d12:	00565793          	srli	a5,a2,0x5
    3d16:	00c706b3          	add	a3,a4,a2
    3d1a:	04078793          	addi	a5,a5,64
    3d1e:	40b68023          	sb	a1,1024(a3) # 4400 <DrawCurve+0x9e>
    3d22:	078a                	slli	a5,a5,0x2
    3d24:	4685                	li	a3,1
    3d26:	00c696b3          	sll	a3,a3,a2
    3d2a:	97ba                	add	a5,a5,a4
    3d2c:	855a                	mv	a0,s6
    3d2e:	c394                	sw	a3,0(a5)
    3d30:	c7cfe0ef          	jal	ra,21ac <rt_hw_interrupt_enable>
    3d34:	4501                	li	a0,0
    3d36:	6105                	addi	sp,sp,32
    3d38:	ec4fc06f          	j	3fc <__riscv_restore_4>
    3d3c:	4519                	li	a0,6
    3d3e:	6105                	addi	sp,sp,32
    3d40:	ebcfc06f          	j	3fc <__riscv_restore_4>
    3d44:	02800793          	li	a5,40
    3d48:	c63e                	sw	a5,12(sp)
    3d4a:	47a1                	li	a5,8
    3d4c:	cc3e                	sw	a5,24(sp)
    3d4e:	b795                	j	3cb2 <ch32_pin_irq_enable+0xfe>
    3d50:	04800793          	li	a5,72
    3d54:	c63e                	sw	a5,12(sp)
    3d56:	47b1                	li	a5,12
    3d58:	cc3e                	sw	a5,24(sp)
    3d5a:	bfa1                	j	3cb2 <ch32_pin_irq_enable+0xfe>
    3d5c:	c50fe0ef          	jal	ra,21ac <rt_hw_interrupt_enable>
    3d60:	4519                	li	a0,6
    3d62:	b5f1                	j	3c2e <ch32_pin_irq_enable+0x7a>

00003d64 <rt_hw_pin_init>:
    3d64:	e7efc2ef          	jal	t0,3e2 <__riscv_save_0>
    3d68:	65b9                	lui	a1,0xe
    3d6a:	0000e537          	lui	a0,0xe
    3d6e:	4601                	li	a2,0
    3d70:	94c58593          	addi	a1,a1,-1716 # d94c <_ch32_pin_ops>
    3d74:	03450513          	addi	a0,a0,52 # e034 <pins+0x650>
    3d78:	9fdff0ef          	jal	ra,3774 <rt_device_pin_register>
    3d7c:	e8afc06f          	j	406 <__riscv_restore_0>

00003d80 <EXTI0_IRQHandler>:
    3d80:	34011173          	csrrw	sp,mscratch,sp
    3d84:	e6ffc0ef          	jal	ra,bf2 <rt_interrupt_enter>
    3d88:	4505                	li	a0,1
    3d8a:	33d040ef          	jal	ra,88c6 <EXTI_GetITStatus>
    3d8e:	cd01                	beqz	a0,3da6 <EXTI0_IRQHandler+0x26>
    3d90:	200007b7          	lui	a5,0x20000
    3d94:	08078793          	addi	a5,a5,128 # 20000080 <pin_irq_hdr_tab>
    3d98:	43d8                	lw	a4,4(a5)
    3d9a:	c319                	beqz	a4,3da0 <EXTI0_IRQHandler+0x20>
    3d9c:	4788                	lw	a0,8(a5)
    3d9e:	9702                	jalr	a4
    3da0:	4505                	li	a0,1
    3da2:	343040ef          	jal	ra,88e4 <EXTI_ClearITPendingBit>
    3da6:	e7ffc0ef          	jal	ra,c24 <rt_interrupt_leave>
    3daa:	34011173          	csrrw	sp,mscratch,sp
    3dae:	30200073          	mret

00003db2 <EXTI1_IRQHandler>:
    3db2:	34011173          	csrrw	sp,mscratch,sp
    3db6:	e3dfc0ef          	jal	ra,bf2 <rt_interrupt_enter>
    3dba:	4509                	li	a0,2
    3dbc:	30b040ef          	jal	ra,88c6 <EXTI_GetITStatus>
    3dc0:	e519                	bnez	a0,3dce <EXTI1_IRQHandler+0x1c>
    3dc2:	e63fc0ef          	jal	ra,c24 <rt_interrupt_leave>
    3dc6:	34011173          	csrrw	sp,mscratch,sp
    3dca:	30200073          	mret
    3dce:	200007b7          	lui	a5,0x20000
    3dd2:	08078793          	addi	a5,a5,128 # 20000080 <pin_irq_hdr_tab>
    3dd6:	4b98                	lw	a4,16(a5)
    3dd8:	c319                	beqz	a4,3dde <EXTI1_IRQHandler+0x2c>
    3dda:	4bc8                	lw	a0,20(a5)
    3ddc:	9702                	jalr	a4
    3dde:	4509                	li	a0,2
    3de0:	305040ef          	jal	ra,88e4 <EXTI_ClearITPendingBit>
    3de4:	e41fc0ef          	jal	ra,c24 <rt_interrupt_leave>
    3de8:	34011173          	csrrw	sp,mscratch,sp
    3dec:	30200073          	mret

00003df0 <EXTI2_IRQHandler>:
    3df0:	34011173          	csrrw	sp,mscratch,sp
    3df4:	dfffc0ef          	jal	ra,bf2 <rt_interrupt_enter>
    3df8:	4511                	li	a0,4
    3dfa:	2cd040ef          	jal	ra,88c6 <EXTI_GetITStatus>
    3dfe:	cd01                	beqz	a0,3e16 <EXTI2_IRQHandler+0x26>
    3e00:	200007b7          	lui	a5,0x20000
    3e04:	08078793          	addi	a5,a5,128 # 20000080 <pin_irq_hdr_tab>
    3e08:	4fd8                	lw	a4,28(a5)
    3e0a:	c319                	beqz	a4,3e10 <EXTI2_IRQHandler+0x20>
    3e0c:	5388                	lw	a0,32(a5)
    3e0e:	9702                	jalr	a4
    3e10:	4511                	li	a0,4
    3e12:	2d3040ef          	jal	ra,88e4 <EXTI_ClearITPendingBit>
    3e16:	e0ffc0ef          	jal	ra,c24 <rt_interrupt_leave>
    3e1a:	34011173          	csrrw	sp,mscratch,sp
    3e1e:	30200073          	mret

00003e22 <EXTI3_IRQHandler>:
    3e22:	34011173          	csrrw	sp,mscratch,sp
    3e26:	dcdfc0ef          	jal	ra,bf2 <rt_interrupt_enter>
    3e2a:	4521                	li	a0,8
    3e2c:	29b040ef          	jal	ra,88c6 <EXTI_GetITStatus>
    3e30:	cd01                	beqz	a0,3e48 <EXTI3_IRQHandler+0x26>
    3e32:	200007b7          	lui	a5,0x20000
    3e36:	08078793          	addi	a5,a5,128 # 20000080 <pin_irq_hdr_tab>
    3e3a:	5798                	lw	a4,40(a5)
    3e3c:	c319                	beqz	a4,3e42 <EXTI3_IRQHandler+0x20>
    3e3e:	57c8                	lw	a0,44(a5)
    3e40:	9702                	jalr	a4
    3e42:	4521                	li	a0,8
    3e44:	2a1040ef          	jal	ra,88e4 <EXTI_ClearITPendingBit>
    3e48:	dddfc0ef          	jal	ra,c24 <rt_interrupt_leave>
    3e4c:	34011173          	csrrw	sp,mscratch,sp
    3e50:	30200073          	mret

00003e54 <EXTI4_IRQHandler>:
    3e54:	34011173          	csrrw	sp,mscratch,sp
    3e58:	d9bfc0ef          	jal	ra,bf2 <rt_interrupt_enter>
    3e5c:	4541                	li	a0,16
    3e5e:	269040ef          	jal	ra,88c6 <EXTI_GetITStatus>
    3e62:	cd01                	beqz	a0,3e7a <EXTI4_IRQHandler+0x26>
    3e64:	200007b7          	lui	a5,0x20000
    3e68:	08078793          	addi	a5,a5,128 # 20000080 <pin_irq_hdr_tab>
    3e6c:	5bd8                	lw	a4,52(a5)
    3e6e:	c319                	beqz	a4,3e74 <EXTI4_IRQHandler+0x20>
    3e70:	5f88                	lw	a0,56(a5)
    3e72:	9702                	jalr	a4
    3e74:	4541                	li	a0,16
    3e76:	26f040ef          	jal	ra,88e4 <EXTI_ClearITPendingBit>
    3e7a:	dabfc0ef          	jal	ra,c24 <rt_interrupt_leave>
    3e7e:	34011173          	csrrw	sp,mscratch,sp
    3e82:	30200073          	mret

00003e86 <EXTI9_5_IRQHandler>:
    3e86:	1141                	addi	sp,sp,-16
    3e88:	c622                	sw	s0,12(sp)
    3e8a:	34011173          	csrrw	sp,mscratch,sp
    3e8e:	d65fc0ef          	jal	ra,bf2 <rt_interrupt_enter>
    3e92:	02000513          	li	a0,32
    3e96:	231040ef          	jal	ra,88c6 <EXTI_GetITStatus>
    3e9a:	c529                	beqz	a0,3ee4 <EXTI9_5_IRQHandler+0x5e>
    3e9c:	20000437          	lui	s0,0x20000
    3ea0:	08040413          	addi	s0,s0,128 # 20000080 <pin_irq_hdr_tab>
    3ea4:	403c                	lw	a5,64(s0)
    3ea6:	c399                	beqz	a5,3eac <EXTI9_5_IRQHandler+0x26>
    3ea8:	4068                	lw	a0,68(s0)
    3eaa:	9782                	jalr	a5
    3eac:	447c                	lw	a5,76(s0)
    3eae:	c399                	beqz	a5,3eb4 <EXTI9_5_IRQHandler+0x2e>
    3eb0:	4828                	lw	a0,80(s0)
    3eb2:	9782                	jalr	a5
    3eb4:	4c3c                	lw	a5,88(s0)
    3eb6:	c399                	beqz	a5,3ebc <EXTI9_5_IRQHandler+0x36>
    3eb8:	4c68                	lw	a0,92(s0)
    3eba:	9782                	jalr	a5
    3ebc:	507c                	lw	a5,100(s0)
    3ebe:	c399                	beqz	a5,3ec4 <EXTI9_5_IRQHandler+0x3e>
    3ec0:	5428                	lw	a0,104(s0)
    3ec2:	9782                	jalr	a5
    3ec4:	583c                	lw	a5,112(s0)
    3ec6:	c399                	beqz	a5,3ecc <EXTI9_5_IRQHandler+0x46>
    3ec8:	5868                	lw	a0,116(s0)
    3eca:	9782                	jalr	a5
    3ecc:	3e000513          	li	a0,992
    3ed0:	215040ef          	jal	ra,88e4 <EXTI_ClearITPendingBit>
    3ed4:	d51fc0ef          	jal	ra,c24 <rt_interrupt_leave>
    3ed8:	34011173          	csrrw	sp,mscratch,sp
    3edc:	4432                	lw	s0,12(sp)
    3ede:	0141                	addi	sp,sp,16
    3ee0:	30200073          	mret
    3ee4:	04000513          	li	a0,64
    3ee8:	1df040ef          	jal	ra,88c6 <EXTI_GetITStatus>
    3eec:	f945                	bnez	a0,3e9c <EXTI9_5_IRQHandler+0x16>
    3eee:	08000513          	li	a0,128
    3ef2:	1d5040ef          	jal	ra,88c6 <EXTI_GetITStatus>
    3ef6:	f15d                	bnez	a0,3e9c <EXTI9_5_IRQHandler+0x16>
    3ef8:	10000513          	li	a0,256
    3efc:	1cb040ef          	jal	ra,88c6 <EXTI_GetITStatus>
    3f00:	fd51                	bnez	a0,3e9c <EXTI9_5_IRQHandler+0x16>
    3f02:	20000513          	li	a0,512
    3f06:	1c1040ef          	jal	ra,88c6 <EXTI_GetITStatus>
    3f0a:	f949                	bnez	a0,3e9c <EXTI9_5_IRQHandler+0x16>
    3f0c:	b7e1                	j	3ed4 <EXTI9_5_IRQHandler+0x4e>

00003f0e <EXTI15_10_IRQHandler>:
    3f0e:	1141                	addi	sp,sp,-16
    3f10:	c622                	sw	s0,12(sp)
    3f12:	34011173          	csrrw	sp,mscratch,sp
    3f16:	cddfc0ef          	jal	ra,bf2 <rt_interrupt_enter>
    3f1a:	40000513          	li	a0,1024
    3f1e:	1a9040ef          	jal	ra,88c6 <EXTI_GetITStatus>
    3f22:	c52d                	beqz	a0,3f8c <EXTI15_10_IRQHandler+0x7e>
    3f24:	20000437          	lui	s0,0x20000
    3f28:	08040413          	addi	s0,s0,128 # 20000080 <pin_irq_hdr_tab>
    3f2c:	5c7c                	lw	a5,124(s0)
    3f2e:	c781                	beqz	a5,3f36 <EXTI15_10_IRQHandler+0x28>
    3f30:	08042503          	lw	a0,128(s0)
    3f34:	9782                	jalr	a5
    3f36:	08842783          	lw	a5,136(s0)
    3f3a:	c781                	beqz	a5,3f42 <EXTI15_10_IRQHandler+0x34>
    3f3c:	08c42503          	lw	a0,140(s0)
    3f40:	9782                	jalr	a5
    3f42:	09442783          	lw	a5,148(s0)
    3f46:	c781                	beqz	a5,3f4e <EXTI15_10_IRQHandler+0x40>
    3f48:	09842503          	lw	a0,152(s0)
    3f4c:	9782                	jalr	a5
    3f4e:	0a042783          	lw	a5,160(s0)
    3f52:	c781                	beqz	a5,3f5a <EXTI15_10_IRQHandler+0x4c>
    3f54:	0a442503          	lw	a0,164(s0)
    3f58:	9782                	jalr	a5
    3f5a:	0ac42783          	lw	a5,172(s0)
    3f5e:	c781                	beqz	a5,3f66 <EXTI15_10_IRQHandler+0x58>
    3f60:	0b042503          	lw	a0,176(s0)
    3f64:	9782                	jalr	a5
    3f66:	0b842783          	lw	a5,184(s0)
    3f6a:	c781                	beqz	a5,3f72 <EXTI15_10_IRQHandler+0x64>
    3f6c:	0bc42503          	lw	a0,188(s0)
    3f70:	9782                	jalr	a5
    3f72:	6541                	lui	a0,0x10
    3f74:	c0050513          	addi	a0,a0,-1024 # fc00 <asc2_3216+0x124>
    3f78:	16d040ef          	jal	ra,88e4 <EXTI_ClearITPendingBit>
    3f7c:	ca9fc0ef          	jal	ra,c24 <rt_interrupt_leave>
    3f80:	34011173          	csrrw	sp,mscratch,sp
    3f84:	4432                	lw	s0,12(sp)
    3f86:	0141                	addi	sp,sp,16
    3f88:	30200073          	mret
    3f8c:	6505                	lui	a0,0x1
    3f8e:	80050513          	addi	a0,a0,-2048 # 800 <__stack_size>
    3f92:	135040ef          	jal	ra,88c6 <EXTI_GetITStatus>
    3f96:	f559                	bnez	a0,3f24 <EXTI15_10_IRQHandler+0x16>
    3f98:	6505                	lui	a0,0x1
    3f9a:	12d040ef          	jal	ra,88c6 <EXTI_GetITStatus>
    3f9e:	f159                	bnez	a0,3f24 <EXTI15_10_IRQHandler+0x16>
    3fa0:	6509                	lui	a0,0x2
    3fa2:	125040ef          	jal	ra,88c6 <EXTI_GetITStatus>
    3fa6:	fd3d                	bnez	a0,3f24 <EXTI15_10_IRQHandler+0x16>
    3fa8:	6511                	lui	a0,0x4
    3faa:	11d040ef          	jal	ra,88c6 <EXTI_GetITStatus>
    3fae:	f93d                	bnez	a0,3f24 <EXTI15_10_IRQHandler+0x16>
    3fb0:	6521                	lui	a0,0x8
    3fb2:	115040ef          	jal	ra,88c6 <EXTI_GetITStatus>
    3fb6:	f53d                	bnez	a0,3f24 <EXTI15_10_IRQHandler+0x16>
    3fb8:	b7d1                	j	3f7c <EXTI15_10_IRQHandler+0x6e>

00003fba <ch32_timer_attach_irq>:
    3fba:	8ea1a423          	sw	a0,-1816(gp) # 20003410 <timer_irq>
    3fbe:	8eb1a623          	sw	a1,-1812(gp) # 20003414 <timer_irq_args>
    3fc2:	8082                	ret

00003fc4 <ch32_timer_mode>:
    3fc4:	c1efc2ef          	jal	t0,3e2 <__riscv_save_0>
    3fc8:	1141                	addi	sp,sp,-16
    3fca:	14700793          	li	a5,327
    3fce:	00011523          	sh	zero,10(sp)
    3fd2:	00f11423          	sh	a5,8(sp)
    3fd6:	4789                	li	a5,2
    3fd8:	0028                	addi	a0,sp,8
    3fda:	00f10523          	sb	a5,10(sp)
    3fde:	4785                	li	a5,1
    3fe0:	c63e                	sw	a5,12(sp)
    3fe2:	3db040ef          	jal	ra,8bbc <NVIC_Init>
    3fe6:	0141                	addi	sp,sp,16
    3fe8:	c1efc06f          	j	406 <__riscv_restore_0>

00003fec <ch32_timer_init>:
    3fec:	bf6fc2ef          	jal	t0,3e2 <__riscv_save_0>
    3ff0:	1141                	addi	sp,sp,-16
    3ff2:	892a                	mv	s2,a0
    3ff4:	84ae                	mv	s1,a1
    3ff6:	02000513          	li	a0,32
    3ffa:	4585                	li	a1,1
    3ffc:	689040ef          	jal	ra,8e84 <RCC_APB1PeriphClockCmd>
    4000:	40001437          	lui	s0,0x40001
    4004:	004c                	addi	a1,sp,4
    4006:	40040513          	addi	a0,s0,1024 # 40001400 <_eusrstack+0x1fff1400>
    400a:	01211423          	sh	s2,8(sp)
    400e:	00911223          	sh	s1,4(sp)
    4012:	00011523          	sh	zero,10(sp)
    4016:	00011323          	sh	zero,6(sp)
    401a:	6c3040ef          	jal	ra,8edc <TIM_TimeBaseInit>
    401e:	40040513          	addi	a0,s0,1024
    4022:	4605                	li	a2,1
    4024:	4585                	li	a1,1
    4026:	7ad040ef          	jal	ra,8fd2 <TIM_ITConfig>
    402a:	4585                	li	a1,1
    402c:	40040513          	addi	a0,s0,1024
    4030:	7bd040ef          	jal	ra,8fec <TIM_ARRPreloadConfig>
    4034:	0141                	addi	sp,sp,16
    4036:	bd0fc06f          	j	406 <__riscv_restore_0>

0000403a <ch32_timer_irq_enable>:
    403a:	ba8fc2ef          	jal	t0,3e2 <__riscv_save_0>
    403e:	40001537          	lui	a0,0x40001
    4042:	40050513          	addi	a0,a0,1024 # 40001400 <_eusrstack+0x1fff1400>
    4046:	02051223          	sh	zero,36(a0)
    404a:	4585                	li	a1,1
    404c:	767040ef          	jal	ra,8fb2 <TIM_Cmd>
    4050:	bb6fc06f          	j	406 <__riscv_restore_0>

00004054 <rt_hw_user_timer_init>:
    4054:	b8efc2ef          	jal	t0,3e2 <__riscv_save_0>
    4058:	65b9                	lui	a1,0xe
    405a:	0000e537          	lui	a0,0xe
    405e:	4601                	li	a2,0
    4060:	03858593          	addi	a1,a1,56 # e038 <_ch32_timer_ops>
    4064:	05450513          	addi	a0,a0,84 # e054 <_ch32_timer_ops+0x1c>
    4068:	f60ff0ef          	jal	ra,37c8 <rt_device_timer_register>
    406c:	b9afc06f          	j	406 <__riscv_restore_0>

00004070 <TIM7_IRQHandler>:
    4070:	34011173          	csrrw	sp,mscratch,sp
    4074:	b7ffc0ef          	jal	ra,bf2 <rt_interrupt_enter>
    4078:	8ec1a503          	lw	a0,-1812(gp) # 20003414 <timer_irq_args>
    407c:	8e81a783          	lw	a5,-1816(gp) # 20003410 <timer_irq>
    4080:	9782                	jalr	a5
    4082:	ba3fc0ef          	jal	ra,c24 <rt_interrupt_leave>
    4086:	34011173          	csrrw	sp,mscratch,sp
    408a:	30200073          	mret

0000408e <ch32dma_transmit>:
    408e:	4501                	li	a0,0
    4090:	8082                	ret

00004092 <ch32_configure>:
    4092:	b50fc2ef          	jal	t0,3e2 <__riscv_save_0>
    4096:	4198                	lw	a4,0(a1)
    4098:	4120                	lw	s0,64(a0)
    409a:	41dc                	lw	a5,4(a1)
    409c:	46a1                	li	a3,8
    409e:	c018                	sw	a4,0(s0)
    40a0:	4731                	li	a4,12
    40a2:	00e41523          	sh	a4,10(s0)
    40a6:	00041623          	sh	zero,12(s0)
    40aa:	00f7f713          	andi	a4,a5,15
    40ae:	1141                	addi	sp,sp,-16
    40b0:	04d71363          	bne	a4,a3,40f6 <ch32_configure+0x64>
    40b4:	00041223          	sh	zero,4(s0)
    40b8:	0047d713          	srli	a4,a5,0x4
    40bc:	8b0d                	andi	a4,a4,3
    40be:	c701                	beqz	a4,40c6 <ch32_configure+0x34>
    40c0:	4685                	li	a3,1
    40c2:	04d70163          	beq	a4,a3,4104 <ch32_configure+0x72>
    40c6:	8399                	srli	a5,a5,0x6
    40c8:	00041323          	sh	zero,6(s0)
    40cc:	8b8d                	andi	a5,a5,3
    40ce:	4705                	li	a4,1
    40d0:	04e78263          	beq	a5,a4,4114 <ch32_configure+0x82>
    40d4:	c781                	beqz	a5,40dc <ch32_configure+0x4a>
    40d6:	4709                	li	a4,2
    40d8:	0ae78563          	beq	a5,a4,4182 <ch32_configure+0xf0>
    40dc:	00041423          	sh	zero,8(s0)
    40e0:	4818                	lw	a4,16(s0)
    40e2:	400147b7          	lui	a5,0x40014
    40e6:	80078793          	addi	a5,a5,-2048 # 40013800 <_eusrstack+0x20003800>
    40ea:	04f70063          	beq	a4,a5,412a <ch32_configure+0x98>
    40ee:	4501                	li	a0,0
    40f0:	0141                	addi	sp,sp,16
    40f2:	b14fc06f          	j	406 <__riscv_restore_0>
    40f6:	46a5                	li	a3,9
    40f8:	fad71ee3          	bne	a4,a3,40b4 <ch32_configure+0x22>
    40fc:	6705                	lui	a4,0x1
    40fe:	00e41223          	sh	a4,4(s0)
    4102:	bf5d                	j	40b8 <ch32_configure+0x26>
    4104:	6709                	lui	a4,0x2
    4106:	8399                	srli	a5,a5,0x6
    4108:	00e41323          	sh	a4,6(s0)
    410c:	8b8d                	andi	a5,a5,3
    410e:	4705                	li	a4,1
    4110:	fce792e3          	bne	a5,a4,40d4 <ch32_configure+0x42>
    4114:	60000793          	li	a5,1536
    4118:	4818                	lw	a4,16(s0)
    411a:	00f41423          	sh	a5,8(s0)
    411e:	400147b7          	lui	a5,0x40014
    4122:	80078793          	addi	a5,a5,-2048 # 40013800 <_eusrstack+0x20003800>
    4126:	fcf714e3          	bne	a4,a5,40ee <ch32_configure+0x5c>
    412a:	6511                	lui	a0,0x4
    412c:	4585                	li	a1,1
    412e:	0511                	addi	a0,a0,4
    4130:	537040ef          	jal	ra,8e66 <RCC_APB2PeriphClockCmd>
    4134:	40011937          	lui	s2,0x40011
    4138:	20000793          	li	a5,512
    413c:	448d                	li	s1,3
    413e:	004c                	addi	a1,sp,4
    4140:	80090513          	addi	a0,s2,-2048 # 40010800 <_eusrstack+0x20000800>
    4144:	00f11223          	sh	a5,4(sp)
    4148:	47e1                	li	a5,24
    414a:	c426                	sw	s1,8(sp)
    414c:	c63e                	sw	a5,12(sp)
    414e:	14f040ef          	jal	ra,8a9c <GPIO_Init>
    4152:	40000793          	li	a5,1024
    4156:	80090513          	addi	a0,s2,-2048
    415a:	004c                	addi	a1,sp,4
    415c:	00f11223          	sh	a5,4(sp)
    4160:	4791                	li	a5,4
    4162:	c63e                	sw	a5,12(sp)
    4164:	c426                	sw	s1,8(sp)
    4166:	137040ef          	jal	ra,8a9c <GPIO_Init>
    416a:	4808                	lw	a0,16(s0)
    416c:	85a2                	mv	a1,s0
    416e:	6af040ef          	jal	ra,901c <USART_Init>
    4172:	4808                	lw	a0,16(s0)
    4174:	4585                	li	a1,1
    4176:	7a9040ef          	jal	ra,911e <USART_Cmd>
    417a:	4501                	li	a0,0
    417c:	0141                	addi	sp,sp,16
    417e:	a88fc06f          	j	406 <__riscv_restore_0>
    4182:	40000793          	li	a5,1024
    4186:	00f41423          	sh	a5,8(s0)
    418a:	bf99                	j	40e0 <ch32_configure+0x4e>

0000418c <rt_hw_usart_init>:
    418c:	a3cfc2ef          	jal	t0,3c8 <__riscv_save_4>
    4190:	20005937          	lui	s2,0x20005
    4194:	9b490613          	addi	a2,s2,-1612 # 200049b4 <serial1>
    4198:	4678                	lw	a4,76(a2)
    419a:	c00007b7          	lui	a5,0xc0000
    419e:	66c1                	lui	a3,0x10
    41a0:	200054b7          	lui	s1,0x20005
    41a4:	8ff9                	and	a5,a5,a4
    41a6:	06a1                	addi	a3,a3,8
    41a8:	a0c48413          	addi	s0,s1,-1524 # 20004a0c <uart1>
    41ac:	8fd5                	or	a5,a5,a3
    41ae:	03500693          	li	a3,53
    41b2:	c854                	sw	a3,20(s0)
    41b4:	400146b7          	lui	a3,0x40014
    41b8:	80068693          	addi	a3,a3,-2048 # 40013800 <_eusrstack+0x20003800>
    41bc:	6771                	lui	a4,0x1c
    41be:	20070713          	addi	a4,a4,512 # 1c200 <__rt_init_end+0xa8c0>
    41c2:	c814                	sw	a3,16(s0)
    41c4:	6511                	lui	a0,0x4
    41c6:	66b9                	lui	a3,0xe
    41c8:	1141                	addi	sp,sp,-16
    41ca:	c638                	sw	a4,72(a2)
    41cc:	05c68693          	addi	a3,a3,92 # e05c <ch32_uart_ops>
    41d0:	c67c                	sw	a5,76(a2)
    41d2:	4585                	li	a1,1
    41d4:	000c07b7          	lui	a5,0xc0
    41d8:	0511                	addi	a0,a0,4
    41da:	c274                	sw	a3,68(a2)
    41dc:	c018                	sw	a4,0(s0)
    41de:	c41c                	sw	a5,8(s0)
    41e0:	00042223          	sw	zero,4(s0)
    41e4:	00041623          	sh	zero,12(s0)
    41e8:	47f040ef          	jal	ra,8e66 <RCC_APB2PeriphClockCmd>
    41ec:	40011a37          	lui	s4,0x40011
    41f0:	20000793          	li	a5,512
    41f4:	498d                	li	s3,3
    41f6:	004c                	addi	a1,sp,4
    41f8:	800a0513          	addi	a0,s4,-2048 # 40010800 <_eusrstack+0x20000800>
    41fc:	00f11223          	sh	a5,4(sp)
    4200:	47e1                	li	a5,24
    4202:	c44e                	sw	s3,8(sp)
    4204:	c63e                	sw	a5,12(sp)
    4206:	097040ef          	jal	ra,8a9c <GPIO_Init>
    420a:	40000793          	li	a5,1024
    420e:	004c                	addi	a1,sp,4
    4210:	800a0513          	addi	a0,s4,-2048
    4214:	00f11223          	sh	a5,4(sp)
    4218:	4791                	li	a5,4
    421a:	c63e                	sw	a5,12(sp)
    421c:	c44e                	sw	s3,8(sp)
    421e:	07f040ef          	jal	ra,8a9c <GPIO_Init>
    4222:	4808                	lw	a0,16(s0)
    4224:	a0c48593          	addi	a1,s1,-1524
    4228:	5f5040ef          	jal	ra,901c <USART_Init>
    422c:	4808                	lw	a0,16(s0)
    422e:	4585                	li	a1,1
    4230:	6ef040ef          	jal	ra,911e <USART_Cmd>
    4234:	0000e5b7          	lui	a1,0xe
    4238:	a0c48693          	addi	a3,s1,-1524
    423c:	10300613          	li	a2,259
    4240:	94458593          	addi	a1,a1,-1724 # d944 <__fsym_pinMode_name+0x8>
    4244:	9b490513          	addi	a0,s2,-1612
    4248:	b56ff0ef          	jal	ra,359e <rt_hw_serial_register>
    424c:	4501                	li	a0,0
    424e:	0141                	addi	sp,sp,16
    4250:	9acfc06f          	j	3fc <__riscv_restore_4>

00004254 <ch32_getc>:
    4254:	98efc2ef          	jal	t0,3e2 <__riscv_save_0>
    4258:	4120                	lw	s0,64(a0)
    425a:	02000593          	li	a1,32
    425e:	4808                	lw	a0,16(s0)
    4260:	725040ef          	jal	ra,9184 <USART_GetFlagStatus>
    4264:	c901                	beqz	a0,4274 <ch32_getc+0x20>
    4266:	481c                	lw	a5,16(s0)
    4268:	0047d503          	lhu	a0,4(a5) # c0004 <__rt_init_end+0xae6c4>
    426c:	0ff57513          	andi	a0,a0,255
    4270:	996fc06f          	j	406 <__riscv_restore_0>
    4274:	557d                	li	a0,-1
    4276:	bfed                	j	4270 <ch32_getc+0x1c>

00004278 <ch32_putc>:
    4278:	96afc2ef          	jal	t0,3e2 <__riscv_save_0>
    427c:	4120                	lw	s0,64(a0)
    427e:	84ae                	mv	s1,a1
    4280:	4808                	lw	a0,16(s0)
    4282:	04000593          	li	a1,64
    4286:	6ff040ef          	jal	ra,9184 <USART_GetFlagStatus>
    428a:	d97d                	beqz	a0,4280 <ch32_putc+0x8>
    428c:	481c                	lw	a5,16(s0)
    428e:	04c2                	slli	s1,s1,0x10
    4290:	80c1                	srli	s1,s1,0x10
    4292:	4505                	li	a0,1
    4294:	00979223          	sh	s1,4(a5)
    4298:	96efc06f          	j	406 <__riscv_restore_0>

0000429c <ch32_control>:
    429c:	946fc2ef          	jal	t0,3e2 <__riscv_save_0>
    42a0:	4741                	li	a4,16
    42a2:	413c                	lw	a5,64(a0)
    42a4:	02e58b63          	beq	a1,a4,42da <ch32_control+0x3e>
    42a8:	4745                	li	a4,17
    42aa:	02e59563          	bne	a1,a4,42d4 <ch32_control+0x38>
    42ae:	4bd0                	lw	a2,20(a5)
    42b0:	4b88                	lw	a0,16(a5)
    42b2:	4685                	li	a3,1
    42b4:	00565713          	srli	a4,a2,0x5
    42b8:	06070713          	addi	a4,a4,96
    42bc:	070a                	slli	a4,a4,0x2
    42be:	e000e7b7          	lui	a5,0xe000e
    42c2:	00c696b3          	sll	a3,a3,a2
    42c6:	973e                	add	a4,a4,a5
    42c8:	c314                	sw	a3,0(a4)
    42ca:	4601                	li	a2,0
    42cc:	52500593          	li	a1,1317
    42d0:	66f040ef          	jal	ra,913e <USART_ITConfig>
    42d4:	4501                	li	a0,0
    42d6:	930fc06f          	j	406 <__riscv_restore_0>
    42da:	4bd0                	lw	a2,20(a5)
    42dc:	4b88                	lw	a0,16(a5)
    42de:	4685                	li	a3,1
    42e0:	00565713          	srli	a4,a2,0x5
    42e4:	04070713          	addi	a4,a4,64
    42e8:	e000e7b7          	lui	a5,0xe000e
    42ec:	070a                	slli	a4,a4,0x2
    42ee:	00c696b3          	sll	a3,a3,a2
    42f2:	973e                	add	a4,a4,a5
    42f4:	c314                	sw	a3,0(a4)
    42f6:	4605                	li	a2,1
    42f8:	52500593          	li	a1,1317
    42fc:	643040ef          	jal	ra,913e <USART_ITConfig>
    4300:	4501                	li	a0,0
    4302:	904fc06f          	j	406 <__riscv_restore_0>

00004306 <USART1_IRQHandler>:
    4306:	1141                	addi	sp,sp,-16
    4308:	c622                	sw	s0,12(sp)
    430a:	c426                	sw	s1,8(sp)
    430c:	34011173          	csrrw	sp,mscratch,sp
    4310:	200054b7          	lui	s1,0x20005
    4314:	8dffc0ef          	jal	ra,bf2 <rt_interrupt_enter>
    4318:	9b448793          	addi	a5,s1,-1612 # 200049b4 <serial1>
    431c:	43a0                	lw	s0,64(a5)
    431e:	52500593          	li	a1,1317
    4322:	4808                	lw	a0,16(s0)
    4324:	66d040ef          	jal	ra,9190 <USART_GetITStatus>
    4328:	e911                	bnez	a0,433c <USART1_IRQHandler+0x36>
    432a:	8fbfc0ef          	jal	ra,c24 <rt_interrupt_leave>
    432e:	34011173          	csrrw	sp,mscratch,sp
    4332:	4432                	lw	s0,12(sp)
    4334:	44a2                	lw	s1,8(sp)
    4336:	0141                	addi	sp,sp,16
    4338:	30200073          	mret
    433c:	9b448513          	addi	a0,s1,-1612
    4340:	4585                	li	a1,1
    4342:	ab6ff0ef          	jal	ra,35f8 <rt_hw_serial_isr>
    4346:	4808                	lw	a0,16(s0)
    4348:	52500593          	li	a1,1317
    434c:	68d040ef          	jal	ra,91d8 <USART_ClearITPendingBit>
    4350:	8d5fc0ef          	jal	ra,c24 <rt_interrupt_leave>
    4354:	34011173          	csrrw	sp,mscratch,sp
    4358:	4432                	lw	s0,12(sp)
    435a:	44a2                	lw	s1,8(sp)
    435c:	0141                	addi	sp,sp,16
    435e:	30200073          	mret

00004362 <DrawCurve>:
    4362:	858fc2ef          	jal	t0,3ba <__riscv_save_10>
    4366:	18058863          	beqz	a1,44f6 <DrawCurve+0x194>
    436a:	fff58693          	addi	a3,a1,-1
    436e:	06c2                	slli	a3,a3,0x10
    4370:	82c1                	srli	a3,a3,0x10
    4372:	00250793          	addi	a5,a0,2 # 4002 <ch32_timer_init+0x16>
    4376:	0686                	slli	a3,a3,0x1
    4378:	96be                	add	a3,a3,a5
    437a:	892e                	mv	s2,a1
    437c:	842a                	mv	s0,a0
    437e:	87aa                	mv	a5,a0
    4380:	4701                	li	a4,0
    4382:	0007d483          	lhu	s1,0(a5) # e000e000 <_eusrstack+0xbfffe000>
    4386:	0789                	addi	a5,a5,2
    4388:	00e4f363          	bgeu	s1,a4,438e <DrawCurve+0x2c>
    438c:	84ba                	mv	s1,a4
    438e:	8726                	mv	a4,s1
    4390:	fef699e3          	bne	a3,a5,4382 <DrawCurve+0x20>
    4394:	4501                	li	a0,0
    4396:	0f1010ef          	jal	ra,5c86 <lcd_clear>
    439a:	04f00793          	li	a5,79
    439e:	0b27ec63          	bltu	a5,s2,4456 <DrawCurve+0xf4>
    43a2:	4785                	li	a5,1
    43a4:	08f90d63          	beq	s2,a5,443e <DrawCurve+0xdc>
    43a8:	8526                	mv	a0,s1
    43aa:	3f5060ef          	jal	ra,af9e <__floatunsisf>
    43ae:	0000e737          	lui	a4,0xe
    43b2:	0000e7b7          	lui	a5,0xe
    43b6:	17472b83          	lw	s7,372(a4) # e174 <ch32_uart_ops+0x118>
    43ba:	1787ab03          	lw	s6,376(a5) # e178 <ch32_uart_ops+0x11c>
    43be:	00191a93          	slli	s5,s2,0x1
    43c2:	9aca                	add	s5,s5,s2
    43c4:	0ac2                	slli	s5,s5,0x10
    43c6:	89aa                	mv	s3,a0
    43c8:	010ada93          	srli	s5,s5,0x10
    43cc:	448d                	li	s1,3
    43ce:	8cde                	mv	s9,s7
    43d0:	8c5a                	mv	s8,s6
    43d2:	00245503          	lhu	a0,2(s0)
    43d6:	0409                	addi	s0,s0,2
    43d8:	3c7060ef          	jal	ra,af9e <__floatunsisf>
    43dc:	85ce                	mv	a1,s3
    43de:	216060ef          	jal	ra,a5f4 <__divsf3>
    43e2:	85de                	mv	a1,s7
    43e4:	548060ef          	jal	ra,a92c <__mulsf3>
    43e8:	85aa                	mv	a1,a0
    43ea:	855a                	mv	a0,s6
    43ec:	7d4060ef          	jal	ra,abc0 <__subsf3>
    43f0:	359060ef          	jal	ra,af48 <__fixunssfsi>
    43f4:	01051a13          	slli	s4,a0,0x10
    43f8:	ffe45503          	lhu	a0,-2(s0)
    43fc:	010a5a13          	srli	s4,s4,0x10
    4400:	39f060ef          	jal	ra,af9e <__floatunsisf>
    4404:	85ce                	mv	a1,s3
    4406:	1ee060ef          	jal	ra,a5f4 <__divsf3>
    440a:	85e6                	mv	a1,s9
    440c:	520060ef          	jal	ra,a92c <__mulsf3>
    4410:	85aa                	mv	a1,a0
    4412:	8562                	mv	a0,s8
    4414:	7ac060ef          	jal	ra,abc0 <__subsf3>
    4418:	331060ef          	jal	ra,af48 <__fixunssfsi>
    441c:	ffd48793          	addi	a5,s1,-3
    4420:	8626                	mv	a2,s1
    4422:	048d                	addi	s1,s1,3
    4424:	01051593          	slli	a1,a0,0x10
    4428:	04c2                	slli	s1,s1,0x10
    442a:	01079513          	slli	a0,a5,0x10
    442e:	81c1                	srli	a1,a1,0x10
    4430:	86d2                	mv	a3,s4
    4432:	8141                	srli	a0,a0,0x10
    4434:	80c1                	srli	s1,s1,0x10
    4436:	339010ef          	jal	ra,5f6e <lcd_draw_line>
    443a:	f89a9ce3          	bne	s5,s1,43d2 <DrawCurve+0x70>
    443e:	0000e6b7          	lui	a3,0xe
    4442:	874a                	mv	a4,s2
    4444:	17c68693          	addi	a3,a3,380 # e17c <ch32_uart_ops+0x120>
    4448:	4641                	li	a2,16
    444a:	4581                	li	a1,0
    444c:	4501                	li	a0,0
    444e:	35e020ef          	jal	ra,67ac <lcd_show_string>
    4452:	fa1fb06f          	j	3f2 <__riscv_restore_10>
    4456:	8526                	mv	a0,s1
    4458:	347060ef          	jal	ra,af9e <__floatunsisf>
    445c:	09f00793          	li	a5,159
    4460:	89aa                	mv	s3,a0
    4462:	0000e737          	lui	a4,0xe
    4466:	0b27e863          	bltu	a5,s2,4516 <DrawCurve+0x1b4>
    446a:	6aa1                	lui	s5,0x8
    446c:	0000e7b7          	lui	a5,0xe
    4470:	1afd                	addi	s5,s5,-1
    4472:	17472b83          	lw	s7,372(a4) # e174 <ch32_uart_ops+0x118>
    4476:	1787ab03          	lw	s6,376(a5) # e178 <ch32_uart_ops+0x11c>
    447a:	9aca                	add	s5,s5,s2
    447c:	0a86                	slli	s5,s5,0x1
    447e:	0ac2                	slli	s5,s5,0x10
    4480:	010ada93          	srli	s5,s5,0x10
    4484:	4481                	li	s1,0
    4486:	8d5e                	mv	s10,s7
    4488:	8cda                	mv	s9,s6
    448a:	00245503          	lhu	a0,2(s0)
    448e:	00248a13          	addi	s4,s1,2
    4492:	0a42                	slli	s4,s4,0x10
    4494:	30b060ef          	jal	ra,af9e <__floatunsisf>
    4498:	85ce                	mv	a1,s3
    449a:	15a060ef          	jal	ra,a5f4 <__divsf3>
    449e:	85de                	mv	a1,s7
    44a0:	48c060ef          	jal	ra,a92c <__mulsf3>
    44a4:	85aa                	mv	a1,a0
    44a6:	855a                	mv	a0,s6
    44a8:	718060ef          	jal	ra,abc0 <__subsf3>
    44ac:	29d060ef          	jal	ra,af48 <__fixunssfsi>
    44b0:	01051c13          	slli	s8,a0,0x10
    44b4:	00045503          	lhu	a0,0(s0)
    44b8:	010a5a13          	srli	s4,s4,0x10
    44bc:	010c5c13          	srli	s8,s8,0x10
    44c0:	2df060ef          	jal	ra,af9e <__floatunsisf>
    44c4:	85ce                	mv	a1,s3
    44c6:	12e060ef          	jal	ra,a5f4 <__divsf3>
    44ca:	85ea                	mv	a1,s10
    44cc:	460060ef          	jal	ra,a92c <__mulsf3>
    44d0:	85aa                	mv	a1,a0
    44d2:	8566                	mv	a0,s9
    44d4:	6ec060ef          	jal	ra,abc0 <__subsf3>
    44d8:	271060ef          	jal	ra,af48 <__fixunssfsi>
    44dc:	01051593          	slli	a1,a0,0x10
    44e0:	86e2                	mv	a3,s8
    44e2:	8526                	mv	a0,s1
    44e4:	8652                	mv	a2,s4
    44e6:	81c1                	srli	a1,a1,0x10
    44e8:	0409                	addi	s0,s0,2
    44ea:	84d2                	mv	s1,s4
    44ec:	283010ef          	jal	ra,5f6e <lcd_draw_line>
    44f0:	f95a1de3          	bne	s4,s5,448a <DrawCurve+0x128>
    44f4:	b7a9                	j	443e <DrawCurve+0xdc>
    44f6:	4501                	li	a0,0
    44f8:	78e010ef          	jal	ra,5c86 <lcd_clear>
    44fc:	0000e6b7          	lui	a3,0xe
    4500:	19068693          	addi	a3,a3,400 # e190 <ch32_uart_ops+0x134>
    4504:	4661                	li	a2,24
    4506:	05000593          	li	a1,80
    450a:	02800513          	li	a0,40
    450e:	29e020ef          	jal	ra,67ac <lcd_show_string>
    4512:	ee1fb06f          	j	3f2 <__riscv_restore_10>
    4516:	0000e7b7          	lui	a5,0xe
    451a:	17472b03          	lw	s6,372(a4)
    451e:	1787aa83          	lw	s5,376(a5) # e178 <ch32_uart_ops+0x11c>
    4522:	4485                	li	s1,1
    4524:	8c5a                	mv	s8,s6
    4526:	8bd6                	mv	s7,s5
    4528:	00245503          	lhu	a0,2(s0)
    452c:	0409                	addi	s0,s0,2
    452e:	271060ef          	jal	ra,af9e <__floatunsisf>
    4532:	85ce                	mv	a1,s3
    4534:	0c0060ef          	jal	ra,a5f4 <__divsf3>
    4538:	85da                	mv	a1,s6
    453a:	3f2060ef          	jal	ra,a92c <__mulsf3>
    453e:	85aa                	mv	a1,a0
    4540:	8556                	mv	a0,s5
    4542:	67e060ef          	jal	ra,abc0 <__subsf3>
    4546:	203060ef          	jal	ra,af48 <__fixunssfsi>
    454a:	01051a13          	slli	s4,a0,0x10
    454e:	ffe45503          	lhu	a0,-2(s0)
    4552:	010a5a13          	srli	s4,s4,0x10
    4556:	249060ef          	jal	ra,af9e <__floatunsisf>
    455a:	85ce                	mv	a1,s3
    455c:	098060ef          	jal	ra,a5f4 <__divsf3>
    4560:	85e2                	mv	a1,s8
    4562:	3ca060ef          	jal	ra,a92c <__mulsf3>
    4566:	85aa                	mv	a1,a0
    4568:	855e                	mv	a0,s7
    456a:	656060ef          	jal	ra,abc0 <__subsf3>
    456e:	1db060ef          	jal	ra,af48 <__fixunssfsi>
    4572:	fff48793          	addi	a5,s1,-1
    4576:	8626                	mv	a2,s1
    4578:	0485                	addi	s1,s1,1
    457a:	01051593          	slli	a1,a0,0x10
    457e:	04c2                	slli	s1,s1,0x10
    4580:	01079513          	slli	a0,a5,0x10
    4584:	81c1                	srli	a1,a1,0x10
    4586:	86d2                	mv	a3,s4
    4588:	8141                	srli	a0,a0,0x10
    458a:	80c1                	srli	s1,s1,0x10
    458c:	1e3010ef          	jal	ra,5f6e <lcd_draw_line>
    4590:	f8991ce3          	bne	s2,s1,4528 <DrawCurve+0x1c6>
    4594:	b56d                	j	443e <DrawCurve+0xdc>

00004596 <DrawMenu>:
    4596:	e4dfb2ef          	jal	t0,3e2 <__riscv_save_0>
    459a:	0512                	slli	a0,a0,0x4
    459c:	95aa                	add	a1,a1,a0
    459e:	4501                	li	a0,0
    45a0:	0ff5f413          	andi	s0,a1,255
    45a4:	6e2010ef          	jal	ra,5c86 <lcd_clear>
    45a8:	ff040593          	addi	a1,s0,-16
    45ac:	0ff5f593          	andi	a1,a1,255
    45b0:	04000793          	li	a5,64
    45b4:	04b7e163          	bltu	a5,a1,45f6 <DrawMenu+0x60>
    45b8:	67b9                	lui	a5,0xe
    45ba:	07078793          	addi	a5,a5,112 # e070 <ch32_uart_ops+0x14>
    45be:	058a                	slli	a1,a1,0x2
    45c0:	95be                	add	a1,a1,a5
    45c2:	419c                	lw	a5,0(a1)
    45c4:	8782                	jr	a5
    45c6:	0000e6b7          	lui	a3,0xe
    45ca:	28c68693          	addi	a3,a3,652 # e28c <ch32_uart_ops+0x230>
    45ce:	4661                	li	a2,24
    45d0:	05000593          	li	a1,80
    45d4:	4551                	li	a0,20
    45d6:	1d6020ef          	jal	ra,67ac <lcd_show_string>
    45da:	9161c703          	lbu	a4,-1770(gp) # 2000343e <TemplateWanted>
    45de:	0000e6b7          	lui	a3,0xe
    45e2:	24068693          	addi	a3,a3,576 # e240 <ch32_uart_ops+0x1e4>
    45e6:	02000613          	li	a2,32
    45ea:	0a000593          	li	a1,160
    45ee:	06400513          	li	a0,100
    45f2:	1ba020ef          	jal	ra,67ac <lcd_show_string>
    45f6:	e11fb06f          	j	406 <__riscv_restore_0>
    45fa:	0000e6b7          	lui	a3,0xe
    45fe:	1a468693          	addi	a3,a3,420 # e1a4 <ch32_uart_ops+0x148>
    4602:	02000613          	li	a2,32
    4606:	45d1                	li	a1,20
    4608:	03200513          	li	a0,50
    460c:	1a0020ef          	jal	ra,67ac <lcd_show_string>
    4610:	0000e6b7          	lui	a3,0xe
    4614:	1b068693          	addi	a3,a3,432 # e1b0 <ch32_uart_ops+0x154>
    4618:	4641                	li	a2,16
    461a:	03c00593          	li	a1,60
    461e:	05000513          	li	a0,80
    4622:	18a020ef          	jal	ra,67ac <lcd_show_string>
    4626:	0000e6b7          	lui	a3,0xe
    462a:	1c068693          	addi	a3,a3,448 # e1c0 <ch32_uart_ops+0x164>
    462e:	4641                	li	a2,16
    4630:	06400593          	li	a1,100
    4634:	05000513          	li	a0,80
    4638:	174020ef          	jal	ra,67ac <lcd_show_string>
    463c:	0000e6b7          	lui	a3,0xe
    4640:	1d468693          	addi	a3,a3,468 # e1d4 <ch32_uart_ops+0x178>
    4644:	4641                	li	a2,16
    4646:	08c00593          	li	a1,140
    464a:	05000513          	li	a0,80
    464e:	15e020ef          	jal	ra,67ac <lcd_show_string>
    4652:	0000e6b7          	lui	a3,0xe
    4656:	1e068693          	addi	a3,a3,480 # e1e0 <ch32_uart_ops+0x184>
    465a:	4641                	li	a2,16
    465c:	0b400593          	li	a1,180
    4660:	05000513          	li	a0,80
    4664:	148020ef          	jal	ra,67ac <lcd_show_string>
    4668:	0000e6b7          	lui	a3,0xe
    466c:	4641                	li	a2,16
    466e:	0dc00593          	li	a1,220
    4672:	05000513          	li	a0,80
    4676:	1f068693          	addi	a3,a3,496 # e1f0 <ch32_uart_ops+0x194>
    467a:	132020ef          	jal	ra,67ac <lcd_show_string>
    467e:	4621                	li	a2,8
    4680:	0e400593          	li	a1,228
    4684:	02d00513          	li	a0,45
    4688:	2ab010ef          	jal	ra,6132 <lcd_draw_circle>
    468c:	b7ad                	j	45f6 <DrawMenu+0x60>
    468e:	0000e6b7          	lui	a3,0xe
    4692:	1a468693          	addi	a3,a3,420 # e1a4 <ch32_uart_ops+0x148>
    4696:	02000613          	li	a2,32
    469a:	45d1                	li	a1,20
    469c:	03200513          	li	a0,50
    46a0:	10c020ef          	jal	ra,67ac <lcd_show_string>
    46a4:	0000e6b7          	lui	a3,0xe
    46a8:	1b068693          	addi	a3,a3,432 # e1b0 <ch32_uart_ops+0x154>
    46ac:	4641                	li	a2,16
    46ae:	03c00593          	li	a1,60
    46b2:	05000513          	li	a0,80
    46b6:	0f6020ef          	jal	ra,67ac <lcd_show_string>
    46ba:	0000e6b7          	lui	a3,0xe
    46be:	1c068693          	addi	a3,a3,448 # e1c0 <ch32_uart_ops+0x164>
    46c2:	4641                	li	a2,16
    46c4:	06400593          	li	a1,100
    46c8:	05000513          	li	a0,80
    46cc:	0e0020ef          	jal	ra,67ac <lcd_show_string>
    46d0:	0000e6b7          	lui	a3,0xe
    46d4:	1d468693          	addi	a3,a3,468 # e1d4 <ch32_uart_ops+0x178>
    46d8:	4641                	li	a2,16
    46da:	08c00593          	li	a1,140
    46de:	05000513          	li	a0,80
    46e2:	0ca020ef          	jal	ra,67ac <lcd_show_string>
    46e6:	0000e6b7          	lui	a3,0xe
    46ea:	1e068693          	addi	a3,a3,480 # e1e0 <ch32_uart_ops+0x184>
    46ee:	4641                	li	a2,16
    46f0:	0b400593          	li	a1,180
    46f4:	05000513          	li	a0,80
    46f8:	0b4020ef          	jal	ra,67ac <lcd_show_string>
    46fc:	0000e6b7          	lui	a3,0xe
    4700:	1f068693          	addi	a3,a3,496 # e1f0 <ch32_uart_ops+0x194>
    4704:	4641                	li	a2,16
    4706:	0dc00593          	li	a1,220
    470a:	05000513          	li	a0,80
    470e:	09e020ef          	jal	ra,67ac <lcd_show_string>
    4712:	4621                	li	a2,8
    4714:	0bc00593          	li	a1,188
    4718:	02d00513          	li	a0,45
    471c:	217010ef          	jal	ra,6132 <lcd_draw_circle>
    4720:	bdd9                	j	45f6 <DrawMenu+0x60>
    4722:	0000e6b7          	lui	a3,0xe
    4726:	1d468693          	addi	a3,a3,468 # e1d4 <ch32_uart_ops+0x178>
    472a:	02000613          	li	a2,32
    472e:	45d1                	li	a1,20
    4730:	03200513          	li	a0,50
    4734:	078020ef          	jal	ra,67ac <lcd_show_string>
    4738:	0000e6b7          	lui	a3,0xe
    473c:	25c68693          	addi	a3,a3,604 # e25c <ch32_uart_ops+0x200>
    4740:	4641                	li	a2,16
    4742:	05000593          	li	a1,80
    4746:	05000513          	li	a0,80
    474a:	062020ef          	jal	ra,67ac <lcd_show_string>
    474e:	0000e6b7          	lui	a3,0xe
    4752:	26868693          	addi	a3,a3,616 # e268 <ch32_uart_ops+0x20c>
    4756:	4641                	li	a2,16
    4758:	07800593          	li	a1,120
    475c:	05000513          	li	a0,80
    4760:	04c020ef          	jal	ra,67ac <lcd_show_string>
    4764:	0000e6b7          	lui	a3,0xe
    4768:	27468693          	addi	a3,a3,628 # e274 <ch32_uart_ops+0x218>
    476c:	4641                	li	a2,16
    476e:	0a000593          	li	a1,160
    4772:	05000513          	li	a0,80
    4776:	036020ef          	jal	ra,67ac <lcd_show_string>
    477a:	0000e6b7          	lui	a3,0xe
    477e:	28068693          	addi	a3,a3,640 # e280 <ch32_uart_ops+0x224>
    4782:	4641                	li	a2,16
    4784:	0c800593          	li	a1,200
    4788:	05000513          	li	a0,80
    478c:	020020ef          	jal	ra,67ac <lcd_show_string>
    4790:	4621                	li	a2,8
    4792:	0d000593          	li	a1,208
    4796:	02d00513          	li	a0,45
    479a:	199010ef          	jal	ra,6132 <lcd_draw_circle>
    479e:	c69fb06f          	j	406 <__riscv_restore_0>
    47a2:	0000e6b7          	lui	a3,0xe
    47a6:	1d468693          	addi	a3,a3,468 # e1d4 <ch32_uart_ops+0x178>
    47aa:	02000613          	li	a2,32
    47ae:	45d1                	li	a1,20
    47b0:	03200513          	li	a0,50
    47b4:	7f9010ef          	jal	ra,67ac <lcd_show_string>
    47b8:	0000e6b7          	lui	a3,0xe
    47bc:	25c68693          	addi	a3,a3,604 # e25c <ch32_uart_ops+0x200>
    47c0:	4641                	li	a2,16
    47c2:	05000593          	li	a1,80
    47c6:	05000513          	li	a0,80
    47ca:	7e3010ef          	jal	ra,67ac <lcd_show_string>
    47ce:	0000e6b7          	lui	a3,0xe
    47d2:	26868693          	addi	a3,a3,616 # e268 <ch32_uart_ops+0x20c>
    47d6:	4641                	li	a2,16
    47d8:	07800593          	li	a1,120
    47dc:	05000513          	li	a0,80
    47e0:	7cd010ef          	jal	ra,67ac <lcd_show_string>
    47e4:	0000e6b7          	lui	a3,0xe
    47e8:	27468693          	addi	a3,a3,628 # e274 <ch32_uart_ops+0x218>
    47ec:	4641                	li	a2,16
    47ee:	0a000593          	li	a1,160
    47f2:	05000513          	li	a0,80
    47f6:	7b7010ef          	jal	ra,67ac <lcd_show_string>
    47fa:	0000e6b7          	lui	a3,0xe
    47fe:	28068693          	addi	a3,a3,640 # e280 <ch32_uart_ops+0x224>
    4802:	4641                	li	a2,16
    4804:	0c800593          	li	a1,200
    4808:	05000513          	li	a0,80
    480c:	7a1010ef          	jal	ra,67ac <lcd_show_string>
    4810:	4621                	li	a2,8
    4812:	0a800593          	li	a1,168
    4816:	02d00513          	li	a0,45
    481a:	119010ef          	jal	ra,6132 <lcd_draw_circle>
    481e:	be9fb06f          	j	406 <__riscv_restore_0>
    4822:	0000e6b7          	lui	a3,0xe
    4826:	1d468693          	addi	a3,a3,468 # e1d4 <ch32_uart_ops+0x178>
    482a:	02000613          	li	a2,32
    482e:	45d1                	li	a1,20
    4830:	03200513          	li	a0,50
    4834:	779010ef          	jal	ra,67ac <lcd_show_string>
    4838:	0000e6b7          	lui	a3,0xe
    483c:	25c68693          	addi	a3,a3,604 # e25c <ch32_uart_ops+0x200>
    4840:	4641                	li	a2,16
    4842:	05000593          	li	a1,80
    4846:	05000513          	li	a0,80
    484a:	763010ef          	jal	ra,67ac <lcd_show_string>
    484e:	0000e6b7          	lui	a3,0xe
    4852:	26868693          	addi	a3,a3,616 # e268 <ch32_uart_ops+0x20c>
    4856:	4641                	li	a2,16
    4858:	07800593          	li	a1,120
    485c:	05000513          	li	a0,80
    4860:	74d010ef          	jal	ra,67ac <lcd_show_string>
    4864:	0000e6b7          	lui	a3,0xe
    4868:	27468693          	addi	a3,a3,628 # e274 <ch32_uart_ops+0x218>
    486c:	4641                	li	a2,16
    486e:	0a000593          	li	a1,160
    4872:	05000513          	li	a0,80
    4876:	737010ef          	jal	ra,67ac <lcd_show_string>
    487a:	0000e6b7          	lui	a3,0xe
    487e:	28068693          	addi	a3,a3,640 # e280 <ch32_uart_ops+0x224>
    4882:	4641                	li	a2,16
    4884:	0c800593          	li	a1,200
    4888:	05000513          	li	a0,80
    488c:	721010ef          	jal	ra,67ac <lcd_show_string>
    4890:	4621                	li	a2,8
    4892:	08000593          	li	a1,128
    4896:	02d00513          	li	a0,45
    489a:	099010ef          	jal	ra,6132 <lcd_draw_circle>
    489e:	b69fb06f          	j	406 <__riscv_restore_0>
    48a2:	0000e6b7          	lui	a3,0xe
    48a6:	1d468693          	addi	a3,a3,468 # e1d4 <ch32_uart_ops+0x178>
    48aa:	02000613          	li	a2,32
    48ae:	45d1                	li	a1,20
    48b0:	03200513          	li	a0,50
    48b4:	6f9010ef          	jal	ra,67ac <lcd_show_string>
    48b8:	0000e6b7          	lui	a3,0xe
    48bc:	25c68693          	addi	a3,a3,604 # e25c <ch32_uart_ops+0x200>
    48c0:	4641                	li	a2,16
    48c2:	05000593          	li	a1,80
    48c6:	05000513          	li	a0,80
    48ca:	6e3010ef          	jal	ra,67ac <lcd_show_string>
    48ce:	0000e6b7          	lui	a3,0xe
    48d2:	26868693          	addi	a3,a3,616 # e268 <ch32_uart_ops+0x20c>
    48d6:	4641                	li	a2,16
    48d8:	07800593          	li	a1,120
    48dc:	05000513          	li	a0,80
    48e0:	6cd010ef          	jal	ra,67ac <lcd_show_string>
    48e4:	0000e6b7          	lui	a3,0xe
    48e8:	27468693          	addi	a3,a3,628 # e274 <ch32_uart_ops+0x218>
    48ec:	4641                	li	a2,16
    48ee:	0a000593          	li	a1,160
    48f2:	05000513          	li	a0,80
    48f6:	6b7010ef          	jal	ra,67ac <lcd_show_string>
    48fa:	0000e6b7          	lui	a3,0xe
    48fe:	28068693          	addi	a3,a3,640 # e280 <ch32_uart_ops+0x224>
    4902:	4641                	li	a2,16
    4904:	0c800593          	li	a1,200
    4908:	05000513          	li	a0,80
    490c:	6a1010ef          	jal	ra,67ac <lcd_show_string>
    4910:	4621                	li	a2,8
    4912:	05800593          	li	a1,88
    4916:	02d00513          	li	a0,45
    491a:	019010ef          	jal	ra,6132 <lcd_draw_circle>
    491e:	ae9fb06f          	j	406 <__riscv_restore_0>
    4922:	0000e6b7          	lui	a3,0xe
    4926:	1a468693          	addi	a3,a3,420 # e1a4 <ch32_uart_ops+0x148>
    492a:	02000613          	li	a2,32
    492e:	45d1                	li	a1,20
    4930:	03200513          	li	a0,50
    4934:	679010ef          	jal	ra,67ac <lcd_show_string>
    4938:	0000e6b7          	lui	a3,0xe
    493c:	1b068693          	addi	a3,a3,432 # e1b0 <ch32_uart_ops+0x154>
    4940:	4641                	li	a2,16
    4942:	03c00593          	li	a1,60
    4946:	05000513          	li	a0,80
    494a:	663010ef          	jal	ra,67ac <lcd_show_string>
    494e:	0000e6b7          	lui	a3,0xe
    4952:	1c068693          	addi	a3,a3,448 # e1c0 <ch32_uart_ops+0x164>
    4956:	4641                	li	a2,16
    4958:	06400593          	li	a1,100
    495c:	05000513          	li	a0,80
    4960:	64d010ef          	jal	ra,67ac <lcd_show_string>
    4964:	0000e6b7          	lui	a3,0xe
    4968:	1d468693          	addi	a3,a3,468 # e1d4 <ch32_uart_ops+0x178>
    496c:	4641                	li	a2,16
    496e:	08c00593          	li	a1,140
    4972:	05000513          	li	a0,80
    4976:	637010ef          	jal	ra,67ac <lcd_show_string>
    497a:	0000e6b7          	lui	a3,0xe
    497e:	1e068693          	addi	a3,a3,480 # e1e0 <ch32_uart_ops+0x184>
    4982:	4641                	li	a2,16
    4984:	0b400593          	li	a1,180
    4988:	05000513          	li	a0,80
    498c:	621010ef          	jal	ra,67ac <lcd_show_string>
    4990:	0000e6b7          	lui	a3,0xe
    4994:	1f068693          	addi	a3,a3,496 # e1f0 <ch32_uart_ops+0x194>
    4998:	4641                	li	a2,16
    499a:	0dc00593          	li	a1,220
    499e:	05000513          	li	a0,80
    49a2:	60b010ef          	jal	ra,67ac <lcd_show_string>
    49a6:	4621                	li	a2,8
    49a8:	09400593          	li	a1,148
    49ac:	02d00513          	li	a0,45
    49b0:	782010ef          	jal	ra,6132 <lcd_draw_circle>
    49b4:	b189                	j	45f6 <DrawMenu+0x60>
    49b6:	0000e6b7          	lui	a3,0xe
    49ba:	24468693          	addi	a3,a3,580 # e244 <ch32_uart_ops+0x1e8>
    49be:	b3b5                	j	472a <DrawMenu+0x194>
    49c0:	0000e6b7          	lui	a3,0xe
    49c4:	24468693          	addi	a3,a3,580 # e244 <ch32_uart_ops+0x1e8>
    49c8:	b3cd                	j	47aa <DrawMenu+0x214>
    49ca:	0000e6b7          	lui	a3,0xe
    49ce:	24468693          	addi	a3,a3,580 # e244 <ch32_uart_ops+0x1e8>
    49d2:	bda1                	j	482a <DrawMenu+0x294>
    49d4:	0000e6b7          	lui	a3,0xe
    49d8:	24468693          	addi	a3,a3,580 # e244 <ch32_uart_ops+0x1e8>
    49dc:	b5f9                	j	48aa <DrawMenu+0x314>
    49de:	0000e6b7          	lui	a3,0xe
    49e2:	25068693          	addi	a3,a3,592 # e250 <ch32_uart_ops+0x1f4>
    49e6:	b391                	j	472a <DrawMenu+0x194>
    49e8:	0000e6b7          	lui	a3,0xe
    49ec:	25068693          	addi	a3,a3,592 # e250 <ch32_uart_ops+0x1f4>
    49f0:	bb6d                	j	47aa <DrawMenu+0x214>
    49f2:	0000e6b7          	lui	a3,0xe
    49f6:	25068693          	addi	a3,a3,592 # e250 <ch32_uart_ops+0x1f4>
    49fa:	bd05                	j	482a <DrawMenu+0x294>
    49fc:	0000e6b7          	lui	a3,0xe
    4a00:	25068693          	addi	a3,a3,592 # e250 <ch32_uart_ops+0x1f4>
    4a04:	b55d                	j	48aa <DrawMenu+0x314>
    4a06:	000116b7          	lui	a3,0x11
    4a0a:	46868693          	addi	a3,a3,1128 # 11468 <asc2_3216+0x198c>
    4a0e:	02000613          	li	a2,32
    4a12:	45d1                	li	a1,20
    4a14:	03200513          	li	a0,50
    4a18:	595010ef          	jal	ra,67ac <lcd_show_string>
    4a1c:	0000e6b7          	lui	a3,0xe
    4a20:	24468693          	addi	a3,a3,580 # e244 <ch32_uart_ops+0x1e8>
    4a24:	4641                	li	a2,16
    4a26:	05600593          	li	a1,86
    4a2a:	05000513          	li	a0,80
    4a2e:	57f010ef          	jal	ra,67ac <lcd_show_string>
    4a32:	0000e6b7          	lui	a3,0xe
    4a36:	25068693          	addi	a3,a3,592 # e250 <ch32_uart_ops+0x1f4>
    4a3a:	4641                	li	a2,16
    4a3c:	09800593          	li	a1,152
    4a40:	05000513          	li	a0,80
    4a44:	569010ef          	jal	ra,67ac <lcd_show_string>
    4a48:	4621                	li	a2,8
    4a4a:	0a000593          	li	a1,160
    4a4e:	02d00513          	li	a0,45
    4a52:	6e0010ef          	jal	ra,6132 <lcd_draw_circle>
    4a56:	b645                	j	45f6 <DrawMenu+0x60>
    4a58:	000116b7          	lui	a3,0x11
    4a5c:	46868693          	addi	a3,a3,1128 # 11468 <asc2_3216+0x198c>
    4a60:	02000613          	li	a2,32
    4a64:	45d1                	li	a1,20
    4a66:	03200513          	li	a0,50
    4a6a:	543010ef          	jal	ra,67ac <lcd_show_string>
    4a6e:	0000e6b7          	lui	a3,0xe
    4a72:	24468693          	addi	a3,a3,580 # e244 <ch32_uart_ops+0x1e8>
    4a76:	4641                	li	a2,16
    4a78:	05600593          	li	a1,86
    4a7c:	05000513          	li	a0,80
    4a80:	52d010ef          	jal	ra,67ac <lcd_show_string>
    4a84:	0000e6b7          	lui	a3,0xe
    4a88:	25068693          	addi	a3,a3,592 # e250 <ch32_uart_ops+0x1f4>
    4a8c:	4641                	li	a2,16
    4a8e:	09800593          	li	a1,152
    4a92:	05000513          	li	a0,80
    4a96:	517010ef          	jal	ra,67ac <lcd_show_string>
    4a9a:	4621                	li	a2,8
    4a9c:	05e00593          	li	a1,94
    4aa0:	02d00513          	li	a0,45
    4aa4:	68e010ef          	jal	ra,6132 <lcd_draw_circle>
    4aa8:	b6b9                	j	45f6 <DrawMenu+0x60>
    4aaa:	0000e6b7          	lui	a3,0xe
    4aae:	1a468693          	addi	a3,a3,420 # e1a4 <ch32_uart_ops+0x148>
    4ab2:	02000613          	li	a2,32
    4ab6:	45d1                	li	a1,20
    4ab8:	03200513          	li	a0,50
    4abc:	4f1010ef          	jal	ra,67ac <lcd_show_string>
    4ac0:	0000e6b7          	lui	a3,0xe
    4ac4:	1b068693          	addi	a3,a3,432 # e1b0 <ch32_uart_ops+0x154>
    4ac8:	4641                	li	a2,16
    4aca:	03c00593          	li	a1,60
    4ace:	05000513          	li	a0,80
    4ad2:	4db010ef          	jal	ra,67ac <lcd_show_string>
    4ad6:	0000e6b7          	lui	a3,0xe
    4ada:	1c068693          	addi	a3,a3,448 # e1c0 <ch32_uart_ops+0x164>
    4ade:	4641                	li	a2,16
    4ae0:	06400593          	li	a1,100
    4ae4:	05000513          	li	a0,80
    4ae8:	4c5010ef          	jal	ra,67ac <lcd_show_string>
    4aec:	0000e6b7          	lui	a3,0xe
    4af0:	1d468693          	addi	a3,a3,468 # e1d4 <ch32_uart_ops+0x178>
    4af4:	4641                	li	a2,16
    4af6:	08c00593          	li	a1,140
    4afa:	05000513          	li	a0,80
    4afe:	4af010ef          	jal	ra,67ac <lcd_show_string>
    4b02:	0000e6b7          	lui	a3,0xe
    4b06:	1e068693          	addi	a3,a3,480 # e1e0 <ch32_uart_ops+0x184>
    4b0a:	4641                	li	a2,16
    4b0c:	0b400593          	li	a1,180
    4b10:	05000513          	li	a0,80
    4b14:	499010ef          	jal	ra,67ac <lcd_show_string>
    4b18:	0000e6b7          	lui	a3,0xe
    4b1c:	1f068693          	addi	a3,a3,496 # e1f0 <ch32_uart_ops+0x194>
    4b20:	4641                	li	a2,16
    4b22:	0dc00593          	li	a1,220
    4b26:	05000513          	li	a0,80
    4b2a:	483010ef          	jal	ra,67ac <lcd_show_string>
    4b2e:	4621                	li	a2,8
    4b30:	06c00593          	li	a1,108
    4b34:	02d00513          	li	a0,45
    4b38:	5fa010ef          	jal	ra,6132 <lcd_draw_circle>
    4b3c:	bc6d                	j	45f6 <DrawMenu+0x60>
    4b3e:	0000e6b7          	lui	a3,0xe
    4b42:	22868693          	addi	a3,a3,552 # e228 <ch32_uart_ops+0x1cc>
    4b46:	02000613          	li	a2,32
    4b4a:	05000593          	li	a1,80
    4b4e:	03200513          	li	a0,50
    4b52:	45b010ef          	jal	ra,67ac <lcd_show_string>
    4b56:	0000e6b7          	lui	a3,0xe
    4b5a:	24068693          	addi	a3,a3,576 # e240 <ch32_uart_ops+0x1e4>
    4b5e:	4729                	li	a4,10
    4b60:	02000613          	li	a2,32
    4b64:	08c00593          	li	a1,140
    4b68:	06400513          	li	a0,100
    4b6c:	441010ef          	jal	ra,67ac <lcd_show_string>
    4b70:	0000e6b7          	lui	a3,0xe
    4b74:	4729                	li	a4,10
    4b76:	23468693          	addi	a3,a3,564 # e234 <ch32_uart_ops+0x1d8>
    4b7a:	4661                	li	a2,24
    4b7c:	0c800593          	li	a1,200
    4b80:	02800513          	li	a0,40
    4b84:	429010ef          	jal	ra,67ac <lcd_show_string>
    4b88:	b4bd                	j	45f6 <DrawMenu+0x60>
    4b8a:	0000e6b7          	lui	a3,0xe
    4b8e:	21c68693          	addi	a3,a3,540 # e21c <ch32_uart_ops+0x1c0>
    4b92:	4661                	li	a2,24
    4b94:	05000593          	li	a1,80
    4b98:	02800513          	li	a0,40
    4b9c:	411010ef          	jal	ra,67ac <lcd_show_string>
    4ba0:	200037b7          	lui	a5,0x20003
    4ba4:	32c7d703          	lhu	a4,812(a5) # 2000332c <JudgeThresh>
    4ba8:	bc1d                	j	45de <DrawMenu+0x48>
    4baa:	0000e6b7          	lui	a3,0xe
    4bae:	21468693          	addi	a3,a3,532 # e214 <ch32_uart_ops+0x1b8>
    4bb2:	4661                	li	a2,24
    4bb4:	05000593          	li	a1,80
    4bb8:	02800513          	li	a0,40
    4bbc:	3f1010ef          	jal	ra,67ac <lcd_show_string>
    4bc0:	8081d703          	lhu	a4,-2040(gp) # 20003330 <Thresh>
    4bc4:	bc29                	j	45de <DrawMenu+0x48>
    4bc6:	0000e6b7          	lui	a3,0xe
    4bca:	20868693          	addi	a3,a3,520 # e208 <ch32_uart_ops+0x1ac>
    4bce:	4661                	li	a2,24
    4bd0:	05000593          	li	a1,80
    4bd4:	4551                	li	a0,20
    4bd6:	3d7010ef          	jal	ra,67ac <lcd_show_string>
    4bda:	80c1a403          	lw	s0,-2036(gp) # 20003334 <fac_Odist>
    4bde:	0000e7b7          	lui	a5,0xe
    4be2:	1a07a583          	lw	a1,416(a5) # e1a0 <ch32_uart_ops+0x144>
    4be6:	8522                	mv	a0,s0
    4be8:	545050ef          	jal	ra,a92c <__mulsf3>
    4bec:	35c060ef          	jal	ra,af48 <__fixunssfsi>
    4bf0:	0ff57493          	andi	s1,a0,255
    4bf4:	8522                	mv	a0,s0
    4bf6:	352060ef          	jal	ra,af48 <__fixunssfsi>
    4bfa:	0000e6b7          	lui	a3,0xe
    4bfe:	0ff57713          	andi	a4,a0,255
    4c02:	87a6                	mv	a5,s1
    4c04:	20068693          	addi	a3,a3,512 # e200 <ch32_uart_ops+0x1a4>
    4c08:	02000613          	li	a2,32
    4c0c:	0a000593          	li	a1,160
    4c10:	06400513          	li	a0,100
    4c14:	399010ef          	jal	ra,67ac <lcd_show_string>
    4c18:	baf9                	j	45f6 <DrawMenu+0x60>
    4c1a:	0000e6b7          	lui	a3,0xe
    4c1e:	1f868693          	addi	a3,a3,504 # e1f8 <ch32_uart_ops+0x19c>
    4c22:	4661                	li	a2,24
    4c24:	05000593          	li	a1,80
    4c28:	02800513          	li	a0,40
    4c2c:	381010ef          	jal	ra,67ac <lcd_show_string>
    4c30:	8101a403          	lw	s0,-2032(gp) # 20003338 <fac_dtw>
    4c34:	b76d                	j	4bde <DrawMenu+0x648>
    4c36:	0000e6b7          	lui	a3,0xe
    4c3a:	1a468693          	addi	a3,a3,420 # e1a4 <ch32_uart_ops+0x148>
    4c3e:	02000613          	li	a2,32
    4c42:	45d1                	li	a1,20
    4c44:	03200513          	li	a0,50
    4c48:	365010ef          	jal	ra,67ac <lcd_show_string>
    4c4c:	0000e6b7          	lui	a3,0xe
    4c50:	1b068693          	addi	a3,a3,432 # e1b0 <ch32_uart_ops+0x154>
    4c54:	4641                	li	a2,16
    4c56:	03c00593          	li	a1,60
    4c5a:	05000513          	li	a0,80
    4c5e:	34f010ef          	jal	ra,67ac <lcd_show_string>
    4c62:	0000e6b7          	lui	a3,0xe
    4c66:	1c068693          	addi	a3,a3,448 # e1c0 <ch32_uart_ops+0x164>
    4c6a:	4641                	li	a2,16
    4c6c:	06400593          	li	a1,100
    4c70:	05000513          	li	a0,80
    4c74:	339010ef          	jal	ra,67ac <lcd_show_string>
    4c78:	0000e6b7          	lui	a3,0xe
    4c7c:	1d468693          	addi	a3,a3,468 # e1d4 <ch32_uart_ops+0x178>
    4c80:	4641                	li	a2,16
    4c82:	08c00593          	li	a1,140
    4c86:	05000513          	li	a0,80
    4c8a:	323010ef          	jal	ra,67ac <lcd_show_string>
    4c8e:	0000e6b7          	lui	a3,0xe
    4c92:	1e068693          	addi	a3,a3,480 # e1e0 <ch32_uart_ops+0x184>
    4c96:	4641                	li	a2,16
    4c98:	0b400593          	li	a1,180
    4c9c:	05000513          	li	a0,80
    4ca0:	30d010ef          	jal	ra,67ac <lcd_show_string>
    4ca4:	0000e6b7          	lui	a3,0xe
    4ca8:	1f068693          	addi	a3,a3,496 # e1f0 <ch32_uart_ops+0x194>
    4cac:	4641                	li	a2,16
    4cae:	0dc00593          	li	a1,220
    4cb2:	05000513          	li	a0,80
    4cb6:	2f7010ef          	jal	ra,67ac <lcd_show_string>
    4cba:	4621                	li	a2,8
    4cbc:	04400593          	li	a1,68
    4cc0:	02d00513          	li	a0,45
    4cc4:	46e010ef          	jal	ra,6132 <lcd_draw_circle>
    4cc8:	92fff06f          	j	45f6 <DrawMenu+0x60>

00004ccc <GetThreshHoldVolt>:
    4ccc:	f16fb2ef          	jal	t0,3e2 <__riscv_save_0>
    4cd0:	0000e537          	lui	a0,0xe
    4cd4:	29c50513          	addi	a0,a0,668 # e29c <ch32_uart_ops+0x240>
    4cd8:	f40fc0ef          	jal	ra,1418 <rt_kprintf>
    4cdc:	4401                	li	s0,0
    4cde:	4601                	li	a2,0
    4ce0:	4685                	li	a3,1
    4ce2:	0ff00593          	li	a1,255
    4ce6:	8fe1d783          	lhu	a5,-1794(gp) # 20003426 <DMAProcessFlag>
    4cea:	fef69ee3          	bne	a3,a5,4ce6 <GetThreshHoldVolt+0x1a>
    4cee:	90c1d783          	lhu	a5,-1780(gp) # 20003434 <DifData>
    4cf2:	0605                	addi	a2,a2,1
    4cf4:	8e019f23          	sh	zero,-1794(gp) # 20003426 <DMAProcessFlag>
    4cf8:	0ff67613          	andi	a2,a2,255
    4cfc:	943e                	add	s0,s0,a5
    4cfe:	feb614e3          	bne	a2,a1,4ce6 <GetThreshHoldVolt+0x1a>
    4d02:	0000e537          	lui	a0,0xe
    4d06:	2ac50513          	addi	a0,a0,684 # e2ac <ch32_uart_ops+0x250>
    4d0a:	f0efc0ef          	jal	ra,1418 <rt_kprintf>
    4d0e:	00845513          	srli	a0,s0,0x8
    4d12:	0542                	slli	a0,a0,0x10
    4d14:	8141                	srli	a0,a0,0x10
    4d16:	ef0fb06f          	j	406 <__riscv_restore_0>

00004d1a <GetTemplate>:
    4d1a:	eaefb2ef          	jal	t0,3c8 <__riscv_save_4>
    4d1e:	8f018713          	addi	a4,gp,-1808 # 20003418 <Flag>
    4d22:	1101                	addi	sp,sp,-32
    4d24:	00052e83          	lw	t4,0(a0)
    4d28:	8f218313          	addi	t1,gp,-1806 # 2000341a <cnt.7238>
    4d2c:	00070023          	sb	zero,0(a4)
    4d30:	c602                	sw	zero,12(sp)
    4d32:	c802                	sw	zero,16(sp)
    4d34:	ca02                	sw	zero,20(sp)
    4d36:	cc02                	sw	zero,24(sp)
    4d38:	ce02                	sw	zero,28(sp)
    4d3a:	000105a3          	sb	zero,11(sp)
    4d3e:	00034e03          	lbu	t3,0(t1)
    4d42:	4481                	li	s1,0
    4d44:	4681                	li	a3,0
    4d46:	4885                	li	a7,1
    4d48:	438d                	li	t2,3
    4d4a:	441d                	li	s0,7
    4d4c:	4fa5                	li	t6,9
    4d4e:	42a1                	li	t0,8
    4d50:	a029                	j	4d5a <GetTemplate+0x40>
    4d52:	8fe1d783          	lhu	a5,-1794(gp) # 20003426 <DMAProcessFlag>
    4d56:	04f88d63          	beq	a7,a5,4db0 <GetTemplate+0x96>
    4d5a:	00074783          	lbu	a5,0(a4)
    4d5e:	0ff7f793          	andi	a5,a5,255
    4d62:	dbe5                	beqz	a5,4d52 <GetTemplate+0x38>
    4d64:	c099                	beqz	s1,4d6a <GetTemplate+0x50>
    4d66:	01c30023          	sb	t3,0(t1)
    4d6a:	8f118e13          	addi	t3,gp,-1807 # 20003419 <UnusefulFlag.7236>
    4d6e:	00070023          	sb	zero,0(a4)
    4d72:	000e4303          	lbu	t1,0(t3)
    4d76:	4f01                	li	t5,0
    4d78:	4885                	li	a7,1
    4d7a:	4475                	li	s0,29
    4d7c:	0c700393          	li	t2,199
    4d80:	a029                	j	4d8a <GetTemplate+0x70>
    4d82:	8fe1d783          	lhu	a5,-1794(gp) # 20003426 <DMAProcessFlag>
    4d86:	06f88563          	beq	a7,a5,4df0 <GetTemplate+0xd6>
    4d8a:	00074783          	lbu	a5,0(a4)
    4d8e:	0ff7f793          	andi	a5,a5,255
    4d92:	dbe5                	beqz	a5,4d82 <GetTemplate+0x68>
    4d94:	000f0463          	beqz	t5,4d9c <GetTemplate+0x82>
    4d98:	006e0023          	sb	t1,0(t3)
    4d9c:	03100713          	li	a4,49
    4da0:	4781                	li	a5,0
    4da2:	08d76663          	bltu	a4,a3,4e2e <GetTemplate+0x114>
    4da6:	00f51223          	sh	a5,4(a0)
    4daa:	6105                	addi	sp,sp,32
    4dac:	e50fb06f          	j	3fc <__riscv_restore_4>
    4db0:	8e019f23          	sh	zero,-1794(gp) # 20003426 <DMAProcessFlag>
    4db4:	00b14483          	lbu	s1,11(sp)
    4db8:	90c1d983          	lhu	s3,-1780(gp) # 20003434 <DifData>
    4dbc:	90c1d783          	lhu	a5,-1780(gp) # 20003434 <DifData>
    4dc0:	02010913          	addi	s2,sp,32
    4dc4:	0486                	slli	s1,s1,0x1
    4dc6:	8f8d                	sub	a5,a5,a1
    4dc8:	94ca                	add	s1,s1,s2
    4dca:	41f7d913          	srai	s2,a5,0x1f
    4dce:	00f947b3          	xor	a5,s2,a5
    4dd2:	ff349623          	sh	s3,-20(s1)
    4dd6:	412787b3          	sub	a5,a5,s2
    4dda:	04f64f63          	blt	a2,a5,4e38 <GetTemplate+0x11e>
    4dde:	4e01                	li	t3,0
    4de0:	00b14783          	lbu	a5,11(sp)
    4de4:	0cf2f663          	bgeu	t0,a5,4eb0 <GetTemplate+0x196>
    4de8:	000105a3          	sb	zero,11(sp)
    4dec:	4485                	li	s1,1
    4dee:	b7b5                	j	4d5a <GetTemplate+0x40>
    4df0:	8e019f23          	sh	zero,-1794(gp) # 20003426 <DMAProcessFlag>
    4df4:	90c1d783          	lhu	a5,-1780(gp) # 20003434 <DifData>
    4df8:	00169f13          	slli	t5,a3,0x1
    4dfc:	0685                	addi	a3,a3,1
    4dfe:	8f8d                	sub	a5,a5,a1
    4e00:	41f7df93          	srai	t6,a5,0x1f
    4e04:	00ffc7b3          	xor	a5,t6,a5
    4e08:	0305                	addi	t1,t1,1
    4e0a:	06c2                	slli	a3,a3,0x10
    4e0c:	41f787b3          	sub	a5,a5,t6
    4e10:	0ff37313          	andi	t1,t1,255
    4e14:	9f76                	add	t5,t5,t4
    4e16:	82c1                	srli	a3,a3,0x10
    4e18:	0af64563          	blt	a2,a5,4ec2 <GetTemplate+0x1a8>
    4e1c:	90c1d783          	lhu	a5,-1780(gp) # 20003434 <DifData>
    4e20:	00ff1023          	sh	a5,0(t5)
    4e24:	0a647463          	bgeu	s0,t1,4ecc <GetTemplate+0x1b2>
    4e28:	01170023          	sb	a7,0(a4)
    4e2c:	a045                	j	4ecc <GetTemplate+0x1b2>
    4e2e:	16a5                	addi	a3,a3,-23
    4e30:	01069793          	slli	a5,a3,0x10
    4e34:	83c1                	srli	a5,a5,0x10
    4e36:	bf85                	j	4da6 <GetTemplate+0x8c>
    4e38:	0e05                	addi	t3,t3,1
    4e3a:	0ffe7e13          	andi	t3,t3,255
    4e3e:	fbc3f1e3          	bgeu	t2,t3,4de0 <GetTemplate+0xc6>
    4e42:	01170023          	sb	a7,0(a4)
    4e46:	00b14783          	lbu	a5,11(sp)
    4e4a:	08f46963          	bltu	s0,a5,4edc <GetTemplate+0x1c2>
    4e4e:	00b14783          	lbu	a5,11(sp)
    4e52:	00968993          	addi	s3,a3,9
    4e56:	09c2                	slli	s3,s3,0x10
    4e58:	0789                	addi	a5,a5,2
    4e5a:	0ff7f793          	andi	a5,a5,255
    4e5e:	0109d993          	srli	s3,s3,0x10
    4e62:	00f105a3          	sb	a5,11(sp)
    4e66:	00b14783          	lbu	a5,11(sp)
    4e6a:	02010a13          	addi	s4,sp,32
    4e6e:	00169493          	slli	s1,a3,0x1
    4e72:	0ff7f793          	andi	a5,a5,255
    4e76:	00178913          	addi	s2,a5,1
    4e7a:	0786                	slli	a5,a5,0x1
    4e7c:	0ff97913          	andi	s2,s2,255
    4e80:	97d2                	add	a5,a5,s4
    4e82:	012105a3          	sb	s2,11(sp)
    4e86:	fec7d903          	lhu	s2,-20(a5)
    4e8a:	00b14783          	lbu	a5,11(sp)
    4e8e:	94f6                	add	s1,s1,t4
    4e90:	0685                	addi	a3,a3,1
    4e92:	06c2                	slli	a3,a3,0x10
    4e94:	01249023          	sh	s2,0(s1)
    4e98:	82c1                	srli	a3,a3,0x10
    4e9a:	00fff463          	bgeu	t6,a5,4ea2 <GetTemplate+0x188>
    4e9e:	000105a3          	sb	zero,11(sp)
    4ea2:	fd3692e3          	bne	a3,s3,4e66 <GetTemplate+0x14c>
    4ea6:	00b14783          	lbu	a5,11(sp)
    4eaa:	86ce                	mv	a3,s3
    4eac:	f2f2eee3          	bltu	t0,a5,4de8 <GetTemplate+0xce>
    4eb0:	00b14783          	lbu	a5,11(sp)
    4eb4:	4485                	li	s1,1
    4eb6:	0785                	addi	a5,a5,1
    4eb8:	0ff7f793          	andi	a5,a5,255
    4ebc:	00f105a3          	sb	a5,11(sp)
    4ec0:	bd69                	j	4d5a <GetTemplate+0x40>
    4ec2:	90c1d783          	lhu	a5,-1780(gp) # 20003434 <DifData>
    4ec6:	4301                	li	t1,0
    4ec8:	00ff1023          	sh	a5,0(t5)
    4ecc:	4f05                	li	t5,1
    4ece:	ead3fee3          	bgeu	t2,a3,4d8a <GetTemplate+0x70>
    4ed2:	006e0023          	sb	t1,0(t3)
    4ed6:	00051223          	sh	zero,4(a0)
    4eda:	bdc1                	j	4daa <GetTemplate+0x90>
    4edc:	00b14783          	lbu	a5,11(sp)
    4ee0:	00968993          	addi	s3,a3,9
    4ee4:	09c2                	slli	s3,s3,0x10
    4ee6:	17e1                	addi	a5,a5,-8
    4ee8:	0ff7f793          	andi	a5,a5,255
    4eec:	0109d993          	srli	s3,s3,0x10
    4ef0:	00f105a3          	sb	a5,11(sp)
    4ef4:	00b14783          	lbu	a5,11(sp)
    4ef8:	02010a13          	addi	s4,sp,32
    4efc:	00169493          	slli	s1,a3,0x1
    4f00:	0ff7f793          	andi	a5,a5,255
    4f04:	00179913          	slli	s2,a5,0x1
    4f08:	9952                	add	s2,s2,s4
    4f0a:	fec95903          	lhu	s2,-20(s2)
    4f0e:	0685                	addi	a3,a3,1
    4f10:	0785                	addi	a5,a5,1
    4f12:	0ff7f793          	andi	a5,a5,255
    4f16:	94f6                	add	s1,s1,t4
    4f18:	06c2                	slli	a3,a3,0x10
    4f1a:	00f105a3          	sb	a5,11(sp)
    4f1e:	01249023          	sh	s2,0(s1)
    4f22:	82c1                	srli	a3,a3,0x10
    4f24:	fd3698e3          	bne	a3,s3,4ef4 <GetTemplate+0x1da>
    4f28:	bd65                	j	4de0 <GetTemplate+0xc6>

00004f2a <TemplateSave>:
    4f2a:	c9efb2ef          	jal	t0,3c8 <__riscv_save_4>
    4f2e:	892a                	mv	s2,a0
    4f30:	8a2e                	mv	s4,a1
    4f32:	89b2                	mv	s3,a2
    4f34:	1bb030ef          	jal	ra,88ee <FLASH_Unlock>
    4f38:	40022737          	lui	a4,0x40022
    4f3c:	4b1c                	lw	a5,16(a4)
    4f3e:	0017e793          	ori	a5,a5,1
    4f42:	cb1c                	sw	a5,16(a4)
    4f44:	02098b63          	beqz	s3,4f7a <TemplateSave+0x50>
    4f48:	4481                	li	s1,0
    4f4a:	4411                	li	s0,4
    4f4c:	00149793          	slli	a5,s1,0x1
    4f50:	97d2                	add	a5,a5,s4
    4f52:	0007d783          	lhu	a5,0(a5)
    4f56:	6515                	lui	a0,0x5
    4f58:	00f91023          	sh	a5,0(s2)
    4f5c:	1bb030ef          	jal	ra,8916 <FLASH_WaitForLastOperation>
    4f60:	00850763          	beq	a0,s0,4f6e <TemplateSave+0x44>
    4f64:	6515                	lui	a0,0x5
    4f66:	1b1030ef          	jal	ra,8916 <FLASH_WaitForLastOperation>
    4f6a:	fe851de3          	bne	a0,s0,4f64 <TemplateSave+0x3a>
    4f6e:	0485                	addi	s1,s1,1
    4f70:	0ff4f493          	andi	s1,s1,255
    4f74:	0909                	addi	s2,s2,2
    4f76:	fd34ebe3          	bltu	s1,s3,4f4c <TemplateSave+0x22>
    4f7a:	400226b7          	lui	a3,0x40022
    4f7e:	4a9c                	lw	a5,16(a3)
    4f80:	6709                	lui	a4,0x2
    4f82:	1779                	addi	a4,a4,-2
    4f84:	8ff9                	and	a5,a5,a4
    4f86:	ca9c                	sw	a5,16(a3)
    4f88:	181030ef          	jal	ra,8908 <FLASH_Lock>
    4f8c:	c70fb06f          	j	3fc <__riscv_restore_4>

00004f90 <fasttraining>:
    4f90:	c38fb2ef          	jal	t0,3c8 <__riscv_save_4>
    4f94:	1141                	addi	sp,sp,-16
    4f96:	842a                	mv	s0,a0
    4f98:	84ae                	mv	s1,a1
    4f9a:	d33ff0ef          	jal	ra,4ccc <GetThreshHoldVolt>
    4f9e:	90a19e23          	sh	a0,-1764(gp) # 20003444 <ThreshVolt>
    4fa2:	00011723          	sh	zero,14(sp)
    4fa6:	0000eb37          	lui	s6,0xe
    4faa:	0000eab7          	lui	s5,0xe
    4fae:	0000ea37          	lui	s4,0xe
    4fb2:	4501                	li	a0,0
    4fb4:	4d3000ef          	jal	ra,5c86 <lcd_clear>
    4fb8:	244b0693          	addi	a3,s6,580 # e244 <ch32_uart_ops+0x1e8>
    4fbc:	02000613          	li	a2,32
    4fc0:	45d1                	li	a1,20
    4fc2:	03200513          	li	a0,50
    4fc6:	7e6010ef          	jal	ra,67ac <lcd_show_string>
    4fca:	8726                	mv	a4,s1
    4fcc:	2bca8693          	addi	a3,s5,700 # e2bc <ch32_uart_ops+0x260>
    4fd0:	4641                	li	a2,16
    4fd2:	05000593          	li	a1,80
    4fd6:	4551                	li	a0,20
    4fd8:	7d4010ef          	jal	ra,67ac <lcd_show_string>
    4fdc:	2d4a0693          	addi	a3,s4,724 # e2d4 <ch32_uart_ops+0x278>
    4fe0:	4641                	li	a2,16
    4fe2:	08c00593          	li	a1,140
    4fe6:	4551                	li	a0,20
    4fe8:	7c4010ef          	jal	ra,67ac <lcd_show_string>
    4fec:	91c1d583          	lhu	a1,-1764(gp) # 20003444 <ThreshVolt>
    4ff0:	8081d603          	lhu	a2,-2040(gp) # 20003330 <Thresh>
    4ff4:	8522                	mv	a0,s0
    4ff6:	d25ff0ef          	jal	ra,4d1a <GetTemplate>
    4ffa:	00445583          	lhu	a1,4(s0)
    4ffe:	d9d5                	beqz	a1,4fb2 <fasttraining+0x22>
    5000:	4795                	li	a5,5
    5002:	00f11723          	sh	a5,14(sp)
    5006:	ffa58313          	addi	t1,a1,-6
    500a:	4815                	li	a6,5
    500c:	4008                	lw	a0,0(s0)
    500e:	4881                	li	a7,0
    5010:	4615                	li	a2,5
    5012:	04685063          	bge	a6,t1,5052 <fasttraining+0xc2>
    5016:	ffb80793          	addi	a5,a6,-5
    501a:	0ff7f793          	andi	a5,a5,255
    501e:	0615                	addi	a2,a2,5
    5020:	02f64363          	blt	a2,a5,5046 <fasttraining+0xb6>
    5024:	4681                	li	a3,0
    5026:	00179713          	slli	a4,a5,0x1
    502a:	972a                	add	a4,a4,a0
    502c:	00075703          	lhu	a4,0(a4) # 2000 <rt_timer_start+0x4a>
    5030:	0785                	addi	a5,a5,1
    5032:	0ff7f793          	andi	a5,a5,255
    5036:	96ba                	add	a3,a3,a4
    5038:	fef657e3          	bge	a2,a5,5026 <fasttraining+0x96>
    503c:	00d8f563          	bgeu	a7,a3,5046 <fasttraining+0xb6>
    5040:	01011723          	sh	a6,14(sp)
    5044:	88b6                	mv	a7,a3
    5046:	0805                	addi	a6,a6,1
    5048:	0ff87813          	andi	a6,a6,255
    504c:	8642                	mv	a2,a6
    504e:	fc6844e3          	blt	a6,t1,5016 <fasttraining+0x86>
    5052:	b10ff0ef          	jal	ra,4362 <DrawCurve>
    5056:	1f400513          	li	a0,500
    505a:	1ba040ef          	jal	ra,9214 <Delay_Ms>
    505e:	200007b7          	lui	a5,0x20000
    5062:	048a                	slli	s1,s1,0x2
    5064:	14078793          	addi	a5,a5,320 # 20000140 <AddrTemp>
    5068:	97a6                	add	a5,a5,s1
    506a:	00445603          	lhu	a2,4(s0)
    506e:	400c                	lw	a1,0(s0)
    5070:	4388                	lw	a0,0(a5)
    5072:	eb9ff0ef          	jal	ra,4f2a <TemplateSave>
    5076:	200007b7          	lui	a5,0x20000
    507a:	16078793          	addi	a5,a5,352 # 20000160 <AddrTempSize>
    507e:	97a6                	add	a5,a5,s1
    5080:	4388                	lw	a0,0(a5)
    5082:	00440593          	addi	a1,s0,4
    5086:	4605                	li	a2,1
    5088:	ea3ff0ef          	jal	ra,4f2a <TemplateSave>
    508c:	200007b7          	lui	a5,0x20000
    5090:	15078793          	addi	a5,a5,336 # 20000150 <AddrTempPeak>
    5094:	94be                	add	s1,s1,a5
    5096:	4088                	lw	a0,0(s1)
    5098:	00e10593          	addi	a1,sp,14
    509c:	4605                	li	a2,1
    509e:	e8dff0ef          	jal	ra,4f2a <TemplateSave>
    50a2:	0141                	addi	sp,sp,16
    50a4:	b58fb06f          	j	3fc <__riscv_restore_4>

000050a8 <train>:
    50a8:	b0afb2ef          	jal	t0,3b2 <__riscv_save_12>
    50ac:	dc010113          	addi	sp,sp,-576
    50b0:	da2e                	sw	a1,52(sp)
    50b2:	ca2a                	sw	a0,20(sp)
    50b4:	c19ff0ef          	jal	ra,4ccc <GetThreshHoldVolt>
    50b8:	87aa                	mv	a5,a0
    50ba:	0138                	addi	a4,sp,136
    50bc:	19000613          	li	a2,400
    50c0:	4581                	li	a1,0
    50c2:	1908                	addi	a0,sp,176
    50c4:	de3a                	sw	a4,60(sp)
    50c6:	90f19e23          	sh	a5,-1764(gp) # 20003444 <ThreshVolt>
    50ca:	843a                	mv	s0,a4
    50cc:	b46fb0ef          	jal	ra,412 <memset>
    50d0:	c082                	sw	zero,64(sp)
    50d2:	c282                	sw	zero,68(sp)
    50d4:	04011423          	sh	zero,72(sp)
    50d8:	c682                	sw	zero,76(sp)
    50da:	c882                	sw	zero,80(sp)
    50dc:	ca82                	sw	zero,84(sp)
    50de:	cc82                	sw	zero,88(sp)
    50e0:	ce82                	sw	zero,92(sp)
    50e2:	d082                	sw	zero,96(sp)
    50e4:	d282                	sw	zero,100(sp)
    50e6:	d482                	sw	zero,104(sp)
    50e8:	d682                	sw	zero,108(sp)
    50ea:	d882                	sw	zero,112(sp)
    50ec:	da82                	sw	zero,116(sp)
    50ee:	dc82                	sw	zero,120(sp)
    50f0:	de82                	sw	zero,124(sp)
    50f2:	c102                	sw	zero,128(sp)
    50f4:	c302                	sw	zero,132(sp)
    50f6:	4511                	li	a0,4
    50f8:	d60fc0ef          	jal	ra,1658 <rt_malloc>
    50fc:	c008                	sw	a0,0(s0)
    50fe:	00052023          	sw	zero,0(a0) # 5000 <fasttraining+0x70>
    5102:	00051223          	sh	zero,4(a0)
    5106:	0411                	addi	s0,s0,4
    5108:	191c                	addi	a5,sp,176
    510a:	fe8796e3          	bne	a5,s0,50f6 <train+0x4e>
    510e:	0a58                	addi	a4,sp,276
    5110:	91c1d683          	lhu	a3,-1764(gp) # 20003444 <ThreshVolt>
    5114:	0789                	addi	a5,a5,2
    5116:	fed79f23          	sh	a3,-2(a5)
    511a:	fef71be3          	bne	a4,a5,5110 <train+0x68>
    511e:	4981                	li	s3,0
    5120:	4429                	li	s0,10
    5122:	4925                	li	s2,9
    5124:	4495                	li	s1,5
    5126:	4a52                	lw	s4,20(sp)
    5128:	a019                	j	512e <train+0x86>
    512a:	13396763          	bltu	s2,s3,5258 <train+0x1b0>
    512e:	4501                	li	a0,0
    5130:	357000ef          	jal	ra,5c86 <lcd_clear>
    5134:	5752                	lw	a4,52(sp)
    5136:	0000e7b7          	lui	a5,0xe
    513a:	2bc78693          	addi	a3,a5,700 # e2bc <ch32_uart_ops+0x260>
    513e:	4641                	li	a2,16
    5140:	05000593          	li	a1,80
    5144:	4551                	li	a0,20
    5146:	666010ef          	jal	ra,67ac <lcd_show_string>
    514a:	0000e7b7          	lui	a5,0xe
    514e:	2d478693          	addi	a3,a5,724 # e2d4 <ch32_uart_ops+0x278>
    5152:	4641                	li	a2,16
    5154:	08c00593          	li	a1,140
    5158:	4551                	li	a0,20
    515a:	652010ef          	jal	ra,67ac <lcd_show_string>
    515e:	0000e7b7          	lui	a5,0xe
    5162:	2e878693          	addi	a3,a5,744 # e2e8 <ch32_uart_ops+0x28c>
    5166:	41340733          	sub	a4,s0,s3
    516a:	4641                	li	a2,16
    516c:	0c800593          	li	a1,200
    5170:	4551                	li	a0,20
    5172:	63a010ef          	jal	ra,67ac <lcd_show_string>
    5176:	91c1d583          	lhu	a1,-1764(gp) # 20003444 <ThreshVolt>
    517a:	8081d603          	lhu	a2,-2040(gp) # 20003330 <Thresh>
    517e:	8552                	mv	a0,s4
    5180:	b9bff0ef          	jal	ra,4d1a <GetTemplate>
    5184:	004a5783          	lhu	a5,4(s4)
    5188:	d3cd                	beqz	a5,512a <train+0x82>
    518a:	0494                	addi	a3,sp,576
    518c:	00299713          	slli	a4,s3,0x2
    5190:	9736                	add	a4,a4,a3
    5192:	e4872a83          	lw	s5,-440(a4)
    5196:	00179513          	slli	a0,a5,0x1
    519a:	00fa9223          	sh	a5,4(s5)
    519e:	cbafc0ef          	jal	ra,1658 <rt_malloc>
    51a2:	00aaa023          	sw	a0,0(s5)
    51a6:	882a                	mv	a6,a0
    51a8:	62050a63          	beqz	a0,57dc <train+0x734>
    51ac:	004ad783          	lhu	a5,4(s5)
    51b0:	c785                	beqz	a5,51d8 <train+0x130>
    51b2:	000a2683          	lw	a3,0(s4)
    51b6:	4781                	li	a5,0
    51b8:	00179713          	slli	a4,a5,0x1
    51bc:	00e68633          	add	a2,a3,a4
    51c0:	00065603          	lhu	a2,0(a2)
    51c4:	9742                	add	a4,a4,a6
    51c6:	0785                	addi	a5,a5,1
    51c8:	00c71023          	sh	a2,0(a4)
    51cc:	004ad703          	lhu	a4,4(s5)
    51d0:	0ff7f793          	andi	a5,a5,255
    51d4:	fee7e2e3          	bltu	a5,a4,51b8 <train+0x110>
    51d8:	004a5583          	lhu	a1,4(s4)
    51dc:	4795                	li	a5,5
    51de:	15e9                	addi	a1,a1,-6
    51e0:	04b4d863          	bge	s1,a1,5230 <train+0x188>
    51e4:	4715                	li	a4,5
    51e6:	4301                	li	t1,0
    51e8:	4695                	li	a3,5
    51ea:	4615                	li	a2,5
    51ec:	ffb70793          	addi	a5,a4,-5
    51f0:	0ff7f793          	andi	a5,a5,255
    51f4:	0615                	addi	a2,a2,5
    51f6:	02f64463          	blt	a2,a5,521e <train+0x176>
    51fa:	000a2e03          	lw	t3,0(s4)
    51fe:	4501                	li	a0,0
    5200:	00179893          	slli	a7,a5,0x1
    5204:	98f2                	add	a7,a7,t3
    5206:	0008d883          	lhu	a7,0(a7)
    520a:	0785                	addi	a5,a5,1
    520c:	0ff7f793          	andi	a5,a5,255
    5210:	9546                	add	a0,a0,a7
    5212:	fef657e3          	bge	a2,a5,5200 <train+0x158>
    5216:	00a37463          	bgeu	t1,a0,521e <train+0x176>
    521a:	832a                	mv	t1,a0
    521c:	86ba                	mv	a3,a4
    521e:	0705                	addi	a4,a4,1
    5220:	0ff77713          	andi	a4,a4,255
    5224:	863a                	mv	a2,a4
    5226:	fcb743e3          	blt	a4,a1,51ec <train+0x144>
    522a:	01069793          	slli	a5,a3,0x10
    522e:	83c1                	srli	a5,a5,0x10
    5230:	0494                	addi	a3,sp,576
    5232:	00199713          	slli	a4,s3,0x1
    5236:	9736                	add	a4,a4,a3
    5238:	e0f71623          	sh	a5,-500(a4)
    523c:	004ad583          	lhu	a1,4(s5)
    5240:	8542                	mv	a0,a6
    5242:	0985                	addi	s3,s3,1
    5244:	91eff0ef          	jal	ra,4362 <DrawCurve>
    5248:	2ee00513          	li	a0,750
    524c:	0ff9f993          	andi	s3,s3,255
    5250:	7c5030ef          	jal	ra,9214 <Delay_Ms>
    5254:	ec899de3          	bne	s3,s0,512e <train+0x86>
    5258:	200007b7          	lui	a5,0x20000
    525c:	18478793          	addi	a5,a5,388 # 20000184 <D+0x14>
    5260:	d03e                	sw	a5,32(sp)
    5262:	200017b7          	lui	a5,0x20001
    5266:	1d878993          	addi	s3,a5,472 # 200011d8 <DTW>
    526a:	200017b7          	lui	a5,0x20001
    526e:	d602                	sw	zero,44(sp)
    5270:	22478913          	addi	s2,a5,548 # 20001224 <DTW+0x4c>
    5274:	4501                	li	a0,0
    5276:	211000ef          	jal	ra,5c86 <lcd_clear>
    527a:	5752                	lw	a4,52(sp)
    527c:	0000e7b7          	lui	a5,0xe
    5280:	2bc78693          	addi	a3,a5,700 # e2bc <ch32_uart_ops+0x260>
    5284:	4641                	li	a2,16
    5286:	05000593          	li	a1,80
    528a:	4551                	li	a0,20
    528c:	520010ef          	jal	ra,67ac <lcd_show_string>
    5290:	0000e7b7          	lui	a5,0xe
    5294:	2d478693          	addi	a3,a5,724 # e2d4 <ch32_uart_ops+0x278>
    5298:	4641                	li	a2,16
    529a:	08c00593          	li	a1,140
    529e:	4551                	li	a0,20
    52a0:	50c010ef          	jal	ra,67ac <lcd_show_string>
    52a4:	57b2                	lw	a5,44(sp)
    52a6:	4729                	li	a4,10
    52a8:	4641                	li	a2,16
    52aa:	8f1d                	sub	a4,a4,a5
    52ac:	0000e7b7          	lui	a5,0xe
    52b0:	2e878693          	addi	a3,a5,744 # e2e8 <ch32_uart_ops+0x28c>
    52b4:	0c800593          	li	a1,200
    52b8:	4551                	li	a0,20
    52ba:	4f2010ef          	jal	ra,67ac <lcd_show_string>
    52be:	91c1d583          	lhu	a1,-1764(gp) # 20003444 <ThreshVolt>
    52c2:	4452                	lw	s0,20(sp)
    52c4:	8081d603          	lhu	a2,-2040(gp) # 20003330 <Thresh>
    52c8:	8522                	mv	a0,s0
    52ca:	a51ff0ef          	jal	ra,4d1a <GetTemplate>
    52ce:	00445703          	lhu	a4,4(s0)
    52d2:	4c071063          	bnez	a4,5792 <train+0x6ea>
    52d6:	8101a783          	lw	a5,-2032(gp) # 20003338 <fac_dtw>
    52da:	20000c37          	lui	s8,0x20000
    52de:	20000f37          	lui	t5,0x20000
    52e2:	cc3e                	sw	a5,24(sp)
    52e4:	80c1a783          	lw	a5,-2036(gp) # 20003334 <fac_Odist>
    52e8:	20000e37          	lui	t3,0x20000
    52ec:	20001eb7          	lui	t4,0x20001
    52f0:	ce3e                	sw	a5,28(sp)
    52f2:	109c                	addi	a5,sp,96
    52f4:	dc3e                	sw	a5,56(sp)
    52f6:	57f2                	lw	a5,60(sp)
    52f8:	170c0c13          	addi	s8,s8,368 # 20000170 <D>
    52fc:	314f0b13          	addi	s6,t5,788 # 20000314 <D+0x1a4>
    5300:	d83e                	sw	a5,48(sp)
    5302:	0b210793          	addi	a5,sp,178
    5306:	d23e                	sw	a5,36(sp)
    5308:	200017b7          	lui	a5,0x20001
    530c:	20078793          	addi	a5,a5,512 # 20001200 <DTW+0x28>
    5310:	186e0a93          	addi	s5,t3,390 # 20000186 <D+0x16>
    5314:	d43e                	sw	a5,40(sp)
    5316:	228e8a13          	addi	s4,t4,552 # 20001228 <DTW+0x50>
    531a:	05400d13          	li	s10,84
    531e:	57c2                	lw	a5,48(sp)
    5320:	0007ab83          	lw	s7,0(a5)
    5324:	06470793          	addi	a5,a4,100
    5328:	004bd683          	lhu	a3,4(s7)
    532c:	8f95                	sub	a5,a5,a3
    532e:	4407cf63          	bltz	a5,578c <train+0x6e4>
    5332:	000ba483          	lw	s1,0(s7)
    5336:	57fd                	li	a5,-1
    5338:	4d81                	li	s11,0
    533a:	c43e                	sw	a5,8(sp)
    533c:	87ee                	mv	a5,s11
    533e:	4581                	li	a1,0
    5340:	8dde                	mv	s11,s7
    5342:	02a00c93          	li	s9,42
    5346:	8ba6                	mv	s7,s1
    5348:	84be                	mv	s1,a5
    534a:	5792                	lw	a5,36(sp)
    534c:	00a58513          	addi	a0,a1,10
    5350:	0506                	slli	a0,a0,0x1
    5352:	5e82                	lw	t4,32(sp)
    5354:	fec50f93          	addi	t6,a0,-20
    5358:	953e                	add	a0,a0,a5
    535a:	191c                	addi	a5,sp,176
    535c:	8e5e                	mv	t3,s7
    535e:	8f62                	mv	t5,s8
    5360:	9fbe                	add	t6,t6,a5
    5362:	86f6                	mv	a3,t4
    5364:	877e                	mv	a4,t6
    5366:	00075603          	lhu	a2,0(a4)
    536a:	000e5783          	lhu	a5,0(t3)
    536e:	0689                	addi	a3,a3,2
    5370:	0709                	addi	a4,a4,2
    5372:	8f91                	sub	a5,a5,a2
    5374:	41f7d613          	srai	a2,a5,0x1f
    5378:	8fb1                	xor	a5,a5,a2
    537a:	8f91                	sub	a5,a5,a2
    537c:	fef69f23          	sh	a5,-2(a3) # 40021ffe <_eusrstack+0x20011ffe>
    5380:	fee513e3          	bne	a0,a4,5366 <train+0x2be>
    5384:	028e8e93          	addi	t4,t4,40
    5388:	0e09                	addi	t3,t3,2
    538a:	0509                	addi	a0,a0,2
    538c:	fddb1be3          	bne	s6,t4,5362 <train+0x2ba>
    5390:	004dd403          	lhu	s0,4(s11)
    5394:	47d1                	li	a5,20
    5396:	0687f263          	bgeu	a5,s0,53fa <train+0x352>
    539a:	4e55                	li	t3,21
    539c:	4ea9                	li	t4,10
    539e:	4629                	li	a2,10
    53a0:	03960633          	mul	a2,a2,s9
    53a4:	ff6e8713          	addi	a4,t4,-10
    53a8:	001e9513          	slli	a0,t4,0x1
    53ac:	0ff77713          	andi	a4,a4,255
    53b0:	955e                	add	a0,a0,s7
    53b2:	9662                	add	a2,a2,s8
    53b4:	00b706b3          	add	a3,a4,a1
    53b8:	049c                	addi	a5,sp,576
    53ba:	0686                	slli	a3,a3,0x1
    53bc:	96be                	add	a3,a3,a5
    53be:	e706d683          	lhu	a3,-400(a3)
    53c2:	00055783          	lhu	a5,0(a0)
    53c6:	0705                	addi	a4,a4,1
    53c8:	0ff77713          	andi	a4,a4,255
    53cc:	8f95                	sub	a5,a5,a3
    53ce:	41f7d693          	srai	a3,a5,0x1f
    53d2:	8fb5                	xor	a5,a5,a3
    53d4:	8f95                	sub	a5,a5,a3
    53d6:	00f61023          	sh	a5,0(a2)
    53da:	0609                	addi	a2,a2,2
    53dc:	fdc71ce3          	bne	a4,t3,53b4 <train+0x30c>
    53e0:	004dd403          	lhu	s0,4(s11)
    53e4:	0e85                	addi	t4,t4,1
    53e6:	0ffefe93          	andi	t4,t4,255
    53ea:	0e05                	addi	t3,t3,1
    53ec:	ff640793          	addi	a5,s0,-10
    53f0:	8676                	mv	a2,t4
    53f2:	0ffe7e13          	andi	t3,t3,255
    53f6:	fafec5e3          	blt	t4,a5,53a0 <train+0x2f8>
    53fa:	0ff47793          	andi	a5,s0,255
    53fe:	ff678e93          	addi	t4,a5,-10
    5402:	0ffefe93          	andi	t4,t4,255
    5406:	088ef563          	bgeu	t4,s0,5490 <train+0x3e8>
    540a:	4729                	li	a4,10
    540c:	40f707b3          	sub	a5,a4,a5
    5410:	0ff7f393          	andi	t2,a5,255
    5414:	ff6e8813          	addi	a6,t4,-10
    5418:	410407b3          	sub	a5,s0,a6
    541c:	0ff87693          	andi	a3,a6,255
    5420:	06f05063          	blez	a5,5480 <train+0x3d8>
    5424:	002e9613          	slli	a2,t4,0x2
    5428:	9676                	add	a2,a2,t4
    542a:	001e9513          	slli	a0,t4,0x1
    542e:	060a                	slli	a2,a2,0x2
    5430:	955e                	add	a0,a0,s7
    5432:	4781                	li	a5,0
    5434:	00a38893          	addi	a7,t2,10
    5438:	9676                	add	a2,a2,t4
    543a:	00b68333          	add	t1,a3,a1
    543e:	0498                	addi	a4,sp,576
    5440:	0306                	slli	t1,t1,0x1
    5442:	933a                	add	t1,t1,a4
    5444:	e7035303          	lhu	t1,-400(t1)
    5448:	00055703          	lhu	a4,0(a0)
    544c:	97b2                	add	a5,a5,a2
    544e:	0786                	slli	a5,a5,0x1
    5450:	40670733          	sub	a4,a4,t1
    5454:	41f75313          	srai	t1,a4,0x1f
    5458:	00e34733          	xor	a4,t1,a4
    545c:	97e2                	add	a5,a5,s8
    545e:	40670733          	sub	a4,a4,t1
    5462:	00e79023          	sh	a4,0(a5)
    5466:	0685                	addi	a3,a3,1
    5468:	004dd403          	lhu	s0,4(s11)
    546c:	0ff6f693          	andi	a3,a3,255
    5470:	011687b3          	add	a5,a3,a7
    5474:	0ff7f793          	andi	a5,a5,255
    5478:	41040733          	sub	a4,s0,a6
    547c:	fae7cfe3          	blt	a5,a4,543a <train+0x392>
    5480:	0e85                	addi	t4,t4,1
    5482:	13fd                	addi	t2,t2,-1
    5484:	0ffefe93          	andi	t4,t4,255
    5488:	0ff3f393          	andi	t2,t2,255
    548c:	f88ee4e3          	bltu	t4,s0,5414 <train+0x36c>
    5490:	200017b7          	lui	a5,0x20001
    5494:	1d878793          	addi	a5,a5,472 # 200011d8 <DTW>
    5498:	000f5703          	lhu	a4,0(t5)
    549c:	0791                	addi	a5,a5,4
    549e:	0f09                	addi	t5,t5,2
    54a0:	fee7ae23          	sw	a4,-4(a5)
    54a4:	ffea9ae3          	bne	s5,t5,5498 <train+0x3f0>
    54a8:	57a2                	lw	a5,40(sp)
    54aa:	86d6                	mv	a3,s5
    54ac:	4390                	lw	a2,0(a5)
    54ae:	0006d703          	lhu	a4,0(a3)
    54b2:	0791                	addi	a5,a5,4
    54b4:	0689                	addi	a3,a3,2
    54b6:	9732                	add	a4,a4,a2
    54b8:	c398                	sw	a4,0(a5)
    54ba:	fefa19e3          	bne	s4,a5,54ac <train+0x404>
    54be:	4785                	li	a5,1
    54c0:	2c87f263          	bgeu	a5,s0,5784 <train+0x6dc>
    54c4:	4f05                	li	t5,1
    54c6:	ffff0313          	addi	t1,t5,-1
    54ca:	03a307b3          	mul	a5,t1,s10
    54ce:	97ce                	add	a5,a5,s3
    54d0:	4394                	lw	a3,0(a5)
    54d2:	43d8                	lw	a4,4(a5)
    54d4:	00e6f363          	bgeu	a3,a4,54da <train+0x432>
    54d8:	8736                	mv	a4,a3
    54da:	039f0833          	mul	a6,t5,s9
    54de:	010c07b3          	add	a5,s8,a6
    54e2:	0007d783          	lhu	a5,0(a5)
    54e6:	03a308b3          	mul	a7,t1,s10
    54ea:	0809                	addi	a6,a6,2
    54ec:	973e                	add	a4,a4,a5
    54ee:	9862                	add	a6,a6,s8
    54f0:	03af07b3          	mul	a5,t5,s10
    54f4:	00488513          	addi	a0,a7,4
    54f8:	05888693          	addi	a3,a7,88
    54fc:	954e                	add	a0,a0,s3
    54fe:	96ce                	add	a3,a3,s3
    5500:	98ca                	add	a7,a7,s2
    5502:	97ce                	add	a5,a5,s3
    5504:	c398                	sw	a4,0(a5)
    5506:	411c                	lw	a5,0(a0)
    5508:	4150                	lw	a2,4(a0)
    550a:	00f67363          	bgeu	a2,a5,5510 <train+0x468>
    550e:	87b2                	mv	a5,a2
    5510:	00f77363          	bgeu	a4,a5,5516 <train+0x46e>
    5514:	87ba                	mv	a5,a4
    5516:	00085703          	lhu	a4,0(a6)
    551a:	0691                	addi	a3,a3,4
    551c:	0809                	addi	a6,a6,2
    551e:	973e                	add	a4,a4,a5
    5520:	fee6ae23          	sw	a4,-4(a3)
    5524:	00a88463          	beq	a7,a0,552c <train+0x484>
    5528:	0511                	addi	a0,a0,4
    552a:	bff1                	j	5506 <train+0x45e>
    552c:	03af07b3          	mul	a5,t5,s10
    5530:	03a30333          	mul	t1,t1,s10
    5534:	97ce                	add	a5,a5,s3
    5536:	47f4                	lw	a3,76(a5)
    5538:	934e                	add	t1,t1,s3
    553a:	05032703          	lw	a4,80(t1)
    553e:	00e6f363          	bgeu	a3,a4,5544 <train+0x49c>
    5542:	8736                	mv	a4,a3
    5544:	039f06b3          	mul	a3,t5,s9
    5548:	0f05                	addi	t5,t5,1
    554a:	0fff7f13          	andi	t5,t5,255
    554e:	96e2                	add	a3,a3,s8
    5550:	0286d683          	lhu	a3,40(a3)
    5554:	9736                	add	a4,a4,a3
    5556:	cbb8                	sw	a4,80(a5)
    5558:	f68f67e3          	bltu	t5,s0,54c6 <train+0x41e>
    555c:	4701                	li	a4,0
    555e:	4501                	li	a0,0
    5560:	00b706b3          	add	a3,a4,a1
    5564:	00171793          	slli	a5,a4,0x1
    5568:	0686                	slli	a3,a3,0x1
    556a:	0490                	addi	a2,sp,576
    556c:	97de                	add	a5,a5,s7
    556e:	96b2                	add	a3,a3,a2
    5570:	e706d683          	lhu	a3,-400(a3)
    5574:	0007d783          	lhu	a5,0(a5)
    5578:	0705                	addi	a4,a4,1
    557a:	0ff77713          	andi	a4,a4,255
    557e:	8f95                	sub	a5,a5,a3
    5580:	41f7d693          	srai	a3,a5,0x1f
    5584:	8fb5                	xor	a5,a5,a3
    5586:	8f95                	sub	a5,a5,a3
    5588:	953e                	add	a0,a0,a5
    558a:	fc876be3          	bltu	a4,s0,5560 <train+0x4b8>
    558e:	211050ef          	jal	ra,af9e <__floatunsisf>
    5592:	872a                	mv	a4,a0
    5594:	8522                	mv	a0,s0
    5596:	c83a                	sw	a4,16(sp)
    5598:	207050ef          	jal	ra,af9e <__floatunsisf>
    559c:	fff40793          	addi	a5,s0,-1
    55a0:	03a787b3          	mul	a5,a5,s10
    55a4:	c22a                	sw	a0,4(sp)
    55a6:	97ce                	add	a5,a5,s3
    55a8:	5788                	lw	a0,40(a5)
    55aa:	1f5050ef          	jal	ra,af9e <__floatunsisf>
    55ae:	45e2                	lw	a1,24(sp)
    55b0:	37c050ef          	jal	ra,a92c <__mulsf3>
    55b4:	4592                	lw	a1,4(sp)
    55b6:	03e050ef          	jal	ra,a5f4 <__divsf3>
    55ba:	4742                	lw	a4,16(sp)
    55bc:	4592                	lw	a1,4(sp)
    55be:	c62a                	sw	a0,12(sp)
    55c0:	853a                	mv	a0,a4
    55c2:	032050ef          	jal	ra,a5f4 <__divsf3>
    55c6:	45f2                	lw	a1,28(sp)
    55c8:	364050ef          	jal	ra,a92c <__mulsf3>
    55cc:	47b2                	lw	a5,12(sp)
    55ce:	85aa                	mv	a1,a0
    55d0:	853e                	mv	a0,a5
    55d2:	4b9040ef          	jal	ra,a28a <__addsf3>
    55d6:	173050ef          	jal	ra,af48 <__fixunssfsi>
    55da:	47a2                	lw	a5,8(sp)
    55dc:	00f57363          	bgeu	a0,a5,55e2 <train+0x53a>
    55e0:	c42a                	sw	a0,8(sp)
    55e2:	47d2                	lw	a5,20(sp)
    55e4:	00148313          	addi	t1,s1,1
    55e8:	0ff37493          	andi	s1,t1,255
    55ec:	0047d703          	lhu	a4,4(a5)
    55f0:	85a6                	mv	a1,s1
    55f2:	06470793          	addi	a5,a4,100
    55f6:	40878fb3          	sub	t6,a5,s0
    55fa:	d49fd8e3          	bge	t6,s1,534a <train+0x2a2>
    55fe:	57e2                	lw	a5,56(sp)
    5600:	46a2                	lw	a3,8(sp)
    5602:	0791                	addi	a5,a5,4
    5604:	fed7ae23          	sw	a3,-4(a5)
    5608:	56c2                	lw	a3,48(sp)
    560a:	dc3e                	sw	a5,56(sp)
    560c:	191c                	addi	a5,sp,176
    560e:	0691                	addi	a3,a3,4
    5610:	d836                	sw	a3,48(sp)
    5612:	d0d796e3          	bne	a5,a3,531e <train+0x276>
    5616:	4615                	li	a2,5
    5618:	45a9                	li	a1,10
    561a:	587d                	li	a6,-1
    561c:	5486                	lw	s1,96(sp)
    561e:	10dc                	addi	a5,sp,100
    5620:	4401                	li	s0,0
    5622:	4701                	li	a4,0
    5624:	0405                	addi	s0,s0,1
    5626:	0ff47413          	andi	s0,s0,255
    562a:	00b40d63          	beq	s0,a1,5644 <train+0x59c>
    562e:	4394                	lw	a3,0(a5)
    5630:	0791                	addi	a5,a5,4
    5632:	fe96f9e3          	bgeu	a3,s1,5624 <train+0x57c>
    5636:	8722                	mv	a4,s0
    5638:	0405                	addi	s0,s0,1
    563a:	0ff47413          	andi	s0,s0,255
    563e:	84b6                	mv	s1,a3
    5640:	feb417e3          	bne	s0,a1,562e <train+0x586>
    5644:	049c                	addi	a5,sp,576
    5646:	00e78533          	add	a0,a5,a4
    564a:	e0054683          	lbu	a3,-512(a0)
    564e:	00271793          	slli	a5,a4,0x2
    5652:	0498                	addi	a4,sp,576
    5654:	97ba                	add	a5,a5,a4
    5656:	167d                	addi	a2,a2,-1
    5658:	00168713          	addi	a4,a3,1
    565c:	e307a023          	sw	a6,-480(a5)
    5660:	e0e50023          	sb	a4,-512(a0)
    5664:	0ff67613          	andi	a2,a2,255
    5668:	fa55                	bnez	a2,561c <train+0x574>
    566a:	4501                	li	a0,0
    566c:	61a000ef          	jal	ra,5c86 <lcd_clear>
    5670:	5a32                	lw	s4,44(sp)
    5672:	0000e7b7          	lui	a5,0xe
    5676:	30878693          	addi	a3,a5,776 # e308 <ch32_uart_ops+0x2ac>
    567a:	8752                	mv	a4,s4
    567c:	4641                	li	a2,16
    567e:	05000593          	li	a1,80
    5682:	4551                	li	a0,20
    5684:	128010ef          	jal	ra,67ac <lcd_show_string>
    5688:	0000e7b7          	lui	a5,0xe
    568c:	8726                	mv	a4,s1
    568e:	24078693          	addi	a3,a5,576 # e240 <ch32_uart_ops+0x1e4>
    5692:	06400513          	li	a0,100
    5696:	02000613          	li	a2,32
    569a:	08c00593          	li	a1,140
    569e:	10e010ef          	jal	ra,67ac <lcd_show_string>
    56a2:	001a0793          	addi	a5,s4,1
    56a6:	84be                	mv	s1,a5
    56a8:	2ee00513          	li	a0,750
    56ac:	d63e                	sw	a5,44(sp)
    56ae:	367030ef          	jal	ra,9214 <Delay_Ms>
    56b2:	bc8491e3          	bne	s1,s0,5274 <train+0x1cc>
    56b6:	04014403          	lbu	s0,64(sp)
    56ba:	0098                	addi	a4,sp,64
    56bc:	4481                	li	s1,0
    56be:	4785                	li	a5,1
    56c0:	4629                	li	a2,10
    56c2:	00174683          	lbu	a3,1(a4)
    56c6:	00178593          	addi	a1,a5,1
    56ca:	0705                	addi	a4,a4,1
    56cc:	00d47463          	bgeu	s0,a3,56d4 <train+0x62c>
    56d0:	84be                	mv	s1,a5
    56d2:	8436                	mv	s0,a3
    56d4:	0ff5f793          	andi	a5,a1,255
    56d8:	fec795e3          	bne	a5,a2,56c2 <train+0x61a>
    56dc:	4501                	li	a0,0
    56de:	2365                	jal	5c86 <lcd_clear>
    56e0:	0000e6b7          	lui	a3,0xe
    56e4:	32068693          	addi	a3,a3,800 # e320 <ch32_uart_ops+0x2c4>
    56e8:	8722                	mv	a4,s0
    56ea:	47a9                	li	a5,10
    56ec:	4661                	li	a2,24
    56ee:	08c00593          	li	a1,140
    56f2:	02800513          	li	a0,40
    56f6:	0b6010ef          	jal	ra,67ac <lcd_show_string>
    56fa:	2ee00513          	li	a0,750
    56fe:	317030ef          	jal	ra,9214 <Delay_Ms>
    5702:	0498                	addi	a4,sp,576
    5704:	00249793          	slli	a5,s1,0x2
    5708:	97ba                	add	a5,a5,a4
    570a:	e487a903          	lw	s2,-440(a5)
    570e:	57d2                	lw	a5,52(sp)
    5710:	00495603          	lhu	a2,4(s2)
    5714:	00279413          	slli	s0,a5,0x2
    5718:	200007b7          	lui	a5,0x20000
    571c:	14078793          	addi	a5,a5,320 # 20000140 <AddrTemp>
    5720:	97a2                	add	a5,a5,s0
    5722:	4388                	lw	a0,0(a5)
    5724:	00092583          	lw	a1,0(s2)
    5728:	803ff0ef          	jal	ra,4f2a <TemplateSave>
    572c:	200007b7          	lui	a5,0x20000
    5730:	16078793          	addi	a5,a5,352 # 20000160 <AddrTempSize>
    5734:	97a2                	add	a5,a5,s0
    5736:	4388                	lw	a0,0(a5)
    5738:	4605                	li	a2,1
    573a:	00490593          	addi	a1,s2,4
    573e:	fecff0ef          	jal	ra,4f2a <TemplateSave>
    5742:	200007b7          	lui	a5,0x20000
    5746:	15078793          	addi	a5,a5,336 # 20000150 <AddrTempPeak>
    574a:	943e                	add	s0,s0,a5
    574c:	4008                	lw	a0,0(s0)
    574e:	00fc                	addi	a5,sp,76
    5750:	00149593          	slli	a1,s1,0x1
    5754:	4605                	li	a2,1
    5756:	95be                	add	a1,a1,a5
    5758:	fd2ff0ef          	jal	ra,4f2a <TemplateSave>
    575c:	5472                	lw	s0,60(sp)
    575e:	4004                	lw	s1,0(s0)
    5760:	0411                	addi	s0,s0,4
    5762:	4088                	lw	a0,0(s1)
    5764:	84afc0ef          	jal	ra,17ae <rt_free>
    5768:	8526                	mv	a0,s1
    576a:	0004a023          	sw	zero,0(s1)
    576e:	840fc0ef          	jal	ra,17ae <rt_free>
    5772:	191c                	addi	a5,sp,176
    5774:	fe042e23          	sw	zero,-4(s0)
    5778:	fe8793e3          	bne	a5,s0,575e <train+0x6b6>
    577c:	24010113          	addi	sp,sp,576
    5780:	c6ffa06f          	j	3ee <__riscv_restore_12>
    5784:	e825                	bnez	s0,57f4 <train+0x74c>
    5786:	00000713          	li	a4,0
    578a:	b529                	j	5594 <train+0x4ec>
    578c:	57fd                	li	a5,-1
    578e:	c43e                	sw	a5,8(sp)
    5790:	b5bd                	j	55fe <train+0x556>
    5792:	47d2                	lw	a5,20(sp)
    5794:	438c                	lw	a1,0(a5)
    5796:	4781                	li	a5,0
    5798:	00179613          	slli	a2,a5,0x1
    579c:	962e                	add	a2,a2,a1
    579e:	03278693          	addi	a3,a5,50
    57a2:	00065603          	lhu	a2,0(a2)
    57a6:	0686                	slli	a3,a3,0x1
    57a8:	0488                	addi	a0,sp,576
    57aa:	96aa                	add	a3,a3,a0
    57ac:	0785                	addi	a5,a5,1
    57ae:	e6c69823          	sh	a2,-400(a3)
    57b2:	0ff7f793          	andi	a5,a5,255
    57b6:	fee7e1e3          	bltu	a5,a4,5798 <train+0x6f0>
    57ba:	03270793          	addi	a5,a4,50
    57be:	0786                	slli	a5,a5,0x1
    57c0:	00171693          	slli	a3,a4,0x1
    57c4:	1ab0                	addi	a2,sp,376
    57c6:	190c                	addi	a1,sp,176
    57c8:	97ae                	add	a5,a5,a1
    57ca:	96b2                	add	a3,a3,a2
    57cc:	91c1d603          	lhu	a2,-1764(gp) # 20003444 <ThreshVolt>
    57d0:	0789                	addi	a5,a5,2
    57d2:	fec79f23          	sh	a2,-2(a5)
    57d6:	fef69be3          	bne	a3,a5,57cc <train+0x724>
    57da:	bcf5                	j	52d6 <train+0x22e>
    57dc:	216d                	jal	5c86 <lcd_clear>
    57de:	0000e6b7          	lui	a3,0xe
    57e2:	2f868693          	addi	a3,a3,760 # e2f8 <ch32_uart_ops+0x29c>
    57e6:	4641                	li	a2,16
    57e8:	05000593          	li	a1,80
    57ec:	4551                	li	a0,20
    57ee:	7bf000ef          	jal	ra,67ac <lcd_show_string>
    57f2:	b769                	j	577c <train+0x6d4>
    57f4:	00159793          	slli	a5,a1,0x1
    57f8:	0498                	addi	a4,sp,576
    57fa:	97ba                	add	a5,a5,a4
    57fc:	e707d783          	lhu	a5,-400(a5)
    5800:	000bd503          	lhu	a0,0(s7)
    5804:	8d1d                	sub	a0,a0,a5
    5806:	41f55793          	srai	a5,a0,0x1f
    580a:	8d3d                	xor	a0,a0,a5
    580c:	8d1d                	sub	a0,a0,a5
    580e:	b341                	j	558e <train+0x4e6>

00005810 <ADC_Function_Init>:
    5810:	bd3fa2ef          	jal	t0,3e2 <__riscv_save_0>
    5814:	7179                	addi	sp,sp,-48
    5816:	4585                	li	a1,1
    5818:	4511                	li	a0,4
    581a:	64c030ef          	jal	ra,8e66 <RCC_APB2PeriphClockCmd>
    581e:	4585                	li	a1,1
    5820:	20000513          	li	a0,512
    5824:	642030ef          	jal	ra,8e66 <RCC_APB2PeriphClockCmd>
    5828:	6531                	lui	a0,0xc
    582a:	478030ef          	jal	ra,8ca2 <RCC_ADCCLKConfig>
    582e:	40011537          	lui	a0,0x40011
    5832:	4789                	li	a5,2
    5834:	004c                	addi	a1,sp,4
    5836:	80050513          	addi	a0,a0,-2048 # 40010800 <_eusrstack+0x20000800>
    583a:	40012437          	lui	s0,0x40012
    583e:	00f11223          	sh	a5,4(sp)
    5842:	c602                	sw	zero,12(sp)
    5844:	258030ef          	jal	ra,8a9c <GPIO_Init>
    5848:	40040513          	addi	a0,s0,1024 # 40012400 <_eusrstack+0x20002400>
    584c:	3cb020ef          	jal	ra,8416 <ADC_DeInit>
    5850:	4785                	li	a5,1
    5852:	000e0737          	lui	a4,0xe0
    5856:	40040513          	addi	a0,s0,1024
    585a:	080c                	addi	a1,sp,16
    585c:	cc3e                	sw	a5,24(sp)
    585e:	ce3a                	sw	a4,28(sp)
    5860:	02f10223          	sb	a5,36(sp)
    5864:	c802                	sw	zero,16(sp)
    5866:	ca02                	sw	zero,20(sp)
    5868:	d002                	sw	zero,32(sp)
    586a:	3fd020ef          	jal	ra,8466 <ADC_Init>
    586e:	40040513          	addi	a0,s0,1024
    5872:	4585                	li	a1,1
    5874:	461020ef          	jal	ra,84d4 <ADC_DMACmd>
    5878:	4585                	li	a1,1
    587a:	40040513          	addi	a0,s0,1024
    587e:	445020ef          	jal	ra,84c2 <ADC_Cmd>
    5882:	4551                	li	a0,20
    5884:	191030ef          	jal	ra,9214 <Delay_Ms>
    5888:	40040513          	addi	a0,s0,1024
    588c:	4581                	li	a1,0
    588e:	557020ef          	jal	ra,85e4 <ADC_BufferCmd>
    5892:	40040513          	addi	a0,s0,1024
    5896:	400124b7          	lui	s1,0x40012
    589a:	44f020ef          	jal	ra,84e8 <ADC_ResetCalibration>
    589e:	40048413          	addi	s0,s1,1024 # 40012400 <_eusrstack+0x20002400>
    58a2:	8522                	mv	a0,s0
    58a4:	44f020ef          	jal	ra,84f2 <ADC_GetResetCalibrationStatus>
    58a8:	fd6d                	bnez	a0,58a2 <ADC_Function_Init+0x92>
    58aa:	40048513          	addi	a0,s1,1024
    58ae:	400124b7          	lui	s1,0x40012
    58b2:	449020ef          	jal	ra,84fa <ADC_StartCalibration>
    58b6:	40048413          	addi	s0,s1,1024 # 40012400 <_eusrstack+0x20002400>
    58ba:	8522                	mv	a0,s0
    58bc:	449020ef          	jal	ra,8504 <ADC_GetCalibrationStatus>
    58c0:	fd6d                	bnez	a0,58ba <ADC_Function_Init+0xaa>
    58c2:	4585                	li	a1,1
    58c4:	40048513          	addi	a0,s1,1024
    58c8:	51d020ef          	jal	ra,85e4 <ADC_BufferCmd>
    58cc:	6145                	addi	sp,sp,48
    58ce:	b39fa06f          	j	406 <__riscv_restore_0>

000058d2 <DMA1_Init>:
    58d2:	af7fa2ef          	jal	t0,3c8 <__riscv_save_4>
    58d6:	7179                	addi	sp,sp,-48
    58d8:	842a                	mv	s0,a0
    58da:	89ae                	mv	s3,a1
    58dc:	4505                	li	a0,1
    58de:	4585                	li	a1,1
    58e0:	8932                	mv	s2,a2
    58e2:	84b6                	mv	s1,a3
    58e4:	c202                	sw	zero,4(sp)
    58e6:	c402                	sw	zero,8(sp)
    58e8:	c602                	sw	zero,12(sp)
    58ea:	c802                	sw	zero,16(sp)
    58ec:	ca02                	sw	zero,20(sp)
    58ee:	cc02                	sw	zero,24(sp)
    58f0:	ce02                	sw	zero,28(sp)
    58f2:	d002                	sw	zero,32(sp)
    58f4:	d202                	sw	zero,36(sp)
    58f6:	d402                	sw	zero,40(sp)
    58f8:	d602                	sw	zero,44(sp)
    58fa:	54e030ef          	jal	ra,8e48 <RCC_AHBPeriphClockCmd>
    58fe:	8522                	mv	a0,s0
    5900:	509020ef          	jal	ra,8608 <DMA_DeInit>
    5904:	08000793          	li	a5,128
    5908:	cc3e                	sw	a5,24(sp)
    590a:	10000793          	li	a5,256
    590e:	ce3e                	sw	a5,28(sp)
    5910:	40000793          	li	a5,1024
    5914:	004c                	addi	a1,sp,4
    5916:	d03e                	sw	a5,32(sp)
    5918:	8522                	mv	a0,s0
    591a:	6789                	lui	a5,0x2
    591c:	c24e                	sw	s3,4(sp)
    591e:	c44a                	sw	s2,8(sp)
    5920:	c826                	sw	s1,16(sp)
    5922:	d43e                	sw	a5,40(sp)
    5924:	c602                	sw	zero,12(sp)
    5926:	ca02                	sw	zero,20(sp)
    5928:	d202                	sw	zero,36(sp)
    592a:	d602                	sw	zero,44(sp)
    592c:	68d020ef          	jal	ra,87b8 <DMA_Init>
    5930:	6145                	addi	sp,sp,48
    5932:	acbfa06f          	j	3fc <__riscv_restore_4>

00005936 <DMA1Interrupt_Init>:
    5936:	aadfa2ef          	jal	t0,3e2 <__riscv_save_0>
    593a:	1141                	addi	sp,sp,-16
    593c:	11b00793          	li	a5,283
    5940:	00011523          	sh	zero,10(sp)
    5944:	00f11423          	sh	a5,8(sp)
    5948:	4789                	li	a5,2
    594a:	0028                	addi	a0,sp,8
    594c:	00f10523          	sb	a5,10(sp)
    5950:	4785                	li	a5,1
    5952:	c63e                	sw	a5,12(sp)
    5954:	268030ef          	jal	ra,8bbc <NVIC_Init>
    5958:	0141                	addi	sp,sp,16
    595a:	aadfa06f          	j	406 <__riscv_restore_0>

0000595e <DMA1_Channel1_IRQHandler>:
    595e:	0000e537          	lui	a0,0xe
    5962:	33450513          	addi	a0,a0,820 # e334 <ch32_uart_ops+0x2d8>
    5966:	ab3fb0ef          	jal	ra,1418 <rt_kprintf>
    596a:	9101d783          	lhu	a5,-1776(gp) # 20003438 <LaserFlag>
    596e:	4705                	li	a4,1
    5970:	06f70463          	beq	a4,a5,59d8 <DMA1_Channel1_IRQHandler+0x7a>
    5974:	9201a683          	lw	a3,-1760(gp) # 20003448 <p_AdcDmaData>
    5978:	47c9                	li	a5,18
    597a:	8f818593          	addi	a1,gp,-1800 # 20003420 <s>
    597e:	8f418613          	addi	a2,gp,-1804 # 2000341c <i>
    5982:	00f61023          	sh	a5,0(a2)
    5986:	00059023          	sh	zero,0(a1)
    598a:	02468693          	addi	a3,a3,36
    598e:	4701                	li	a4,0
    5990:	47c9                	li	a5,18
    5992:	4869                	li	a6,26
    5994:	0006d503          	lhu	a0,0(a3)
    5998:	0785                	addi	a5,a5,1
    599a:	07c2                	slli	a5,a5,0x10
    599c:	972a                	add	a4,a4,a0
    599e:	0742                	slli	a4,a4,0x10
    59a0:	83c1                	srli	a5,a5,0x10
    59a2:	8341                	srli	a4,a4,0x10
    59a4:	00e59023          	sh	a4,0(a1)
    59a8:	00f61023          	sh	a5,0(a2)
    59ac:	0689                	addi	a3,a3,2
    59ae:	ff0793e3          	bne	a5,a6,5994 <DMA1_Channel1_IRQHandler+0x36>
    59b2:	8f318793          	addi	a5,gp,-1805 # 2000341b <dma_cnt>
    59b6:	0007c683          	lbu	a3,0(a5) # 2000 <rt_timer_start+0x4a>
    59ba:	830d                	srli	a4,a4,0x3
    59bc:	0106e693          	ori	a3,a3,16
    59c0:	90e19123          	sh	a4,-1790(gp) # 2000342a <DataLaserOff>
    59c4:	00d78023          	sb	a3,0(a5)
    59c8:	4745                	li	a4,17
    59ca:	06e68463          	beq	a3,a4,5a32 <DMA1_Channel1_IRQHandler+0xd4>
    59ce:	4509                	li	a0,2
    59d0:	653020ef          	jal	ra,8822 <DMA_ClearFlag>
    59d4:	30200073          	mret
    59d8:	9201a683          	lw	a3,-1760(gp) # 20003448 <p_AdcDmaData>
    59dc:	47c9                	li	a5,18
    59de:	8f818593          	addi	a1,gp,-1800 # 20003420 <s>
    59e2:	8f418613          	addi	a2,gp,-1804 # 2000341c <i>
    59e6:	00f61023          	sh	a5,0(a2)
    59ea:	00059023          	sh	zero,0(a1)
    59ee:	02468693          	addi	a3,a3,36
    59f2:	4701                	li	a4,0
    59f4:	47c9                	li	a5,18
    59f6:	4869                	li	a6,26
    59f8:	0006d503          	lhu	a0,0(a3)
    59fc:	0785                	addi	a5,a5,1
    59fe:	07c2                	slli	a5,a5,0x10
    5a00:	972a                	add	a4,a4,a0
    5a02:	0742                	slli	a4,a4,0x10
    5a04:	83c1                	srli	a5,a5,0x10
    5a06:	8341                	srli	a4,a4,0x10
    5a08:	00e59023          	sh	a4,0(a1)
    5a0c:	00f61023          	sh	a5,0(a2)
    5a10:	0689                	addi	a3,a3,2
    5a12:	ff0793e3          	bne	a5,a6,59f8 <DMA1_Channel1_IRQHandler+0x9a>
    5a16:	8f318793          	addi	a5,gp,-1805 # 2000341b <dma_cnt>
    5a1a:	0007c683          	lbu	a3,0(a5)
    5a1e:	830d                	srli	a4,a4,0x3
    5a20:	0016e693          	ori	a3,a3,1
    5a24:	90e19223          	sh	a4,-1788(gp) # 2000342c <DataLaserOn>
    5a28:	00d78023          	sb	a3,0(a5)
    5a2c:	4745                	li	a4,17
    5a2e:	fae690e3          	bne	a3,a4,59ce <DMA1_Channel1_IRQHandler+0x70>
    5a32:	9041d803          	lhu	a6,-1788(gp) # 2000342c <DataLaserOn>
    5a36:	8fa18613          	addi	a2,gp,-1798 # 20003422 <s_dif>
    5a3a:	9021d503          	lhu	a0,-1790(gp) # 2000342a <DataLaserOff>
    5a3e:	00065703          	lhu	a4,0(a2)
    5a42:	8f618593          	addi	a1,gp,-1802 # 2000341e <j>
    5a46:	0005c683          	lbu	a3,0(a1)
    5a4a:	9742                	add	a4,a4,a6
    5a4c:	8f09                	sub	a4,a4,a0
    5a4e:	0742                	slli	a4,a4,0x10
    5a50:	8341                	srli	a4,a4,0x10
    5a52:	0685                	addi	a3,a3,1
    5a54:	00e61023          	sh	a4,0(a2)
    5a58:	0ff6f713          	andi	a4,a3,255
    5a5c:	4691                	li	a3,4
    5a5e:	00d70b63          	beq	a4,a3,5a74 <DMA1_Channel1_IRQHandler+0x116>
    5a62:	00e58023          	sb	a4,0(a1)
    5a66:	00078023          	sb	zero,0(a5)
    5a6a:	4509                	li	a0,2
    5a6c:	5b7020ef          	jal	ra,8822 <DMA_ClearFlag>
    5a70:	30200073          	mret
    5a74:	00065703          	lhu	a4,0(a2)
    5a78:	8309                	srli	a4,a4,0x2
    5a7a:	90e19623          	sh	a4,-1780(gp) # 20003434 <DifData>
    5a7e:	00061023          	sh	zero,0(a2)
    5a82:	91e1c603          	lbu	a2,-1762(gp) # 20003446 <offset_p>
    5a86:	9081a703          	lw	a4,-1784(gp) # 20003430 <DataStream>
    5a8a:	90c1d503          	lhu	a0,-1780(gp) # 20003434 <DifData>
    5a8e:	0606                	slli	a2,a2,0x1
    5a90:	9732                	add	a4,a4,a2
    5a92:	00058023          	sb	zero,0(a1)
    5a96:	00a71023          	sh	a0,0(a4) # e0000 <__rt_init_end+0xce6c0>
    5a9a:	91e1c703          	lbu	a4,-1762(gp) # 20003446 <offset_p>
    5a9e:	00078023          	sb	zero,0(a5)
    5aa2:	0705                	addi	a4,a4,1
    5aa4:	0ff77713          	andi	a4,a4,255
    5aa8:	90e18f23          	sb	a4,-1762(gp) # 20003446 <offset_p>
    5aac:	4685                	li	a3,1
    5aae:	8ed19f23          	sh	a3,-1794(gp) # 20003426 <DMAProcessFlag>
    5ab2:	bf65                	j	5a6a <DMA1_Channel1_IRQHandler+0x10c>

00005ab4 <NMI_Handler>:
    5ab4:	34011173          	csrrw	sp,mscratch,sp
    5ab8:	93afb0ef          	jal	ra,bf2 <rt_interrupt_enter>
    5abc:	0000e537          	lui	a0,0xe
    5ac0:	34c50513          	addi	a0,a0,844 # e34c <ch32_uart_ops+0x2f0>
    5ac4:	955fb0ef          	jal	ra,1418 <rt_kprintf>
    5ac8:	95cfb0ef          	jal	ra,c24 <rt_interrupt_leave>
    5acc:	34011173          	csrrw	sp,mscratch,sp
    5ad0:	30200073          	mret

00005ad4 <HardFault_Handler>:
    5ad4:	34011173          	csrrw	sp,mscratch,sp
    5ad8:	91afb0ef          	jal	ra,bf2 <rt_interrupt_enter>
    5adc:	0000e537          	lui	a0,0xe
    5ae0:	34050513          	addi	a0,a0,832 # e340 <ch32_uart_ops+0x2e4>
    5ae4:	935fb0ef          	jal	ra,1418 <rt_kprintf>
    5ae8:	93cfb0ef          	jal	ra,c24 <rt_interrupt_leave>
    5aec:	34011173          	csrrw	sp,mscratch,sp
    5af0:	30200073          	mret

00005af4 <lcd_fsmc_init>:
    5af4:	8d5fa2ef          	jal	t0,3c8 <__riscv_save_4>
    5af8:	7119                	addi	sp,sp,-128
    5afa:	4585                	li	a1,1
    5afc:	10000513          	li	a0,256
    5b00:	c002                	sw	zero,0(sp)
    5b02:	c202                	sw	zero,4(sp)
    5b04:	c402                	sw	zero,8(sp)
    5b06:	c282                	sw	zero,68(sp)
    5b08:	c482                	sw	zero,72(sp)
    5b0a:	c682                	sw	zero,76(sp)
    5b0c:	c882                	sw	zero,80(sp)
    5b0e:	ca82                	sw	zero,84(sp)
    5b10:	cc82                	sw	zero,88(sp)
    5b12:	ce82                	sw	zero,92(sp)
    5b14:	d082                	sw	zero,96(sp)
    5b16:	d282                	sw	zero,100(sp)
    5b18:	d482                	sw	zero,104(sp)
    5b1a:	d682                	sw	zero,108(sp)
    5b1c:	d882                	sw	zero,112(sp)
    5b1e:	da82                	sw	zero,116(sp)
    5b20:	dc82                	sw	zero,120(sp)
    5b22:	de82                	sw	zero,124(sp)
    5b24:	c602                	sw	zero,12(sp)
    5b26:	c802                	sw	zero,16(sp)
    5b28:	ca02                	sw	zero,20(sp)
    5b2a:	cc02                	sw	zero,24(sp)
    5b2c:	ce02                	sw	zero,28(sp)
    5b2e:	d002                	sw	zero,32(sp)
    5b30:	d202                	sw	zero,36(sp)
    5b32:	d402                	sw	zero,40(sp)
    5b34:	d602                	sw	zero,44(sp)
    5b36:	d802                	sw	zero,48(sp)
    5b38:	da02                	sw	zero,52(sp)
    5b3a:	dc02                	sw	zero,56(sp)
    5b3c:	de02                	sw	zero,60(sp)
    5b3e:	c082                	sw	zero,64(sp)
    5b40:	308030ef          	jal	ra,8e48 <RCC_AHBPeriphClockCmd>
    5b44:	4585                	li	a1,1
    5b46:	06c00513          	li	a0,108
    5b4a:	31c030ef          	jal	ra,8e66 <RCC_APB2PeriphClockCmd>
    5b4e:	400114b7          	lui	s1,0x40011
    5b52:	440d                	li	s0,3
    5b54:	4a41                	li	s4,16
    5b56:	858a                	mv	a1,sp
    5b58:	c0048513          	addi	a0,s1,-1024 # 40010c00 <_eusrstack+0x20000c00>
    5b5c:	6791                	lui	a5,0x4
    5b5e:	00f11023          	sh	a5,0(sp)
    5b62:	c452                	sw	s4,8(sp)
    5b64:	c222                	sw	s0,4(sp)
    5b66:	737020ef          	jal	ra,8a9c <GPIO_Init>
    5b6a:	77f1                	lui	a5,0xffffc
    5b6c:	49e1                	li	s3,24
    5b6e:	858a                	mv	a1,sp
    5b70:	40048513          	addi	a0,s1,1024
    5b74:	73378793          	addi	a5,a5,1843 # ffffc733 <_eusrstack+0xdffec733>
    5b78:	00f11023          	sh	a5,0(sp)
    5b7c:	c44e                	sw	s3,8(sp)
    5b7e:	c222                	sw	s0,4(sp)
    5b80:	71d020ef          	jal	ra,8a9c <GPIO_Init>
    5b84:	40012537          	lui	a0,0x40012
    5b88:	f8000793          	li	a5,-128
    5b8c:	858a                	mv	a1,sp
    5b8e:	80050513          	addi	a0,a0,-2048 # 40011800 <_eusrstack+0x20001800>
    5b92:	00f11023          	sh	a5,0(sp)
    5b96:	c44e                	sw	s3,8(sp)
    5b98:	c222                	sw	s0,4(sp)
    5b9a:	703020ef          	jal	ra,8a9c <GPIO_Init>
    5b9e:	858a                	mv	a1,sp
    5ba0:	40048513          	addi	a0,s1,1024
    5ba4:	6905                	lui	s2,0x1
    5ba6:	01211023          	sh	s2,0(sp)
    5baa:	c44e                	sw	s3,8(sp)
    5bac:	c222                	sw	s0,4(sp)
    5bae:	6ef020ef          	jal	ra,8a9c <GPIO_Init>
    5bb2:	858a                	mv	a1,sp
    5bb4:	40048513          	addi	a0,s1,1024
    5bb8:	80090913          	addi	s2,s2,-2048 # 800 <__stack_size>
    5bbc:	6985                	lui	s3,0x1
    5bbe:	01211023          	sh	s2,0(sp)
    5bc2:	c452                	sw	s4,8(sp)
    5bc4:	c222                	sw	s0,4(sp)
    5bc6:	6d7020ef          	jal	ra,8a9c <GPIO_Init>
    5bca:	80098593          	addi	a1,s3,-2048 # 800 <__stack_size>
    5bce:	40048513          	addi	a0,s1,1024
    5bd2:	7ad020ef          	jal	ra,8b7e <GPIO_ResetBits>
    5bd6:	4785                	li	a5,1
    5bd8:	c63e                	sw	a5,12(sp)
    5bda:	47bd                	li	a5,15
    5bdc:	ca3e                	sw	a5,20(sp)
    5bde:	6791                	lui	a5,0x4
    5be0:	d8be                	sw	a5,112(sp)
    5be2:	007c                	addi	a5,sp,12
    5be4:	00c8                	addi	a0,sp,68
    5be6:	dcbe                	sw	a5,120(sp)
    5be8:	103c                	addi	a5,sp,40
    5bea:	debe                	sw	a5,124(sp)
    5bec:	d822                	sw	s0,48(sp)
    5bee:	d4ce                	sw	s3,104(sp)
    5bf0:	c802                	sw	zero,16(sp)
    5bf2:	cc02                	sw	zero,24(sp)
    5bf4:	ce02                	sw	zero,28(sp)
    5bf6:	d002                	sw	zero,32(sp)
    5bf8:	d202                	sw	zero,36(sp)
    5bfa:	d402                	sw	zero,40(sp)
    5bfc:	d602                	sw	zero,44(sp)
    5bfe:	da02                	sw	zero,52(sp)
    5c00:	dc02                	sw	zero,56(sp)
    5c02:	de02                	sw	zero,60(sp)
    5c04:	c082                	sw	zero,64(sp)
    5c06:	c282                	sw	zero,68(sp)
    5c08:	c482                	sw	zero,72(sp)
    5c0a:	c682                	sw	zero,76(sp)
    5c0c:	c882                	sw	zero,80(sp)
    5c0e:	ca82                	sw	zero,84(sp)
    5c10:	ce82                	sw	zero,92(sp)
    5c12:	cc82                	sw	zero,88(sp)
    5c14:	d082                	sw	zero,96(sp)
    5c16:	d282                	sw	zero,100(sp)
    5c18:	d682                	sw	zero,108(sp)
    5c1a:	da82                	sw	zero,116(sp)
    5c1c:	587020ef          	jal	ra,89a2 <FSMC_NORSRAMInit>
    5c20:	4585                	li	a1,1
    5c22:	4501                	li	a0,0
    5c24:	659020ef          	jal	ra,8a7c <FSMC_NORSRAMCmd>
    5c28:	6109                	addi	sp,sp,128
    5c2a:	fd2fa06f          	j	3fc <__riscv_restore_4>

00005c2e <lcd_gpio_init>:
    5c2e:	fb4fa2ef          	jal	t0,3e2 <__riscv_save_0>
    5c32:	1141                	addi	sp,sp,-16
    5c34:	4585                	li	a1,1
    5c36:	02000513          	li	a0,32
    5c3a:	22c030ef          	jal	ra,8e66 <RCC_APB2PeriphClockCmd>
    5c3e:	6789                	lui	a5,0x2
    5c40:	40011437          	lui	s0,0x40011
    5c44:	00f11223          	sh	a5,4(sp)
    5c48:	47c1                	li	a5,16
    5c4a:	004c                	addi	a1,sp,4
    5c4c:	40040513          	addi	a0,s0,1024 # 40011400 <_eusrstack+0x20001400>
    5c50:	c63e                	sw	a5,12(sp)
    5c52:	478d                	li	a5,3
    5c54:	c43e                	sw	a5,8(sp)
    5c56:	647020ef          	jal	ra,8a9c <GPIO_Init>
    5c5a:	40040513          	addi	a0,s0,1024
    5c5e:	6589                	lui	a1,0x2
    5c60:	71b020ef          	jal	ra,8b7a <GPIO_SetBits>
    5c64:	6589                	lui	a1,0x2
    5c66:	40040513          	addi	a0,s0,1024
    5c6a:	715020ef          	jal	ra,8b7e <GPIO_ResetBits>
    5c6e:	06400513          	li	a0,100
    5c72:	5a2030ef          	jal	ra,9214 <Delay_Ms>
    5c76:	6589                	lui	a1,0x2
    5c78:	40040513          	addi	a0,s0,1024
    5c7c:	6ff020ef          	jal	ra,8b7a <GPIO_SetBits>
    5c80:	0141                	addi	sp,sp,16
    5c82:	f84fa06f          	j	406 <__riscv_restore_0>

00005c86 <lcd_clear>:
    5c86:	600207b7          	lui	a5,0x60020
    5c8a:	02a00713          	li	a4,42
    5c8e:	fee78fa3          	sb	a4,-1(a5) # 6001ffff <_eusrstack+0x4000ffff>
    5c92:	00078023          	sb	zero,0(a5)
    5c96:	00078023          	sb	zero,0(a5)
    5c9a:	00078023          	sb	zero,0(a5)
    5c9e:	573d                	li	a4,-17
    5ca0:	00e78023          	sb	a4,0(a5)
    5ca4:	02b00693          	li	a3,43
    5ca8:	fed78fa3          	sb	a3,-1(a5)
    5cac:	00078023          	sb	zero,0(a5)
    5cb0:	00078023          	sb	zero,0(a5)
    5cb4:	00078023          	sb	zero,0(a5)
    5cb8:	00e78023          	sb	a4,0(a5)
    5cbc:	02c00713          	li	a4,44
    5cc0:	fee78fa3          	sb	a4,-1(a5)
    5cc4:	00855613          	srli	a2,a0,0x8
    5cc8:	0ff57693          	andi	a3,a0,255
    5ccc:	0f000593          	li	a1,240
    5cd0:	60020737          	lui	a4,0x60020
    5cd4:	0f000793          	li	a5,240
    5cd8:	17fd                	addi	a5,a5,-1
    5cda:	00c70023          	sb	a2,0(a4) # 60020000 <_eusrstack+0x40010000>
    5cde:	07c2                	slli	a5,a5,0x10
    5ce0:	00d70023          	sb	a3,0(a4)
    5ce4:	83c1                	srli	a5,a5,0x10
    5ce6:	fbed                	bnez	a5,5cd8 <lcd_clear+0x52>
    5ce8:	15fd                	addi	a1,a1,-1
    5cea:	05c2                	slli	a1,a1,0x10
    5cec:	81c1                	srli	a1,a1,0x10
    5cee:	f1fd                	bnez	a1,5cd4 <lcd_clear+0x4e>
    5cf0:	8082                	ret

00005cf2 <lcd_init>:
    5cf2:	ef0fa2ef          	jal	t0,3e2 <__riscv_save_0>
    5cf6:	1141                	addi	sp,sp,-16
    5cf8:	f37ff0ef          	jal	ra,5c2e <lcd_gpio_init>
    5cfc:	df9ff0ef          	jal	ra,5af4 <lcd_fsmc_init>
    5d00:	60020437          	lui	s0,0x60020
    5d04:	4791                	li	a5,4
    5d06:	fef40fa3          	sb	a5,-1(s0) # 6001ffff <_eusrstack+0x4000ffff>
    5d0a:	00044783          	lbu	a5,0(s0)
    5d0e:	03a00613          	li	a2,58
    5d12:	46b1                	li	a3,12
    5d14:	0ff7f793          	andi	a5,a5,255
    5d18:	00f107a3          	sb	a5,15(sp)
    5d1c:	00f14783          	lbu	a5,15(sp)
    5d20:	00044783          	lbu	a5,0(s0)
    5d24:	03f00313          	li	t1,63
    5d28:	48b5                	li	a7,13
    5d2a:	0ff7f793          	andi	a5,a5,255
    5d2e:	00f10723          	sb	a5,14(sp)
    5d32:	00e14783          	lbu	a5,14(sp)
    5d36:	00044703          	lbu	a4,0(s0)
    5d3a:	03300793          	li	a5,51
    5d3e:	fd000593          	li	a1,-48
    5d42:	0ff77713          	andi	a4,a4,255
    5d46:	00e106a3          	sb	a4,13(sp)
    5d4a:	00d14703          	lbu	a4,13(sp)
    5d4e:	00044703          	lbu	a4,0(s0)
    5d52:	5841                	li	a6,-16
    5d54:	4541                	li	a0,16
    5d56:	0ff77713          	andi	a4,a4,255
    5d5a:	00e10623          	sb	a4,12(sp)
    5d5e:	00c14703          	lbu	a4,12(sp)
    5d62:	02900493          	li	s1,41
    5d66:	03600713          	li	a4,54
    5d6a:	fee40fa3          	sb	a4,-1(s0)
    5d6e:	00040023          	sb	zero,0(s0)
    5d72:	fec40fa3          	sb	a2,-1(s0)
    5d76:	4715                	li	a4,5
    5d78:	00e40023          	sb	a4,0(s0)
    5d7c:	fb200713          	li	a4,-78
    5d80:	fee40fa3          	sb	a4,-1(s0)
    5d84:	00d40023          	sb	a3,0(s0)
    5d88:	00d40023          	sb	a3,0(s0)
    5d8c:	00040023          	sb	zero,0(s0)
    5d90:	00f40023          	sb	a5,0(s0)
    5d94:	00f40023          	sb	a5,0(s0)
    5d98:	fb700713          	li	a4,-73
    5d9c:	fee40fa3          	sb	a4,-1(s0)
    5da0:	00040023          	sb	zero,0(s0)
    5da4:	fbb00713          	li	a4,-69
    5da8:	fee40fa3          	sb	a4,-1(s0)
    5dac:	00640023          	sb	t1,0(s0)
    5db0:	fc000713          	li	a4,-64
    5db4:	fee40fa3          	sb	a4,-1(s0)
    5db8:	02c00713          	li	a4,44
    5dbc:	00e40023          	sb	a4,0(s0)
    5dc0:	fc200713          	li	a4,-62
    5dc4:	fee40fa3          	sb	a4,-1(s0)
    5dc8:	4705                	li	a4,1
    5dca:	00e40023          	sb	a4,0(s0)
    5dce:	fc300713          	li	a4,-61
    5dd2:	fee40fa3          	sb	a4,-1(s0)
    5dd6:	fc400713          	li	a4,-60
    5dda:	01140023          	sb	a7,0(s0)
    5dde:	fee40fa3          	sb	a4,-1(s0)
    5de2:	02000713          	li	a4,32
    5de6:	00e40023          	sb	a4,0(s0)
    5dea:	fc600713          	li	a4,-58
    5dee:	fee40fa3          	sb	a4,-1(s0)
    5df2:	470d                	li	a4,3
    5df4:	00e40023          	sb	a4,0(s0)
    5df8:	feb40fa3          	sb	a1,-1(s0)
    5dfc:	fa400593          	li	a1,-92
    5e00:	00b40023          	sb	a1,0(s0)
    5e04:	fa100593          	li	a1,-95
    5e08:	00b40023          	sb	a1,0(s0)
    5e0c:	5581                	li	a1,-32
    5e0e:	feb40fa3          	sb	a1,-1(s0)
    5e12:	01040023          	sb	a6,0(s0)
    5e16:	00e40023          	sb	a4,0(s0)
    5e1a:	45a5                	li	a1,9
    5e1c:	00b40023          	sb	a1,0(s0)
    5e20:	00e40023          	sb	a4,0(s0)
    5e24:	00e40023          	sb	a4,0(s0)
    5e28:	00a40023          	sb	a0,0(s0)
    5e2c:	02d00593          	li	a1,45
    5e30:	00b40023          	sb	a1,0(s0)
    5e34:	04300713          	li	a4,67
    5e38:	00e40023          	sb	a4,0(s0)
    5e3c:	00640023          	sb	t1,0(s0)
    5e40:	00f40023          	sb	a5,0(s0)
    5e44:	01140023          	sb	a7,0(s0)
    5e48:	4739                	li	a4,14
    5e4a:	00e40023          	sb	a4,0(s0)
    5e4e:	00940023          	sb	s1,0(s0)
    5e52:	03200893          	li	a7,50
    5e56:	01140023          	sb	a7,0(s0)
    5e5a:	5885                	li	a7,-31
    5e5c:	ff140fa3          	sb	a7,-1(s0)
    5e60:	01040023          	sb	a6,0(s0)
    5e64:	00d40023          	sb	a3,0(s0)
    5e68:	00a40023          	sb	a0,0(s0)
    5e6c:	00e40023          	sb	a4,0(s0)
    5e70:	00e40023          	sb	a4,0(s0)
    5e74:	4729                	li	a4,10
    5e76:	00e40023          	sb	a4,0(s0)
    5e7a:	00b40023          	sb	a1,0(s0)
    5e7e:	00f40023          	sb	a5,0(s0)
    5e82:	04500793          	li	a5,69
    5e86:	00f40023          	sb	a5,0(s0)
    5e8a:	47d1                	li	a5,20
    5e8c:	00c40023          	sb	a2,0(s0)
    5e90:	00f40023          	sb	a5,0(s0)
    5e94:	47e5                	li	a5,25
    5e96:	00f40023          	sb	a5,0(s0)
    5e9a:	03100793          	li	a5,49
    5e9e:	00f40023          	sb	a5,0(s0)
    5ea2:	03700793          	li	a5,55
    5ea6:	00f40023          	sb	a5,0(s0)
    5eaa:	02100793          	li	a5,33
    5eae:	fef40fa3          	sb	a5,-1(s0)
    5eb2:	47c5                	li	a5,17
    5eb4:	fef40fa3          	sb	a5,-1(s0)
    5eb8:	06400513          	li	a0,100
    5ebc:	358030ef          	jal	ra,9214 <Delay_Ms>
    5ec0:	4501                	li	a0,0
    5ec2:	dc5ff0ef          	jal	ra,5c86 <lcd_clear>
    5ec6:	40011537          	lui	a0,0x40011
    5eca:	6591                	lui	a1,0x4
    5ecc:	c0050513          	addi	a0,a0,-1024 # 40010c00 <_eusrstack+0x20000c00>
    5ed0:	4ab020ef          	jal	ra,8b7a <GPIO_SetBits>
    5ed4:	fe940fa3          	sb	s1,-1(s0)
    5ed8:	0141                	addi	sp,sp,16
    5eda:	d2cfa06f          	j	406 <__riscv_restore_0>

00005ede <lcd_fill>:
    5ede:	600207b7          	lui	a5,0x60020
    5ee2:	02a00813          	li	a6,42
    5ee6:	ff078fa3          	sb	a6,-1(a5) # 6001ffff <_eusrstack+0x4000ffff>
    5eea:	00855813          	srli	a6,a0,0x8
    5eee:	01078023          	sb	a6,0(a5)
    5ef2:	0ff57813          	andi	a6,a0,255
    5ef6:	01078023          	sb	a6,0(a5)
    5efa:	00865813          	srli	a6,a2,0x8
    5efe:	01078023          	sb	a6,0(a5)
    5f02:	0ff67813          	andi	a6,a2,255
    5f06:	01078023          	sb	a6,0(a5)
    5f0a:	02b00813          	li	a6,43
    5f0e:	ff078fa3          	sb	a6,-1(a5)
    5f12:	0085d813          	srli	a6,a1,0x8
    5f16:	01078023          	sb	a6,0(a5)
    5f1a:	0ff5f813          	andi	a6,a1,255
    5f1e:	01078023          	sb	a6,0(a5)
    5f22:	0086d813          	srli	a6,a3,0x8
    5f26:	01078023          	sb	a6,0(a5)
    5f2a:	0ff6f813          	andi	a6,a3,255
    5f2e:	01078023          	sb	a6,0(a5)
    5f32:	02c00813          	li	a6,44
    5f36:	ff078fa3          	sb	a6,-1(a5)
    5f3a:	02b6e963          	bltu	a3,a1,5f6c <lcd_fill+0x8e>
    5f3e:	00875893          	srli	a7,a4,0x8
    5f42:	0ff77813          	andi	a6,a4,255
    5f46:	60020737          	lui	a4,0x60020
    5f4a:	87aa                	mv	a5,a0
    5f4c:	00a66b63          	bltu	a2,a0,5f62 <lcd_fill+0x84>
    5f50:	0785                	addi	a5,a5,1
    5f52:	01170023          	sb	a7,0(a4) # 60020000 <_eusrstack+0x40010000>
    5f56:	07c2                	slli	a5,a5,0x10
    5f58:	01070023          	sb	a6,0(a4)
    5f5c:	83c1                	srli	a5,a5,0x10
    5f5e:	fef679e3          	bgeu	a2,a5,5f50 <lcd_fill+0x72>
    5f62:	0585                	addi	a1,a1,1
    5f64:	05c2                	slli	a1,a1,0x10
    5f66:	81c1                	srli	a1,a1,0x10
    5f68:	feb6f1e3          	bgeu	a3,a1,5f4a <lcd_fill+0x6c>
    5f6c:	8082                	ret

00005f6e <lcd_draw_line>:
    5f6e:	c5afa2ef          	jal	t0,3c8 <__riscv_save_4>
    5f72:	7105                	addi	sp,sp,-480
    5f74:	40a60433          	sub	s0,a2,a0
    5f78:	0ed58c63          	beq	a1,a3,6070 <lcd_draw_line+0x102>
    5f7c:	882a                	mv	a6,a0
    5f7e:	88ae                	mv	a7,a1
    5f80:	40b68eb3          	sub	t4,a3,a1
    5f84:	4905                	li	s2,1
    5f86:	0a805b63          	blez	s0,603c <lcd_draw_line+0xce>
    5f8a:	4985                	li	s3,1
    5f8c:	0dd05863          	blez	t4,605c <lcd_draw_line+0xee>
    5f90:	8576                	mv	a0,t4
    5f92:	0a8ecf63          	blt	t4,s0,6050 <lcd_draw_line+0xe2>
    5f96:	00150f93          	addi	t6,a0,1
    5f9a:	080fce63          	bltz	t6,6036 <lcd_draw_line+0xc8>
    5f9e:	600207b7          	lui	a5,0x60020
    5fa2:	20003f37          	lui	t5,0x20003
    5fa6:	4581                	li	a1,0
    5fa8:	4601                	li	a2,0
    5faa:	4681                	li	a3,0
    5fac:	328f0f13          	addi	t5,t5,808 # 20003328 <FORE_COLOR>
    5fb0:	fff78313          	addi	t1,a5,-1 # 6001ffff <_eusrstack+0x4000ffff>
    5fb4:	02a00493          	li	s1,42
    5fb8:	02b00393          	li	t2,43
    5fbc:	02c00293          	li	t0,44
    5fc0:	01081713          	slli	a4,a6,0x10
    5fc4:	8341                	srli	a4,a4,0x10
    5fc6:	00930023          	sb	s1,0(t1)
    5fca:	8321                	srli	a4,a4,0x8
    5fcc:	00e78023          	sb	a4,0(a5)
    5fd0:	0ff87e13          	andi	t3,a6,255
    5fd4:	01c78023          	sb	t3,0(a5)
    5fd8:	00e78023          	sb	a4,0(a5)
    5fdc:	01089713          	slli	a4,a7,0x10
    5fe0:	01c78023          	sb	t3,0(a5)
    5fe4:	8341                	srli	a4,a4,0x10
    5fe6:	00730023          	sb	t2,0(t1)
    5fea:	8321                	srli	a4,a4,0x8
    5fec:	00e78023          	sb	a4,0(a5)
    5ff0:	0ff8fe13          	andi	t3,a7,255
    5ff4:	01c78023          	sb	t3,0(a5)
    5ff8:	00e78023          	sb	a4,0(a5)
    5ffc:	01c78023          	sb	t3,0(a5)
    6000:	00530023          	sb	t0,0(t1)
    6004:	000f5703          	lhu	a4,0(t5)
    6008:	0685                	addi	a3,a3,1
    600a:	06c2                	slli	a3,a3,0x10
    600c:	00875e13          	srli	t3,a4,0x8
    6010:	01c78023          	sb	t3,0(a5)
    6014:	0ff77713          	andi	a4,a4,255
    6018:	9622                	add	a2,a2,s0
    601a:	00e78023          	sb	a4,0(a5)
    601e:	82c1                	srli	a3,a3,0x10
    6020:	95f6                	add	a1,a1,t4
    6022:	00c55463          	bge	a0,a2,602a <lcd_draw_line+0xbc>
    6026:	8e09                	sub	a2,a2,a0
    6028:	984a                	add	a6,a6,s2
    602a:	00b55463          	bge	a0,a1,6032 <lcd_draw_line+0xc4>
    602e:	8d89                	sub	a1,a1,a0
    6030:	98ce                	add	a7,a7,s3
    6032:	f8dfd7e3          	bge	t6,a3,5fc0 <lcd_draw_line+0x52>
    6036:	613d                	addi	sp,sp,480
    6038:	bc4fa06f          	j	3fc <__riscv_restore_4>
    603c:	e465                	bnez	s0,6124 <lcd_draw_line+0x1b6>
    603e:	4901                	li	s2,0
    6040:	01d05e63          	blez	t4,605c <lcd_draw_line+0xee>
    6044:	001e8f93          	addi	t6,t4,1
    6048:	8576                	mv	a0,t4
    604a:	4901                	li	s2,0
    604c:	4985                	li	s3,1
    604e:	bf81                	j	5f9e <lcd_draw_line+0x30>
    6050:	8522                	mv	a0,s0
    6052:	00150f93          	addi	t6,a0,1
    6056:	f40fd4e3          	bgez	t6,5f9e <lcd_draw_line+0x30>
    605a:	bff1                	j	6036 <lcd_draw_line+0xc8>
    605c:	0a0e9d63          	bnez	t4,6116 <lcd_draw_line+0x1a8>
    6060:	fff44513          	not	a0,s0
    6064:	857d                	srai	a0,a0,0x1f
    6066:	8d61                	and	a0,a0,s0
    6068:	00150f93          	addi	t6,a0,1
    606c:	4981                	li	s3,0
    606e:	bf05                	j	5f9e <lcd_draw_line+0x30>
    6070:	600207b7          	lui	a5,0x60020
    6074:	02a00713          	li	a4,42
    6078:	fee78fa3          	sb	a4,-1(a5) # 6001ffff <_eusrstack+0x4000ffff>
    607c:	00855713          	srli	a4,a0,0x8
    6080:	00e78023          	sb	a4,0(a5)
    6084:	0ff57513          	andi	a0,a0,255
    6088:	00a78023          	sb	a0,0(a5)
    608c:	00865713          	srli	a4,a2,0x8
    6090:	00e78023          	sb	a4,0(a5)
    6094:	0ff67613          	andi	a2,a2,255
    6098:	00c78023          	sb	a2,0(a5)
    609c:	02b00713          	li	a4,43
    60a0:	fee78fa3          	sb	a4,-1(a5)
    60a4:	0085d713          	srli	a4,a1,0x8
    60a8:	00e78023          	sb	a4,0(a5)
    60ac:	0ff5f593          	andi	a1,a1,255
    60b0:	00b78023          	sb	a1,0(a5)
    60b4:	00e78023          	sb	a4,0(a5)
    60b8:	00b78023          	sb	a1,0(a5)
    60bc:	02c00713          	li	a4,44
    60c0:	fee78fa3          	sb	a4,-1(a5)
    60c4:	1e000613          	li	a2,480
    60c8:	4581                	li	a1,0
    60ca:	850a                	mv	a0,sp
    60cc:	b46fa0ef          	jal	ra,412 <memset>
    60d0:	d03d                	beqz	s0,6036 <lcd_draw_line+0xc8>
    60d2:	200037b7          	lui	a5,0x20003
    60d6:	3287d683          	lhu	a3,808(a5) # 20003328 <FORE_COLOR>
    60da:	0406                	slli	s0,s0,0x1
    60dc:	870a                	mv	a4,sp
    60de:	0086d593          	srli	a1,a3,0x8
    60e2:	00810633          	add	a2,sp,s0
    60e6:	0ff6f693          	andi	a3,a3,255
    60ea:	878a                	mv	a5,sp
    60ec:	00b78023          	sb	a1,0(a5)
    60f0:	00d780a3          	sb	a3,1(a5)
    60f4:	0789                	addi	a5,a5,2
    60f6:	fec79be3          	bne	a5,a2,60ec <lcd_draw_line+0x17e>
    60fa:	dc15                	beqz	s0,6036 <lcd_draw_line+0xc8>
    60fc:	940a                	add	s0,s0,sp
    60fe:	600206b7          	lui	a3,0x60020
    6102:	00074783          	lbu	a5,0(a4)
    6106:	0705                	addi	a4,a4,1
    6108:	00f68023          	sb	a5,0(a3) # 60020000 <_eusrstack+0x40010000>
    610c:	fee41be3          	bne	s0,a4,6102 <lcd_draw_line+0x194>
    6110:	613d                	addi	sp,sp,480
    6112:	aeafa06f          	j	3fc <__riscv_restore_4>
    6116:	40d58eb3          	sub	t4,a1,a3
    611a:	59fd                	li	s3,-1
    611c:	8576                	mv	a0,t4
    611e:	e68edce3          	bge	t4,s0,5f96 <lcd_draw_line+0x28>
    6122:	b73d                	j	6050 <lcd_draw_line+0xe2>
    6124:	40c50433          	sub	s0,a0,a2
    6128:	597d                	li	s2,-1
    612a:	4985                	li	s3,1
    612c:	e7d042e3          	bgtz	t4,5f90 <lcd_draw_line+0x22>
    6130:	b735                	j	605c <lcd_draw_line+0xee>

00006132 <lcd_draw_circle>:
    6132:	7139                	addi	sp,sp,-64
    6134:	00161713          	slli	a4,a2,0x1
    6138:	da4a                	sw	s2,52(sp)
    613a:	ca6a                	sw	s10,20(sp)
    613c:	00150913          	addi	s2,a0,1
    6140:	4d0d                	li	s10,3
    6142:	40ed0d33          	sub	s10,s10,a4
    6146:	600207b7          	lui	a5,0x60020
    614a:	0942                	slli	s2,s2,0x10
    614c:	20003837          	lui	a6,0x20003
    6150:	d84e                	sw	s3,48(sp)
    6152:	d652                	sw	s4,44(sp)
    6154:	d456                	sw	s5,40(sp)
    6156:	d25a                	sw	s6,36(sp)
    6158:	cc66                	sw	s9,24(sp)
    615a:	c86e                	sw	s11,16(sp)
    615c:	de22                	sw	s0,60(sp)
    615e:	dc26                	sw	s1,56(sp)
    6160:	d05e                	sw	s7,32(sp)
    6162:	ce62                	sw	s8,28(sp)
    6164:	c62a                	sw	a0,12(sp)
    6166:	8dae                	mv	s11,a1
    6168:	01095913          	srli	s2,s2,0x10
    616c:	8b2a                	mv	s6,a0
    616e:	8aae                	mv	s5,a1
    6170:	8a2a                	mv	s4,a0
    6172:	89ae                	mv	s3,a1
    6174:	4c81                	li	s9,0
    6176:	32880813          	addi	a6,a6,808 # 20003328 <FORE_COLOR>
    617a:	fff78713          	addi	a4,a5,-1 # 6001ffff <_eusrstack+0x4000ffff>
    617e:	02a00e13          	li	t3,42
    6182:	02b00313          	li	t1,43
    6186:	02c00893          	li	a7,44
    618a:	c46a                	sw	s10,8(sp)
    618c:	a859                	j	6222 <lcd_draw_circle+0xf0>
    618e:	40cc85b3          	sub	a1,s9,a2
    6192:	4522                	lw	a0,8(sp)
    6194:	167d                	addi	a2,a2,-1
    6196:	058a                	slli	a1,a1,0x2
    6198:	00cd86b3          	add	a3,s11,a2
    619c:	06c2                	slli	a3,a3,0x10
    619e:	05a9                	addi	a1,a1,10
    61a0:	82c1                	srli	a3,a3,0x10
    61a2:	95aa                	add	a1,a1,a0
    61a4:	0086df13          	srli	t5,a3,0x8
    61a8:	c42e                	sw	a1,8(sp)
    61aa:	0ff6f693          	andi	a3,a3,255
    61ae:	01c70023          	sb	t3,0(a4)
    61b2:	00895513          	srli	a0,s2,0x8
    61b6:	00a78023          	sb	a0,0(a5)
    61ba:	0ff97593          	andi	a1,s2,255
    61be:	00b78023          	sb	a1,0(a5)
    61c2:	00a78023          	sb	a0,0(a5)
    61c6:	00b78023          	sb	a1,0(a5)
    61ca:	00670023          	sb	t1,0(a4)
    61ce:	01e78023          	sb	t5,0(a5)
    61d2:	00d78023          	sb	a3,0(a5)
    61d6:	01e78023          	sb	t5,0(a5)
    61da:	00d78023          	sb	a3,0(a5)
    61de:	01170023          	sb	a7,0(a4)
    61e2:	00085683          	lhu	a3,0(a6)
    61e6:	19fd                	addi	s3,s3,-1
    61e8:	1a7d                	addi	s4,s4,-1
    61ea:	0086d593          	srli	a1,a3,0x8
    61ee:	00b78023          	sb	a1,0(a5)
    61f2:	0ff6f693          	andi	a3,a3,255
    61f6:	0a85                	addi	s5,s5,1
    61f8:	0b05                	addi	s6,s6,1
    61fa:	0905                	addi	s2,s2,1
    61fc:	09c2                	slli	s3,s3,0x10
    61fe:	0a42                	slli	s4,s4,0x10
    6200:	0ac2                	slli	s5,s5,0x10
    6202:	0b42                	slli	s6,s6,0x10
    6204:	0942                	slli	s2,s2,0x10
    6206:	00d78023          	sb	a3,0(a5)
    620a:	0109d993          	srli	s3,s3,0x10
    620e:	010a5a13          	srli	s4,s4,0x10
    6212:	010ada93          	srli	s5,s5,0x10
    6216:	010b5b13          	srli	s6,s6,0x10
    621a:	01095913          	srli	s2,s2,0x10
    621e:	2d964163          	blt	a2,s9,64e0 <lcd_draw_circle+0x3ae>
    6222:	4eb2                	lw	t4,12(sp)
    6224:	01061593          	slli	a1,a2,0x10
    6228:	81c1                	srli	a1,a1,0x10
    622a:	40be8533          	sub	a0,t4,a1
    622e:	0542                	slli	a0,a0,0x10
    6230:	8141                	srli	a0,a0,0x10
    6232:	01c70023          	sb	t3,0(a4)
    6236:	00855f93          	srli	t6,a0,0x8
    623a:	01f78023          	sb	t6,0(a5)
    623e:	0ff57513          	andi	a0,a0,255
    6242:	00a78023          	sb	a0,0(a5)
    6246:	01f78023          	sb	t6,0(a5)
    624a:	00a78023          	sb	a0,0(a5)
    624e:	00670023          	sb	t1,0(a4)
    6252:	0089d493          	srli	s1,s3,0x8
    6256:	00978023          	sb	s1,0(a5)
    625a:	0ff9f413          	andi	s0,s3,255
    625e:	00878023          	sb	s0,0(a5)
    6262:	00978023          	sb	s1,0(a5)
    6266:	00878023          	sb	s0,0(a5)
    626a:	01170023          	sb	a7,0(a4)
    626e:	00085683          	lhu	a3,0(a6)
    6272:	9eae                	add	t4,t4,a1
    6274:	0ec2                	slli	t4,t4,0x10
    6276:	0086df13          	srli	t5,a3,0x8
    627a:	01e78023          	sb	t5,0(a5)
    627e:	0ff6f693          	andi	a3,a3,255
    6282:	00d78023          	sb	a3,0(a5)
    6286:	010ede93          	srli	t4,t4,0x10
    628a:	01c70023          	sb	t3,0(a4)
    628e:	008edb93          	srli	s7,t4,0x8
    6292:	01778023          	sb	s7,0(a5)
    6296:	0ffefe93          	andi	t4,t4,255
    629a:	01d78023          	sb	t4,0(a5)
    629e:	01778023          	sb	s7,0(a5)
    62a2:	01d78023          	sb	t4,0(a5)
    62a6:	00670023          	sb	t1,0(a4)
    62aa:	00978023          	sb	s1,0(a5)
    62ae:	00878023          	sb	s0,0(a5)
    62b2:	00978023          	sb	s1,0(a5)
    62b6:	00878023          	sb	s0,0(a5)
    62ba:	01170023          	sb	a7,0(a4)
    62be:	00085683          	lhu	a3,0(a6)
    62c2:	008a5393          	srli	t2,s4,0x8
    62c6:	0ffa7293          	andi	t0,s4,255
    62ca:	0086df13          	srli	t5,a3,0x8
    62ce:	01e78023          	sb	t5,0(a5)
    62d2:	0ff6f693          	andi	a3,a3,255
    62d6:	00d78023          	sb	a3,0(a5)
    62da:	01c70023          	sb	t3,0(a4)
    62de:	00778023          	sb	t2,0(a5)
    62e2:	01b586b3          	add	a3,a1,s11
    62e6:	00578023          	sb	t0,0(a5)
    62ea:	06c2                	slli	a3,a3,0x10
    62ec:	00778023          	sb	t2,0(a5)
    62f0:	82c1                	srli	a3,a3,0x10
    62f2:	00578023          	sb	t0,0(a5)
    62f6:	00670023          	sb	t1,0(a4)
    62fa:	0086df13          	srli	t5,a3,0x8
    62fe:	01e78023          	sb	t5,0(a5)
    6302:	0ff6f693          	andi	a3,a3,255
    6306:	00d78023          	sb	a3,0(a5)
    630a:	01e78023          	sb	t5,0(a5)
    630e:	00d78023          	sb	a3,0(a5)
    6312:	01170023          	sb	a7,0(a4)
    6316:	00085c03          	lhu	s8,0(a6)
    631a:	40bd85b3          	sub	a1,s11,a1
    631e:	05c2                	slli	a1,a1,0x10
    6320:	008c5d13          	srli	s10,s8,0x8
    6324:	01a78023          	sb	s10,0(a5)
    6328:	0ffc7c13          	andi	s8,s8,255
    632c:	01878023          	sb	s8,0(a5)
    6330:	01c70023          	sb	t3,0(a4)
    6334:	01f78023          	sb	t6,0(a5)
    6338:	00a78023          	sb	a0,0(a5)
    633c:	01f78023          	sb	t6,0(a5)
    6340:	00a78023          	sb	a0,0(a5)
    6344:	00670023          	sb	t1,0(a4)
    6348:	00978023          	sb	s1,0(a5)
    634c:	00878023          	sb	s0,0(a5)
    6350:	00978023          	sb	s1,0(a5)
    6354:	00878023          	sb	s0,0(a5)
    6358:	01170023          	sb	a7,0(a4)
    635c:	00085483          	lhu	s1,0(a6)
    6360:	81c1                	srli	a1,a1,0x10
    6362:	0085d413          	srli	s0,a1,0x8
    6366:	0084dc13          	srli	s8,s1,0x8
    636a:	01878023          	sb	s8,0(a5)
    636e:	0ff4f493          	andi	s1,s1,255
    6372:	00978023          	sb	s1,0(a5)
    6376:	01c70023          	sb	t3,0(a4)
    637a:	00778023          	sb	t2,0(a5)
    637e:	00578023          	sb	t0,0(a5)
    6382:	00778023          	sb	t2,0(a5)
    6386:	00578023          	sb	t0,0(a5)
    638a:	00670023          	sb	t1,0(a4)
    638e:	0ff5f593          	andi	a1,a1,255
    6392:	00878023          	sb	s0,0(a5)
    6396:	00b78023          	sb	a1,0(a5)
    639a:	00878023          	sb	s0,0(a5)
    639e:	00b78023          	sb	a1,0(a5)
    63a2:	01170023          	sb	a7,0(a4)
    63a6:	00085483          	lhu	s1,0(a6)
    63aa:	008ad393          	srli	t2,s5,0x8
    63ae:	0ffaf293          	andi	t0,s5,255
    63b2:	0084dc13          	srli	s8,s1,0x8
    63b6:	01878023          	sb	s8,0(a5)
    63ba:	0ff4f493          	andi	s1,s1,255
    63be:	00978023          	sb	s1,0(a5)
    63c2:	01c70023          	sb	t3,0(a4)
    63c6:	01778023          	sb	s7,0(a5)
    63ca:	01d78023          	sb	t4,0(a5)
    63ce:	01778023          	sb	s7,0(a5)
    63d2:	01d78023          	sb	t4,0(a5)
    63d6:	00670023          	sb	t1,0(a4)
    63da:	00778023          	sb	t2,0(a5)
    63de:	00578023          	sb	t0,0(a5)
    63e2:	00778023          	sb	t2,0(a5)
    63e6:	00578023          	sb	t0,0(a5)
    63ea:	01170023          	sb	a7,0(a4)
    63ee:	00085b83          	lhu	s7,0(a6)
    63f2:	008b5493          	srli	s1,s6,0x8
    63f6:	8e96                	mv	t4,t0
    63f8:	008bdc13          	srli	s8,s7,0x8
    63fc:	01878023          	sb	s8,0(a5)
    6400:	0ffbfb93          	andi	s7,s7,255
    6404:	01778023          	sb	s7,0(a5)
    6408:	01c70023          	sb	t3,0(a4)
    640c:	00978023          	sb	s1,0(a5)
    6410:	0ffb7293          	andi	t0,s6,255
    6414:	00578023          	sb	t0,0(a5)
    6418:	00978023          	sb	s1,0(a5)
    641c:	00578023          	sb	t0,0(a5)
    6420:	00670023          	sb	t1,0(a4)
    6424:	00878023          	sb	s0,0(a5)
    6428:	00b78023          	sb	a1,0(a5)
    642c:	00878023          	sb	s0,0(a5)
    6430:	00b78023          	sb	a1,0(a5)
    6434:	01170023          	sb	a7,0(a4)
    6438:	00085583          	lhu	a1,0(a6)
    643c:	0c85                	addi	s9,s9,1
    643e:	0085d413          	srli	s0,a1,0x8
    6442:	00878023          	sb	s0,0(a5)
    6446:	0ff5f593          	andi	a1,a1,255
    644a:	00b78023          	sb	a1,0(a5)
    644e:	01c70023          	sb	t3,0(a4)
    6452:	00978023          	sb	s1,0(a5)
    6456:	00578023          	sb	t0,0(a5)
    645a:	00978023          	sb	s1,0(a5)
    645e:	00578023          	sb	t0,0(a5)
    6462:	00670023          	sb	t1,0(a4)
    6466:	01e78023          	sb	t5,0(a5)
    646a:	00d78023          	sb	a3,0(a5)
    646e:	01e78023          	sb	t5,0(a5)
    6472:	00d78023          	sb	a3,0(a5)
    6476:	01170023          	sb	a7,0(a4)
    647a:	00085583          	lhu	a1,0(a6)
    647e:	0085d293          	srli	t0,a1,0x8
    6482:	00578023          	sb	t0,0(a5)
    6486:	0ff5f593          	andi	a1,a1,255
    648a:	00b78023          	sb	a1,0(a5)
    648e:	01c70023          	sb	t3,0(a4)
    6492:	01f78023          	sb	t6,0(a5)
    6496:	00a78023          	sb	a0,0(a5)
    649a:	01f78023          	sb	t6,0(a5)
    649e:	00a78023          	sb	a0,0(a5)
    64a2:	00670023          	sb	t1,0(a4)
    64a6:	00778023          	sb	t2,0(a5)
    64aa:	01d78023          	sb	t4,0(a5)
    64ae:	00778023          	sb	t2,0(a5)
    64b2:	01d78023          	sb	t4,0(a5)
    64b6:	01170023          	sb	a7,0(a4)
    64ba:	00085583          	lhu	a1,0(a6)
    64be:	0085d513          	srli	a0,a1,0x8
    64c2:	00a78023          	sb	a0,0(a5)
    64c6:	0ff5f593          	andi	a1,a1,255
    64ca:	00b78023          	sb	a1,0(a5)
    64ce:	4522                	lw	a0,8(sp)
    64d0:	ca055fe3          	bgez	a0,618e <lcd_draw_circle+0x5c>
    64d4:	002c9593          	slli	a1,s9,0x2
    64d8:	0599                	addi	a1,a1,6
    64da:	95aa                	add	a1,a1,a0
    64dc:	c42e                	sw	a1,8(sp)
    64de:	b9c1                	j	61ae <lcd_draw_circle+0x7c>
    64e0:	5472                	lw	s0,60(sp)
    64e2:	54e2                	lw	s1,56(sp)
    64e4:	5952                	lw	s2,52(sp)
    64e6:	59c2                	lw	s3,48(sp)
    64e8:	5a32                	lw	s4,44(sp)
    64ea:	5aa2                	lw	s5,40(sp)
    64ec:	5b12                	lw	s6,36(sp)
    64ee:	5b82                	lw	s7,32(sp)
    64f0:	4c72                	lw	s8,28(sp)
    64f2:	4ce2                	lw	s9,24(sp)
    64f4:	4d52                	lw	s10,20(sp)
    64f6:	4dc2                	lw	s11,16(sp)
    64f8:	6121                	addi	sp,sp,64
    64fa:	8082                	ret

000064fc <lcd_show_char>:
    64fc:	0016d793          	srli	a5,a3,0x1
    6500:	0f000713          	li	a4,240
    6504:	40f707b3          	sub	a5,a4,a5
    6508:	0ea7e163          	bltu	a5,a0,65ea <lcd_show_char+0xee>
    650c:	8f15                	sub	a4,a4,a3
    650e:	0cb76e63          	bltu	a4,a1,65ea <lcd_show_char+0xee>
    6512:	1601                	addi	a2,a2,-32
    6514:	47c1                	li	a5,16
    6516:	0ff67613          	andi	a2,a2,255
    651a:	1af68c63          	beq	a3,a5,66d2 <lcd_show_char+0x1d6>
    651e:	47e1                	li	a5,24
    6520:	0cf68663          	beq	a3,a5,65ec <lcd_show_char+0xf0>
    6524:	02000793          	li	a5,32
    6528:	26f69863          	bne	a3,a5,6798 <lcd_show_char+0x29c>
    652c:	600207b7          	lui	a5,0x60020
    6530:	02a00713          	li	a4,42
    6534:	fee78fa3          	sb	a4,-1(a5) # 6001ffff <_eusrstack+0x4000ffff>
    6538:	00f50713          	addi	a4,a0,15
    653c:	00855693          	srli	a3,a0,0x8
    6540:	0742                	slli	a4,a4,0x10
    6542:	00d78023          	sb	a3,0(a5)
    6546:	8341                	srli	a4,a4,0x10
    6548:	0ff57513          	andi	a0,a0,255
    654c:	00a78023          	sb	a0,0(a5)
    6550:	00875693          	srli	a3,a4,0x8
    6554:	00d78023          	sb	a3,0(a5)
    6558:	0ff77713          	andi	a4,a4,255
    655c:	00e78023          	sb	a4,0(a5)
    6560:	02b00713          	li	a4,43
    6564:	fee78fa3          	sb	a4,-1(a5)
    6568:	01f58713          	addi	a4,a1,31 # 401f <ch32_timer_init+0x33>
    656c:	0085d693          	srli	a3,a1,0x8
    6570:	0742                	slli	a4,a4,0x10
    6572:	00d78023          	sb	a3,0(a5)
    6576:	8341                	srli	a4,a4,0x10
    6578:	0ff5f593          	andi	a1,a1,255
    657c:	00b78023          	sb	a1,0(a5)
    6580:	00875693          	srli	a3,a4,0x8
    6584:	6841                	lui	a6,0x10
    6586:	00d78023          	sb	a3,0(a5)
    658a:	adc80813          	addi	a6,a6,-1316 # fadc <asc2_3216>
    658e:	0ff77713          	andi	a4,a4,255
    6592:	061a                	slli	a2,a2,0x6
    6594:	00e78023          	sb	a4,0(a5)
    6598:	04080313          	addi	t1,a6,64
    659c:	02c00713          	li	a4,44
    65a0:	9832                	add	a6,a6,a2
    65a2:	9332                	add	t1,t1,a2
    65a4:	fee78fa3          	sb	a4,-1(a5)
    65a8:	200038b7          	lui	a7,0x20003
    65ac:	60020637          	lui	a2,0x60020
    65b0:	00084703          	lbu	a4,0(a6)
    65b4:	47a1                	li	a5,8
    65b6:	a015                	j	65da <lcd_show_char+0xde>
    65b8:	8fc1d683          	lhu	a3,-1796(gp) # 20003424 <BACK_COLOR>
    65bc:	0086d593          	srli	a1,a3,0x8
    65c0:	17fd                	addi	a5,a5,-1
    65c2:	00b60023          	sb	a1,0(a2) # 60020000 <_eusrstack+0x40010000>
    65c6:	0ff6f693          	andi	a3,a3,255
    65ca:	0706                	slli	a4,a4,0x1
    65cc:	00d60023          	sb	a3,0(a2)
    65d0:	0ff7f793          	andi	a5,a5,255
    65d4:	0ff77713          	andi	a4,a4,255
    65d8:	cbed                	beqz	a5,66ca <lcd_show_char+0x1ce>
    65da:	01871693          	slli	a3,a4,0x18
    65de:	86e1                	srai	a3,a3,0x18
    65e0:	fc06dce3          	bgez	a3,65b8 <lcd_show_char+0xbc>
    65e4:	3288d683          	lhu	a3,808(a7) # 20003328 <FORE_COLOR>
    65e8:	bfd1                	j	65bc <lcd_show_char+0xc0>
    65ea:	8082                	ret
    65ec:	600207b7          	lui	a5,0x60020
    65f0:	02a00713          	li	a4,42
    65f4:	fee78fa3          	sb	a4,-1(a5) # 6001ffff <_eusrstack+0x4000ffff>
    65f8:	00b50713          	addi	a4,a0,11
    65fc:	00855693          	srli	a3,a0,0x8
    6600:	0742                	slli	a4,a4,0x10
    6602:	00d78023          	sb	a3,0(a5)
    6606:	8341                	srli	a4,a4,0x10
    6608:	0ff57513          	andi	a0,a0,255
    660c:	00a78023          	sb	a0,0(a5)
    6610:	00875693          	srli	a3,a4,0x8
    6614:	00d78023          	sb	a3,0(a5)
    6618:	0ff77713          	andi	a4,a4,255
    661c:	00e78023          	sb	a4,0(a5)
    6620:	02b00713          	li	a4,43
    6624:	fee78fa3          	sb	a4,-1(a5)
    6628:	01758713          	addi	a4,a1,23
    662c:	0085d693          	srli	a3,a1,0x8
    6630:	0742                	slli	a4,a4,0x10
    6632:	00d78023          	sb	a3,0(a5)
    6636:	8341                	srli	a4,a4,0x10
    6638:	0ff5f593          	andi	a1,a1,255
    663c:	00b78023          	sb	a1,0(a5)
    6640:	00875693          	srli	a3,a4,0x8
    6644:	00d78023          	sb	a3,0(a5)
    6648:	0ff77713          	andi	a4,a4,255
    664c:	00161e13          	slli	t3,a2,0x1
    6650:	00e78023          	sb	a4,0(a5)
    6654:	9e32                	add	t3,t3,a2
    6656:	02c00713          	li	a4,44
    665a:	6ebd                	lui	t4,0xf
    665c:	fee78fa3          	sb	a4,-1(a5)
    6660:	0e12                	slli	t3,t3,0x4
    6662:	4801                	li	a6,0
    6664:	93ce8e93          	addi	t4,t4,-1732 # e93c <asc2_2412>
    6668:	20003337          	lui	t1,0x20003
    666c:	60020637          	lui	a2,0x60020
    6670:	03000f13          	li	t5,48
    6674:	00187513          	andi	a0,a6,1
    6678:	010e07b3          	add	a5,t3,a6
    667c:	40a00533          	neg	a0,a0
    6680:	97f6                	add	a5,a5,t4
    6682:	9971                	andi	a0,a0,-4
    6684:	0007c703          	lbu	a4,0(a5)
    6688:	0521                	addi	a0,a0,8
    668a:	4781                	li	a5,0
    668c:	a01d                	j	66b2 <lcd_show_char+0x1b6>
    668e:	8fc1d683          	lhu	a3,-1796(gp) # 20003424 <BACK_COLOR>
    6692:	0086d593          	srli	a1,a3,0x8
    6696:	0785                	addi	a5,a5,1
    6698:	00b60023          	sb	a1,0(a2) # 60020000 <_eusrstack+0x40010000>
    669c:	0ff6f693          	andi	a3,a3,255
    66a0:	0706                	slli	a4,a4,0x1
    66a2:	00d60023          	sb	a3,0(a2)
    66a6:	0ff7f793          	andi	a5,a5,255
    66aa:	0ff77713          	andi	a4,a4,255
    66ae:	00f50a63          	beq	a0,a5,66c2 <lcd_show_char+0x1c6>
    66b2:	01871693          	slli	a3,a4,0x18
    66b6:	86e1                	srai	a3,a3,0x18
    66b8:	fc06dbe3          	bgez	a3,668e <lcd_show_char+0x192>
    66bc:	32835683          	lhu	a3,808(t1) # 20003328 <FORE_COLOR>
    66c0:	bfc9                	j	6692 <lcd_show_char+0x196>
    66c2:	0805                	addi	a6,a6,1
    66c4:	fbe818e3          	bne	a6,t5,6674 <lcd_show_char+0x178>
    66c8:	8082                	ret
    66ca:	0805                	addi	a6,a6,1
    66cc:	ef0312e3          	bne	t1,a6,65b0 <lcd_show_char+0xb4>
    66d0:	8082                	ret
    66d2:	600207b7          	lui	a5,0x60020
    66d6:	02a00713          	li	a4,42
    66da:	fee78fa3          	sb	a4,-1(a5) # 6001ffff <_eusrstack+0x4000ffff>
    66de:	00750713          	addi	a4,a0,7
    66e2:	00855693          	srli	a3,a0,0x8
    66e6:	0742                	slli	a4,a4,0x10
    66e8:	00d78023          	sb	a3,0(a5)
    66ec:	8341                	srli	a4,a4,0x10
    66ee:	0ff57513          	andi	a0,a0,255
    66f2:	00a78023          	sb	a0,0(a5)
    66f6:	00875693          	srli	a3,a4,0x8
    66fa:	00d78023          	sb	a3,0(a5)
    66fe:	0ff77713          	andi	a4,a4,255
    6702:	00e78023          	sb	a4,0(a5)
    6706:	02b00713          	li	a4,43
    670a:	fee78fa3          	sb	a4,-1(a5)
    670e:	00f58713          	addi	a4,a1,15
    6712:	0085d693          	srli	a3,a1,0x8
    6716:	0742                	slli	a4,a4,0x10
    6718:	00d78023          	sb	a3,0(a5)
    671c:	8341                	srli	a4,a4,0x10
    671e:	0ff5f593          	andi	a1,a1,255
    6722:	00b78023          	sb	a1,0(a5)
    6726:	00875693          	srli	a3,a4,0x8
    672a:	6839                	lui	a6,0xe
    672c:	00d78023          	sb	a3,0(a5)
    6730:	35c80813          	addi	a6,a6,860 # e35c <asc2_1608>
    6734:	0ff77713          	andi	a4,a4,255
    6738:	0612                	slli	a2,a2,0x4
    673a:	00e78023          	sb	a4,0(a5)
    673e:	01080313          	addi	t1,a6,16
    6742:	02c00713          	li	a4,44
    6746:	9832                	add	a6,a6,a2
    6748:	9332                	add	t1,t1,a2
    674a:	fee78fa3          	sb	a4,-1(a5)
    674e:	200038b7          	lui	a7,0x20003
    6752:	60020637          	lui	a2,0x60020
    6756:	00084703          	lbu	a4,0(a6)
    675a:	47a1                	li	a5,8
    675c:	a015                	j	6780 <lcd_show_char+0x284>
    675e:	8fc1d683          	lhu	a3,-1796(gp) # 20003424 <BACK_COLOR>
    6762:	0086d593          	srli	a1,a3,0x8
    6766:	17fd                	addi	a5,a5,-1
    6768:	00b60023          	sb	a1,0(a2) # 60020000 <_eusrstack+0x40010000>
    676c:	0ff6f693          	andi	a3,a3,255
    6770:	0706                	slli	a4,a4,0x1
    6772:	00d60023          	sb	a3,0(a2)
    6776:	0ff7f793          	andi	a5,a5,255
    677a:	0ff77713          	andi	a4,a4,255
    677e:	cb89                	beqz	a5,6790 <lcd_show_char+0x294>
    6780:	01871693          	slli	a3,a4,0x18
    6784:	86e1                	srai	a3,a3,0x18
    6786:	fc06dce3          	bgez	a3,675e <lcd_show_char+0x262>
    678a:	3288d683          	lhu	a3,808(a7) # 20003328 <FORE_COLOR>
    678e:	bfd1                	j	6762 <lcd_show_char+0x266>
    6790:	0805                	addi	a6,a6,1
    6792:	fd0312e3          	bne	t1,a6,6756 <lcd_show_char+0x25a>
    6796:	8082                	ret
    6798:	c4bf92ef          	jal	t0,3e2 <__riscv_save_0>
    679c:	00011537          	lui	a0,0x11
    67a0:	25c50513          	addi	a0,a0,604 # 1125c <asc2_3216+0x1780>
    67a4:	5ad040ef          	jal	ra,b550 <iprintf>
    67a8:	c5ff906f          	j	406 <__riscv_restore_0>

000067ac <lcd_show_string>:
    67ac:	7155                	addi	sp,sp,-208
    67ae:	db26                	sw	s1,180(sp)
    67b0:	d94a                	sw	s2,176(sp)
    67b2:	d74e                	sw	s3,172(sp)
    67b4:	84aa                	mv	s1,a0
    67b6:	89b2                	mv	s3,a2
    67b8:	892e                	mv	s2,a1
    67ba:	08000613          	li	a2,128
    67be:	4581                	li	a1,0
    67c0:	0808                	addi	a0,sp,16
    67c2:	dd22                	sw	s0,184(sp)
    67c4:	c1ba                	sw	a4,192(sp)
    67c6:	c3be                	sw	a5,196(sp)
    67c8:	df06                	sw	ra,188(sp)
    67ca:	d552                	sw	s4,168(sp)
    67cc:	d356                	sw	s5,164(sp)
    67ce:	d15a                	sw	s6,160(sp)
    67d0:	cf5e                	sw	s7,156(sp)
    67d2:	8436                	mv	s0,a3
    67d4:	c5c2                	sw	a6,200(sp)
    67d6:	c7c6                	sw	a7,204(sp)
    67d8:	c3bf90ef          	jal	ra,412 <memset>
    67dc:	ff79f713          	andi	a4,s3,-9
    67e0:	47c1                	li	a5,16
    67e2:	00f70663          	beq	a4,a5,67ee <lcd_show_string+0x42>
    67e6:	02000793          	li	a5,32
    67ea:	0af99463          	bne	s3,a5,6892 <lcd_show_string+0xe6>
    67ee:	019c                	addi	a5,sp,192
    67f0:	86be                	mv	a3,a5
    67f2:	8622                	mv	a2,s0
    67f4:	06400593          	li	a1,100
    67f8:	0808                	addi	a0,sp,16
    67fa:	c63e                	sw	a5,12(sp)
    67fc:	661040ef          	jal	ra,b65c <vsniprintf>
    6800:	01014783          	lbu	a5,16(sp)
    6804:	cfa5                	beqz	a5,687c <lcd_show_string+0xd0>
    6806:	0019da13          	srli	s4,s3,0x1
    680a:	0f000a93          	li	s5,240
    680e:	414a8b33          	sub	s6,s5,s4
    6812:	6bc1                	lui	s7,0x10
    6814:	0a42                	slli	s4,s4,0x10
    6816:	010a5a13          	srli	s4,s4,0x10
    681a:	413a8ab3          	sub	s5,s5,s3
    681e:	0800                	addi	s0,sp,16
    6820:	800b8b93          	addi	s7,s7,-2048 # f800 <asc2_2412+0xec4>
    6824:	a839                	j	6842 <lcd_show_string+0x96>
    6826:	00044603          	lbu	a2,0(s0)
    682a:	8526                	mv	a0,s1
    682c:	86ce                	mv	a3,s3
    682e:	85ca                	mv	a1,s2
    6830:	01079493          	slli	s1,a5,0x10
    6834:	0405                	addi	s0,s0,1
    6836:	cc7ff0ef          	jal	ra,64fc <lcd_show_char>
    683a:	00044783          	lbu	a5,0(s0)
    683e:	80c1                	srli	s1,s1,0x10
    6840:	cf95                	beqz	a5,687c <lcd_show_string+0xd0>
    6842:	013907b3          	add	a5,s2,s3
    6846:	009b7763          	bgeu	s6,s1,6854 <lcd_show_string+0xa8>
    684a:	01079913          	slli	s2,a5,0x10
    684e:	01095913          	srli	s2,s2,0x10
    6852:	4481                	li	s1,0
    6854:	009a07b3          	add	a5,s4,s1
    6858:	fd2af7e3          	bgeu	s5,s2,6826 <lcd_show_string+0x7a>
    685c:	855e                	mv	a0,s7
    685e:	c28ff0ef          	jal	ra,5c86 <lcd_clear>
    6862:	00044603          	lbu	a2,0(s0)
    6866:	4901                	li	s2,0
    6868:	4501                	li	a0,0
    686a:	86ce                	mv	a3,s3
    686c:	85ca                	mv	a1,s2
    686e:	0405                	addi	s0,s0,1
    6870:	c8dff0ef          	jal	ra,64fc <lcd_show_char>
    6874:	00044783          	lbu	a5,0(s0)
    6878:	84d2                	mv	s1,s4
    687a:	f7e1                	bnez	a5,6842 <lcd_show_string+0x96>
    687c:	50fa                	lw	ra,188(sp)
    687e:	546a                	lw	s0,184(sp)
    6880:	54da                	lw	s1,180(sp)
    6882:	594a                	lw	s2,176(sp)
    6884:	59ba                	lw	s3,172(sp)
    6886:	5a2a                	lw	s4,168(sp)
    6888:	5a9a                	lw	s5,164(sp)
    688a:	5b0a                	lw	s6,160(sp)
    688c:	4bfa                	lw	s7,156(sp)
    688e:	6169                	addi	sp,sp,208
    6890:	8082                	ret
    6892:	00011537          	lui	a0,0x11
    6896:	85ce                	mv	a1,s3
    6898:	2a850513          	addi	a0,a0,680 # 112a8 <asc2_3216+0x17cc>
    689c:	4b5040ef          	jal	ra,b550 <iprintf>
    68a0:	b7b9                	j	67ee <lcd_show_string+0x42>

000068a2 <lcd_show_num>:
    68a2:	b41f92ef          	jal	t0,3e2 <__riscv_save_0>
    68a6:	87ba                	mv	a5,a4
    68a8:	0000e6b7          	lui	a3,0xe
    68ac:	8732                	mv	a4,a2
    68ae:	24068693          	addi	a3,a3,576 # e240 <ch32_uart_ops+0x1e4>
    68b2:	863e                	mv	a2,a5
    68b4:	ef9ff0ef          	jal	ra,67ac <lcd_show_string>
    68b8:	b4ff906f          	j	406 <__riscv_restore_0>

000068bc <user_timer_irq>:
    68bc:	b27f92ef          	jal	t0,3e2 <__riscv_save_0>
    68c0:	91018793          	addi	a5,gp,-1776 # 20003438 <LaserFlag>
    68c4:	0007d683          	lhu	a3,0(a5)
    68c8:	4705                	li	a4,1
    68ca:	02d70263          	beq	a4,a3,68ee <user_timer_irq+0x32>
    68ce:	00e79023          	sh	a4,0(a5)
    68d2:	46e9                	li	a3,26
    68d4:	400207b7          	lui	a5,0x40020
    68d8:	c7d4                	sw	a3,12(a5)
    68da:	4785                	li	a5,1
    68dc:	4585                	li	a1,1
    68de:	40001537          	lui	a0,0x40001
    68e2:	90f19a23          	sh	a5,-1772(gp) # 2000343c <TIMProcessFlag>
    68e6:	728020ef          	jal	ra,900e <TIM_ClearFlag>
    68ea:	b1df906f          	j	406 <__riscv_restore_0>
    68ee:	00079023          	sh	zero,0(a5) # 40020000 <_eusrstack+0x20010000>
    68f2:	b7c5                	j	68d2 <user_timer_irq+0x16>

000068f4 <data_init>:
    68f4:	aeff92ef          	jal	t0,3e2 <__riscv_save_0>
    68f8:	20000537          	lui	a0,0x20000
    68fc:	6785                	lui	a5,0x1
    68fe:	17050513          	addi	a0,a0,368 # 20000170 <D>
    6902:	200015b7          	lui	a1,0x20001
    6906:	09278793          	addi	a5,a5,146 # 1092 <rt_vsnprintf+0xb0>
    690a:	02a50693          	addi	a3,a0,42
    690e:	1d858593          	addi	a1,a1,472 # 200011d8 <DTW>
    6912:	953e                	add	a0,a0,a5
    6914:	567d                	li	a2,-1
    6916:	fd668793          	addi	a5,a3,-42
    691a:	872e                	mv	a4,a1
    691c:	00c79023          	sh	a2,0(a5)
    6920:	00072023          	sw	zero,0(a4)
    6924:	0789                	addi	a5,a5,2
    6926:	0711                	addi	a4,a4,4
    6928:	fed79ae3          	bne	a5,a3,691c <data_init+0x28>
    692c:	02a78693          	addi	a3,a5,42
    6930:	05458593          	addi	a1,a1,84
    6934:	fea691e3          	bne	a3,a0,6916 <data_init+0x22>
    6938:	200057b7          	lui	a5,0x20005
    693c:	577d                	li	a4,-1
    693e:	a2478793          	addi	a5,a5,-1500 # 20004a24 <BestDtwValue>
    6942:	c398                	sw	a4,0(a5)
    6944:	c3d8                	sw	a4,4(a5)
    6946:	c798                	sw	a4,8(a5)
    6948:	20000513          	li	a0,512
    694c:	c7d8                	sw	a4,12(a5)
    694e:	d0bfa0ef          	jal	ra,1658 <rt_malloc>
    6952:	90a1a423          	sw	a0,-1784(gp) # 20003430 <DataStream>
    6956:	03400513          	li	a0,52
    695a:	cfffa0ef          	jal	ra,1658 <rt_malloc>
    695e:	92a1a023          	sw	a0,-1760(gp) # 20003448 <p_AdcDmaData>
    6962:	4511                	li	a0,4
    6964:	cf5fa0ef          	jal	ra,1658 <rt_malloc>
    6968:	842a                	mv	s0,a0
    696a:	19000513          	li	a0,400
    696e:	9081ac23          	sw	s0,-1768(gp) # 20003440 <Template_Sample>
    6972:	ce7fa0ef          	jal	ra,1658 <rt_malloc>
    6976:	c008                	sw	a0,0(s0)
    6978:	4521                	li	a0,8
    697a:	20005437          	lui	s0,0x20005
    697e:	cdbfa0ef          	jal	ra,1658 <rt_malloc>
    6982:	a5440413          	addi	s0,s0,-1452 # 20004a54 <TemplateDataSample>
    6986:	c008                	sw	a0,0(s0)
    6988:	00052023          	sw	zero,0(a0)
    698c:	00052223          	sw	zero,4(a0)
    6990:	4521                	li	a0,8
    6992:	cc7fa0ef          	jal	ra,1658 <rt_malloc>
    6996:	c048                	sw	a0,4(s0)
    6998:	00052023          	sw	zero,0(a0)
    699c:	00052223          	sw	zero,4(a0)
    69a0:	4521                	li	a0,8
    69a2:	cb7fa0ef          	jal	ra,1658 <rt_malloc>
    69a6:	c408                	sw	a0,8(s0)
    69a8:	00052023          	sw	zero,0(a0)
    69ac:	00052223          	sw	zero,4(a0)
    69b0:	4521                	li	a0,8
    69b2:	ca7fa0ef          	jal	ra,1658 <rt_malloc>
    69b6:	c448                	sw	a0,12(s0)
    69b8:	00052023          	sw	zero,0(a0)
    69bc:	00052223          	sw	zero,4(a0)
    69c0:	a47f906f          	j	406 <__riscv_restore_0>

000069c4 <user_timer_init>:
    69c4:	a1ff92ef          	jal	t0,3e2 <__riscv_save_0>
    69c8:	e43fc0ef          	jal	ra,380a <rt_user_timer_mode>
    69cc:	3bf00593          	li	a1,959
    69d0:	03100513          	li	a0,49
    69d4:	e47fc0ef          	jal	ra,381a <rt_user_timer_init>
    69d8:	00007537          	lui	a0,0x7
    69dc:	4581                	li	a1,0
    69de:	8bc50513          	addi	a0,a0,-1860 # 68bc <user_timer_irq>
    69e2:	e49fc0ef          	jal	ra,382a <rt_user_timer_attach_irq>
    69e6:	e55fc0ef          	jal	ra,383a <rt_user_timer_irq_enable>
    69ea:	a1df906f          	j	406 <__riscv_restore_0>

000069ee <peripheral_init>:
    69ee:	9dbf92ef          	jal	t0,3c8 <__riscv_save_4>
    69f2:	4509                	li	a0,2
    69f4:	1c2020ef          	jal	ra,8bb6 <NVIC_PriorityGroupConfig>
    69f8:	400124b7          	lui	s1,0x40012
    69fc:	7f2020ef          	jal	ra,91ee <Delay_Init>
    6a00:	e11fe0ef          	jal	ra,5810 <ADC_Function_Init>
    6a04:	469d                	li	a3,7
    6a06:	4605                	li	a2,1
    6a08:	40048513          	addi	a0,s1,1024 # 40012400 <_eusrstack+0x20002400>
    6a0c:	4585                	li	a1,1
    6a0e:	319010ef          	jal	ra,8526 <ADC_RegularChannelConfig>
    6a12:	40048513          	addi	a0,s1,1024
    6a16:	4585                	li	a1,1
    6a18:	2f5010ef          	jal	ra,850c <ADC_SoftwareStartConvCmd>
    6a1c:	9201a603          	lw	a2,-1760(gp) # 20003448 <p_AdcDmaData>
    6a20:	40020437          	lui	s0,0x40020
    6a24:	46e9                	li	a3,26
    6a26:	00840513          	addi	a0,s0,8 # 40020008 <_eusrstack+0x20010008>
    6a2a:	44c48593          	addi	a1,s1,1100
    6a2e:	ea5fe0ef          	jal	ra,58d2 <DMA1_Init>
    6a32:	f05fe0ef          	jal	ra,5936 <DMA1Interrupt_Init>
    6a36:	4605                	li	a2,1
    6a38:	00840513          	addi	a0,s0,8
    6a3c:	4589                	li	a1,2
    6a3e:	5d1010ef          	jal	ra,880e <DMA_ITConfig>
    6a42:	4585                	li	a1,1
    6a44:	20000513          	li	a0,512
    6a48:	400020ef          	jal	ra,8e48 <RCC_AHBPeriphClockCmd>
    6a4c:	4505                	li	a0,1
    6a4e:	472020ef          	jal	ra,8ec0 <RNG_Cmd>
    6a52:	aa0ff0ef          	jal	ra,5cf2 <lcd_init>
    6a56:	4701                	li	a4,0
    6a58:	0ef00693          	li	a3,239
    6a5c:	0ef00613          	li	a2,239
    6a60:	4581                	li	a1,0
    6a62:	4501                	li	a0,0
    6a64:	c7aff0ef          	jal	ra,5ede <lcd_fill>
    6a68:	00011a37          	lui	s4,0x11
    6a6c:	328a0693          	addi	a3,s4,808 # 11328 <asc2_3216+0x184c>
    6a70:	4661                	li	a2,24
    6a72:	05000593          	li	a1,80
    6a76:	4551                	li	a0,20
    6a78:	d35ff0ef          	jal	ra,67ac <lcd_show_string>
    6a7c:	000119b7          	lui	s3,0x11
    6a80:	33898693          	addi	a3,s3,824 # 11338 <asc2_3216+0x185c>
    6a84:	4661                	li	a2,24
    6a86:	0a000593          	li	a1,160
    6a8a:	4551                	li	a0,20
    6a8c:	d21ff0ef          	jal	ra,67ac <lcd_show_string>
    6a90:	0421                	addi	s0,s0,8
    6a92:	8522                	mv	a0,s0
    6a94:	4585                	li	a1,1
    6a96:	00042223          	sw	zero,4(s0)
    6a9a:	55f010ef          	jal	ra,87f8 <DMA_Cmd>
    6a9e:	4429                	li	s0,10
    6aa0:	74e020ef          	jal	ra,91ee <Delay_Init>
    6aa4:	92418493          	addi	s1,gp,-1756 # 2000344c <tick>
    6aa8:	00011937          	lui	s2,0x11
    6aac:	a0ff90ef          	jal	ra,4ba <rt_tick_get>
    6ab0:	87aa                	mv	a5,a0
    6ab2:	85aa                	mv	a1,a0
    6ab4:	147d                	addi	s0,s0,-1
    6ab6:	34490513          	addi	a0,s2,836 # 11344 <asc2_3216+0x1868>
    6aba:	c09c                	sw	a5,0(s1)
    6abc:	95dfa0ef          	jal	ra,1418 <rt_kprintf>
    6ac0:	f475                	bnez	s0,6aac <peripheral_init+0xbe>
    6ac2:	4585                	li	a1,1
    6ac4:	20000513          	li	a0,512
    6ac8:	380020ef          	jal	ra,8e48 <RCC_AHBPeriphClockCmd>
    6acc:	4505                	li	a0,1
    6ace:	3f2020ef          	jal	ra,8ec0 <RNG_Cmd>
    6ad2:	4701                	li	a4,0
    6ad4:	0ef00693          	li	a3,239
    6ad8:	0ef00613          	li	a2,239
    6adc:	4581                	li	a1,0
    6ade:	4501                	li	a0,0
    6ae0:	bfeff0ef          	jal	ra,5ede <lcd_fill>
    6ae4:	328a0693          	addi	a3,s4,808
    6ae8:	4661                	li	a2,24
    6aea:	05000593          	li	a1,80
    6aee:	4551                	li	a0,20
    6af0:	cbdff0ef          	jal	ra,67ac <lcd_show_string>
    6af4:	33898693          	addi	a3,s3,824
    6af8:	4661                	li	a2,24
    6afa:	0a000593          	li	a1,160
    6afe:	4551                	li	a0,20
    6b00:	cadff0ef          	jal	ra,67ac <lcd_show_string>
    6b04:	4429                	li	s0,10
    6b06:	9b5f90ef          	jal	ra,4ba <rt_tick_get>
    6b0a:	87aa                	mv	a5,a0
    6b0c:	85aa                	mv	a1,a0
    6b0e:	147d                	addi	s0,s0,-1
    6b10:	34490513          	addi	a0,s2,836
    6b14:	c09c                	sw	a5,0(s1)
    6b16:	903fa0ef          	jal	ra,1418 <rt_kprintf>
    6b1a:	f475                	bnez	s0,6b06 <peripheral_init+0x118>
    6b1c:	ea9ff0ef          	jal	ra,69c4 <user_timer_init>
    6b20:	0c800513          	li	a0,200
    6b24:	6f0020ef          	jal	ra,9214 <Delay_Ms>
    6b28:	00011537          	lui	a0,0x11
    6b2c:	35050513          	addi	a0,a0,848 # 11350 <asc2_3216+0x1874>
    6b30:	8e9fa0ef          	jal	ra,1418 <rt_kprintf>
    6b34:	998fe0ef          	jal	ra,4ccc <GetThreshHoldVolt>
    6b38:	91c18793          	addi	a5,gp,-1764 # 20003444 <ThreshVolt>
    6b3c:	00a79023          	sh	a0,0(a5)
    6b40:	19000713          	li	a4,400
    6b44:	00e79023          	sh	a4,0(a5)
    6b48:	0007d583          	lhu	a1,0(a5)
    6b4c:	00011537          	lui	a0,0x11
    6b50:	36450513          	addi	a0,a0,868 # 11364 <asc2_3216+0x1888>
    6b54:	8c5fa0ef          	jal	ra,1418 <rt_kprintf>
    6b58:	8a5f906f          	j	3fc <__riscv_restore_4>

00006b5c <main>:
    6b5c:	887f92ef          	jal	t0,3e2 <__riscv_save_0>
    6b60:	28cd                	jal	6c52 <main_init>
    6b62:	2a15                	jal	6c96 <key_init>
    6b64:	ed0d                	bnez	a0,6b9e <main+0x42>
    6b66:	842a                	mv	s0,a0
    6b68:	00011537          	lui	a0,0x11
    6b6c:	2dc50513          	addi	a0,a0,732 # 112dc <asc2_3216+0x1800>
    6b70:	8a9fa0ef          	jal	ra,1418 <rt_kprintf>
    6b74:	d81ff0ef          	jal	ra,68f4 <data_init>
    6b78:	634010ef          	jal	ra,81ac <thread_sema_init>
    6b7c:	00011537          	lui	a0,0x11
    6b80:	2f050513          	addi	a0,a0,752 # 112f0 <asc2_3216+0x1814>
    6b84:	895fa0ef          	jal	ra,1418 <rt_kprintf>
    6b88:	e67ff0ef          	jal	ra,69ee <peripheral_init>
    6b8c:	00011537          	lui	a0,0x11
    6b90:	30c50513          	addi	a0,a0,780 # 1130c <asc2_3216+0x1830>
    6b94:	885fa0ef          	jal	ra,1418 <rt_kprintf>
    6b98:	8522                	mv	a0,s0
    6b9a:	86df906f          	j	406 <__riscv_restore_0>
    6b9e:	00011537          	lui	a0,0x11
    6ba2:	2c850513          	addi	a0,a0,712 # 112c8 <asc2_3216+0x17ec>
    6ba6:	873fa0ef          	jal	ra,1418 <rt_kprintf>
    6baa:	547d                	li	s0,-1
    6bac:	b7f5                	j	6b98 <main+0x3c>

00006bae <user_EXTI0_IRQHandler>:
    6bae:	835f92ef          	jal	t0,3e2 <__riscv_save_0>
    6bb2:	20005537          	lui	a0,0x20005
    6bb6:	4705                	li	a4,1
    6bb8:	90018723          	sb	zero,-1778(gp) # 20003436 <DtwRun>
    6bbc:	40450513          	addi	a0,a0,1028 # 20005404 <sem_menu_lock>
    6bc0:	90e18923          	sb	a4,-1774(gp) # 2000343a <LcdScreen>
    6bc4:	dc5f90ef          	jal	ra,988 <rt_sem_release>
    6bc8:	4505                	li	a0,1
    6bca:	4f3010ef          	jal	ra,88bc <EXTI_ClearFlag>
    6bce:	839f906f          	j	406 <__riscv_restore_0>

00006bd2 <user_EXTI1_IRQHandler>:
    6bd2:	811f92ef          	jal	t0,3e2 <__riscv_save_0>
    6bd6:	20005537          	lui	a0,0x20005
    6bda:	4705                	li	a4,1
    6bdc:	3e450513          	addi	a0,a0,996 # 200053e4 <sem_key_lock>
    6be0:	80e18323          	sb	a4,-2042(gp) # 2000332e <KeyValue>
    6be4:	da5f90ef          	jal	ra,988 <rt_sem_release>
    6be8:	4509                	li	a0,2
    6bea:	4d3010ef          	jal	ra,88bc <EXTI_ClearFlag>
    6bee:	819f906f          	j	406 <__riscv_restore_0>

00006bf2 <user_EXTI2_IRQHandler>:
    6bf2:	ff0f92ef          	jal	t0,3e2 <__riscv_save_0>
    6bf6:	20005537          	lui	a0,0x20005
    6bfa:	4709                	li	a4,2
    6bfc:	3e450513          	addi	a0,a0,996 # 200053e4 <sem_key_lock>
    6c00:	80e18323          	sb	a4,-2042(gp) # 2000332e <KeyValue>
    6c04:	d85f90ef          	jal	ra,988 <rt_sem_release>
    6c08:	4511                	li	a0,4
    6c0a:	4b3010ef          	jal	ra,88bc <EXTI_ClearFlag>
    6c0e:	ff8f906f          	j	406 <__riscv_restore_0>

00006c12 <user_EXTI4_IRQHandler>:
    6c12:	fd0f92ef          	jal	t0,3e2 <__riscv_save_0>
    6c16:	20005537          	lui	a0,0x20005
    6c1a:	470d                	li	a4,3
    6c1c:	3e450513          	addi	a0,a0,996 # 200053e4 <sem_key_lock>
    6c20:	80e18323          	sb	a4,-2042(gp) # 2000332e <KeyValue>
    6c24:	d65f90ef          	jal	ra,988 <rt_sem_release>
    6c28:	4541                	li	a0,16
    6c2a:	493010ef          	jal	ra,88bc <EXTI_ClearFlag>
    6c2e:	fd8f906f          	j	406 <__riscv_restore_0>

00006c32 <user_EXTI9_5_IRQHandler>:
    6c32:	fb0f92ef          	jal	t0,3e2 <__riscv_save_0>
    6c36:	20005537          	lui	a0,0x20005
    6c3a:	3e450513          	addi	a0,a0,996 # 200053e4 <sem_key_lock>
    6c3e:	80018323          	sb	zero,-2042(gp) # 2000332e <KeyValue>
    6c42:	d47f90ef          	jal	ra,988 <rt_sem_release>
    6c46:	02000513          	li	a0,32
    6c4a:	473010ef          	jal	ra,88bc <EXTI_ClearFlag>
    6c4e:	fb8f906f          	j	406 <__riscv_restore_0>

00006c52 <main_init>:
    6c52:	f90f92ef          	jal	t0,3e2 <__riscv_save_0>
    6c56:	00011537          	lui	a0,0x11
    6c5a:	3bc50513          	addi	a0,a0,956 # 113bc <asc2_3216+0x18e0>
    6c5e:	fbafa0ef          	jal	ra,1418 <rt_kprintf>
    6c62:	247d                	jal	6f10 <SystemCoreClockUpdate>
    6c64:	8281a583          	lw	a1,-2008(gp) # 20003350 <SystemCoreClock>
    6c68:	00011537          	lui	a0,0x11
    6c6c:	3d050513          	addi	a0,a0,976 # 113d0 <asc2_3216+0x18f4>
    6c70:	fa8fa0ef          	jal	ra,1418 <rt_kprintf>
    6c74:	18b010ef          	jal	ra,85fe <DBGMCU_GetCHIPID>
    6c78:	85aa                	mv	a1,a0
    6c7a:	00011537          	lui	a0,0x11
    6c7e:	3e050513          	addi	a0,a0,992 # 113e0 <asc2_3216+0x1904>
    6c82:	f96fa0ef          	jal	ra,1418 <rt_kprintf>
    6c86:	00011537          	lui	a0,0x11
    6c8a:	3f050513          	addi	a0,a0,1008 # 113f0 <asc2_3216+0x1914>
    6c8e:	f8afa0ef          	jal	ra,1418 <rt_kprintf>
    6c92:	f74f906f          	j	406 <__riscv_restore_0>

00006c96 <key_init>:
    6c96:	f32f92ef          	jal	t0,3c8 <__riscv_save_4>
    6c9a:	0000e537          	lui	a0,0xe
    6c9e:	03450513          	addi	a0,a0,52 # e034 <pins+0x650>
    6ca2:	953f90ef          	jal	ra,5f4 <rt_device_find>
    6ca6:	14050863          	beqz	a0,6df6 <key_init+0x160>
    6caa:	82418613          	addi	a2,gp,-2012 # 2000334c <wakeup_mode.7565>
    6cae:	4581                	li	a1,0
    6cb0:	842a                	mv	s0,a0
    6cb2:	82418493          	addi	s1,gp,-2012 # 2000334c <wakeup_mode.7565>
    6cb6:	addf90ef          	jal	ra,792 <rt_device_control>
    6cba:	10051e63          	bnez	a0,6dd6 <key_init+0x140>
    6cbe:	82018613          	addi	a2,gp,-2016 # 20003348 <up_mode.7566>
    6cc2:	4581                	li	a1,0
    6cc4:	8522                	mv	a0,s0
    6cc6:	82018913          	addi	s2,gp,-2016 # 20003348 <up_mode.7566>
    6cca:	ac9f90ef          	jal	ra,792 <rt_device_control>
    6cce:	10051463          	bnez	a0,6dd6 <key_init+0x140>
    6cd2:	81c18613          	addi	a2,gp,-2020 # 20003344 <down_mode.7567>
    6cd6:	4581                	li	a1,0
    6cd8:	8522                	mv	a0,s0
    6cda:	81c18993          	addi	s3,gp,-2020 # 20003344 <down_mode.7567>
    6cde:	ab5f90ef          	jal	ra,792 <rt_device_control>
    6ce2:	0e051a63          	bnez	a0,6dd6 <key_init+0x140>
    6ce6:	81418613          	addi	a2,gp,-2028 # 2000333c <back_mode.7568>
    6cea:	4581                	li	a1,0
    6cec:	8522                	mv	a0,s0
    6cee:	81418a13          	addi	s4,gp,-2028 # 2000333c <back_mode.7568>
    6cf2:	aa1f90ef          	jal	ra,792 <rt_device_control>
    6cf6:	e165                	bnez	a0,6dd6 <key_init+0x140>
    6cf8:	81818613          	addi	a2,gp,-2024 # 20003340 <confirm_mode.7569>
    6cfc:	4581                	li	a1,0
    6cfe:	8522                	mv	a0,s0
    6d00:	81818a93          	addi	s5,gp,-2024 # 20003340 <confirm_mode.7569>
    6d04:	a8ff90ef          	jal	ra,792 <rt_device_control>
    6d08:	e579                	bnez	a0,6dd6 <key_init+0x140>
    6d0a:	407c                	lw	a5,68(s0)
    6d0c:	0004d583          	lhu	a1,0(s1)
    6d10:	000076b7          	lui	a3,0x7
    6d14:	47dc                	lw	a5,12(a5)
    6d16:	4701                	li	a4,0
    6d18:	bae68693          	addi	a3,a3,-1106 # 6bae <user_EXTI0_IRQHandler>
    6d1c:	4601                	li	a2,0
    6d1e:	8522                	mv	a0,s0
    6d20:	9782                	jalr	a5
    6d22:	407c                	lw	a5,68(s0)
    6d24:	0004d583          	lhu	a1,0(s1)
    6d28:	4605                	li	a2,1
    6d2a:	4bdc                	lw	a5,20(a5)
    6d2c:	8522                	mv	a0,s0
    6d2e:	9782                	jalr	a5
    6d30:	407c                	lw	a5,68(s0)
    6d32:	00095583          	lhu	a1,0(s2)
    6d36:	000076b7          	lui	a3,0x7
    6d3a:	47dc                	lw	a5,12(a5)
    6d3c:	4701                	li	a4,0
    6d3e:	bd268693          	addi	a3,a3,-1070 # 6bd2 <user_EXTI1_IRQHandler>
    6d42:	4601                	li	a2,0
    6d44:	8522                	mv	a0,s0
    6d46:	9782                	jalr	a5
    6d48:	407c                	lw	a5,68(s0)
    6d4a:	00095583          	lhu	a1,0(s2)
    6d4e:	4605                	li	a2,1
    6d50:	4bdc                	lw	a5,20(a5)
    6d52:	8522                	mv	a0,s0
    6d54:	9782                	jalr	a5
    6d56:	407c                	lw	a5,68(s0)
    6d58:	0009d583          	lhu	a1,0(s3)
    6d5c:	000076b7          	lui	a3,0x7
    6d60:	47dc                	lw	a5,12(a5)
    6d62:	4701                	li	a4,0
    6d64:	bf268693          	addi	a3,a3,-1038 # 6bf2 <user_EXTI2_IRQHandler>
    6d68:	4601                	li	a2,0
    6d6a:	8522                	mv	a0,s0
    6d6c:	9782                	jalr	a5
    6d6e:	407c                	lw	a5,68(s0)
    6d70:	0009d583          	lhu	a1,0(s3)
    6d74:	4605                	li	a2,1
    6d76:	4bdc                	lw	a5,20(a5)
    6d78:	8522                	mv	a0,s0
    6d7a:	9782                	jalr	a5
    6d7c:	407c                	lw	a5,68(s0)
    6d7e:	000a5583          	lhu	a1,0(s4)
    6d82:	000076b7          	lui	a3,0x7
    6d86:	47dc                	lw	a5,12(a5)
    6d88:	4701                	li	a4,0
    6d8a:	c1268693          	addi	a3,a3,-1006 # 6c12 <user_EXTI4_IRQHandler>
    6d8e:	4601                	li	a2,0
    6d90:	8522                	mv	a0,s0
    6d92:	9782                	jalr	a5
    6d94:	407c                	lw	a5,68(s0)
    6d96:	000a5583          	lhu	a1,0(s4)
    6d9a:	4605                	li	a2,1
    6d9c:	4bdc                	lw	a5,20(a5)
    6d9e:	8522                	mv	a0,s0
    6da0:	9782                	jalr	a5
    6da2:	407c                	lw	a5,68(s0)
    6da4:	000ad583          	lhu	a1,0(s5)
    6da8:	000076b7          	lui	a3,0x7
    6dac:	47dc                	lw	a5,12(a5)
    6dae:	4701                	li	a4,0
    6db0:	c3268693          	addi	a3,a3,-974 # 6c32 <user_EXTI9_5_IRQHandler>
    6db4:	4601                	li	a2,0
    6db6:	8522                	mv	a0,s0
    6db8:	9782                	jalr	a5
    6dba:	407c                	lw	a5,68(s0)
    6dbc:	000ad583          	lhu	a1,0(s5)
    6dc0:	4605                	li	a2,1
    6dc2:	4bdc                	lw	a5,20(a5)
    6dc4:	8522                	mv	a0,s0
    6dc6:	9782                	jalr	a5
    6dc8:	458d                	li	a1,3
    6dca:	8522                	mv	a0,s0
    6dcc:	8aff90ef          	jal	ra,67a <rt_device_open>
    6dd0:	e919                	bnez	a0,6de6 <key_init+0x150>
    6dd2:	e2af906f          	j	3fc <__riscv_restore_4>
    6dd6:	00011537          	lui	a0,0x11
    6dda:	39050513          	addi	a0,a0,912 # 11390 <asc2_3216+0x18b4>
    6dde:	e3afa0ef          	jal	ra,1418 <rt_kprintf>
    6de2:	557d                	li	a0,-1
    6de4:	b7fd                	j	6dd2 <key_init+0x13c>
    6de6:	00011537          	lui	a0,0x11
    6dea:	3a450513          	addi	a0,a0,932 # 113a4 <asc2_3216+0x18c8>
    6dee:	e2afa0ef          	jal	ra,1418 <rt_kprintf>
    6df2:	557d                	li	a0,-1
    6df4:	bff9                	j	6dd2 <key_init+0x13c>
    6df6:	00011537          	lui	a0,0x11
    6dfa:	37850513          	addi	a0,a0,888 # 11378 <asc2_3216+0x189c>
    6dfe:	e1afa0ef          	jal	ra,1418 <rt_kprintf>
    6e02:	557d                	li	a0,-1
    6e04:	b7f9                	j	6dd2 <key_init+0x13c>

00006e06 <SystemInit>:
    6e06:	400217b7          	lui	a5,0x40021
    6e0a:	4398                	lw	a4,0(a5)
    6e0c:	f8ff06b7          	lui	a3,0xf8ff0
    6e10:	1141                	addi	sp,sp,-16
    6e12:	00176713          	ori	a4,a4,1
    6e16:	c398                	sw	a4,0(a5)
    6e18:	43d8                	lw	a4,4(a5)
    6e1a:	40021537          	lui	a0,0x40021
    6e1e:	000205b7          	lui	a1,0x20
    6e22:	8f75                	and	a4,a4,a3
    6e24:	c3d8                	sw	a4,4(a5)
    6e26:	4398                	lw	a4,0(a5)
    6e28:	fef706b7          	lui	a3,0xfef70
    6e2c:	16fd                	addi	a3,a3,-1
    6e2e:	8f75                	and	a4,a4,a3
    6e30:	c398                	sw	a4,0(a5)
    6e32:	4398                	lw	a4,0(a5)
    6e34:	fffc06b7          	lui	a3,0xfffc0
    6e38:	16fd                	addi	a3,a3,-1
    6e3a:	8f75                	and	a4,a4,a3
    6e3c:	c398                	sw	a4,0(a5)
    6e3e:	43d8                	lw	a4,4(a5)
    6e40:	ff8106b7          	lui	a3,0xff810
    6e44:	16fd                	addi	a3,a3,-1
    6e46:	8f75                	and	a4,a4,a3
    6e48:	c3d8                	sw	a4,4(a5)
    6e4a:	4398                	lw	a4,0(a5)
    6e4c:	ec0006b7          	lui	a3,0xec000
    6e50:	16fd                	addi	a3,a3,-1
    6e52:	8f75                	and	a4,a4,a3
    6e54:	c398                	sw	a4,0(a5)
    6e56:	00ff0737          	lui	a4,0xff0
    6e5a:	c798                	sw	a4,8(a5)
    6e5c:	0207a623          	sw	zero,44(a5) # 4002102c <_eusrstack+0x2001102c>
    6e60:	c402                	sw	zero,8(sp)
    6e62:	c602                	sw	zero,12(sp)
    6e64:	4398                	lw	a4,0(a5)
    6e66:	66c1                	lui	a3,0x10
    6e68:	6605                	lui	a2,0x1
    6e6a:	8f55                	or	a4,a4,a3
    6e6c:	c398                	sw	a4,0(a5)
    6e6e:	a021                	j	6e76 <SystemInit+0x70>
    6e70:	47a2                	lw	a5,8(sp)
    6e72:	00c78a63          	beq	a5,a2,6e86 <SystemInit+0x80>
    6e76:	411c                	lw	a5,0(a0)
    6e78:	8fed                	and	a5,a5,a1
    6e7a:	c63e                	sw	a5,12(sp)
    6e7c:	47a2                	lw	a5,8(sp)
    6e7e:	0785                	addi	a5,a5,1
    6e80:	c43e                	sw	a5,8(sp)
    6e82:	47b2                	lw	a5,12(sp)
    6e84:	d7f5                	beqz	a5,6e70 <SystemInit+0x6a>
    6e86:	400217b7          	lui	a5,0x40021
    6e8a:	439c                	lw	a5,0(a5)
    6e8c:	00e79713          	slli	a4,a5,0xe
    6e90:	00075a63          	bgez	a4,6ea4 <SystemInit+0x9e>
    6e94:	4785                	li	a5,1
    6e96:	c63e                	sw	a5,12(sp)
    6e98:	4732                	lw	a4,12(sp)
    6e9a:	4785                	li	a5,1
    6e9c:	00f70963          	beq	a4,a5,6eae <SystemInit+0xa8>
    6ea0:	0141                	addi	sp,sp,16
    6ea2:	8082                	ret
    6ea4:	c602                	sw	zero,12(sp)
    6ea6:	4732                	lw	a4,12(sp)
    6ea8:	4785                	li	a5,1
    6eaa:	fef71be3          	bne	a4,a5,6ea0 <SystemInit+0x9a>
    6eae:	400217b7          	lui	a5,0x40021
    6eb2:	43d8                	lw	a4,4(a5)
    6eb4:	ffc10637          	lui	a2,0xffc10
    6eb8:	167d                	addi	a2,a2,-1
    6eba:	c3d8                	sw	a4,4(a5)
    6ebc:	43d8                	lw	a4,4(a5)
    6ebe:	c3d8                	sw	a4,4(a5)
    6ec0:	43d4                	lw	a3,4(a5)
    6ec2:	40021737          	lui	a4,0x40021
    6ec6:	4006e693          	ori	a3,a3,1024
    6eca:	c3d4                	sw	a3,4(a5)
    6ecc:	43d4                	lw	a3,4(a5)
    6ece:	8ef1                	and	a3,a3,a2
    6ed0:	c3d4                	sw	a3,4(a5)
    6ed2:	43d4                	lw	a3,4(a5)
    6ed4:	00290637          	lui	a2,0x290
    6ed8:	8ed1                	or	a3,a3,a2
    6eda:	c3d4                	sw	a3,4(a5)
    6edc:	4394                	lw	a3,0(a5)
    6ede:	01000637          	lui	a2,0x1000
    6ee2:	8ed1                	or	a3,a3,a2
    6ee4:	c394                	sw	a3,0(a5)
    6ee6:	431c                	lw	a5,0(a4)
    6ee8:	00679693          	slli	a3,a5,0x6
    6eec:	fe06dde3          	bgez	a3,6ee6 <SystemInit+0xe0>
    6ef0:	435c                	lw	a5,4(a4)
    6ef2:	40021637          	lui	a2,0x40021
    6ef6:	46a1                	li	a3,8
    6ef8:	9bf1                	andi	a5,a5,-4
    6efa:	c35c                	sw	a5,4(a4)
    6efc:	435c                	lw	a5,4(a4)
    6efe:	0027e793          	ori	a5,a5,2
    6f02:	c35c                	sw	a5,4(a4)
    6f04:	425c                	lw	a5,4(a2)
    6f06:	8bb1                	andi	a5,a5,12
    6f08:	fed79ee3          	bne	a5,a3,6f04 <SystemInit+0xfe>
    6f0c:	0141                	addi	sp,sp,16
    6f0e:	8082                	ret

00006f10 <SystemCoreClockUpdate>:
    6f10:	40021737          	lui	a4,0x40021
    6f14:	435c                	lw	a5,4(a4)
    6f16:	4691                	li	a3,4
    6f18:	8bb1                	andi	a5,a5,12
    6f1a:	00d78563          	beq	a5,a3,6f24 <SystemCoreClockUpdate+0x14>
    6f1e:	46a1                	li	a3,8
    6f20:	02d78963          	beq	a5,a3,6f52 <SystemCoreClockUpdate+0x42>
    6f24:	007a17b7          	lui	a5,0x7a1
    6f28:	20078793          	addi	a5,a5,512 # 7a1200 <__rt_init_end+0x78f8c0>
    6f2c:	82818613          	addi	a2,gp,-2008 # 20003350 <SystemCoreClock>
    6f30:	40021737          	lui	a4,0x40021
    6f34:	4358                	lw	a4,4(a4)
    6f36:	8311                	srli	a4,a4,0x4
    6f38:	00f77693          	andi	a3,a4,15
    6f3c:	20003737          	lui	a4,0x20003
    6f40:	2a870713          	addi	a4,a4,680 # 200032a8 <AHBPrescTable>
    6f44:	9736                	add	a4,a4,a3
    6f46:	00074703          	lbu	a4,0(a4)
    6f4a:	00e7d7b3          	srl	a5,a5,a4
    6f4e:	c21c                	sw	a5,0(a2)
    6f50:	8082                	ret
    6f52:	435c                	lw	a5,4(a4)
    6f54:	4354                	lw	a3,4(a4)
    6f56:	0127d713          	srli	a4,a5,0x12
    6f5a:	8b3d                	andi	a4,a4,15
    6f5c:	67c1                	lui	a5,0x10
    6f5e:	8efd                	and	a3,a3,a5
    6f60:	00270793          	addi	a5,a4,2
    6f64:	cf05                	beqz	a4,6f9c <SystemCoreClockUpdate+0x8c>
    6f66:	473d                	li	a4,15
    6f68:	06e78463          	beq	a5,a4,6fd0 <SystemCoreClockUpdate+0xc0>
    6f6c:	4741                	li	a4,16
    6f6e:	04e79b63          	bne	a5,a4,6fc4 <SystemCoreClockUpdate+0xb4>
    6f72:	4701                	li	a4,0
    6f74:	47bd                	li	a5,15
    6f76:	e695                	bnez	a3,6fa2 <SystemCoreClockUpdate+0x92>
    6f78:	400246b7          	lui	a3,0x40024
    6f7c:	8006a683          	lw	a3,-2048(a3) # 40023800 <_eusrstack+0x20013800>
    6f80:	8ac1                	andi	a3,a3,16
    6f82:	c69d                	beqz	a3,6fb0 <SystemCoreClockUpdate+0xa0>
    6f84:	007a16b7          	lui	a3,0x7a1
    6f88:	20068693          	addi	a3,a3,512 # 7a1200 <__rt_init_end+0x78f8c0>
    6f8c:	02d787b3          	mul	a5,a5,a3
    6f90:	82818613          	addi	a2,gp,-2008 # 20003350 <SystemCoreClock>
    6f94:	c21c                	sw	a5,0(a2)
    6f96:	df49                	beqz	a4,6f30 <SystemCoreClockUpdate+0x20>
    6f98:	8385                	srli	a5,a5,0x1
    6f9a:	bf59                	j	6f30 <SystemCoreClockUpdate+0x20>
    6f9c:	4701                	li	a4,0
    6f9e:	47c9                	li	a5,18
    6fa0:	dee1                	beqz	a3,6f78 <SystemCoreClockUpdate+0x68>
    6fa2:	400216b7          	lui	a3,0x40021
    6fa6:	42d4                	lw	a3,4(a3)
    6fa8:	00e69613          	slli	a2,a3,0xe
    6fac:	fc065ce3          	bgez	a2,6f84 <SystemCoreClockUpdate+0x74>
    6fb0:	003d16b7          	lui	a3,0x3d1
    6fb4:	90068693          	addi	a3,a3,-1792 # 3d0900 <__rt_init_end+0x3befc0>
    6fb8:	02d787b3          	mul	a5,a5,a3
    6fbc:	82818613          	addi	a2,gp,-2008 # 20003350 <SystemCoreClock>
    6fc0:	c21c                	sw	a5,0(a2)
    6fc2:	bfd1                	j	6f96 <SystemCoreClockUpdate+0x86>
    6fc4:	4745                	li	a4,17
    6fc6:	00e79863          	bne	a5,a4,6fd6 <SystemCoreClockUpdate+0xc6>
    6fca:	4701                	li	a4,0
    6fcc:	47c1                	li	a5,16
    6fce:	b765                	j	6f76 <SystemCoreClockUpdate+0x66>
    6fd0:	4705                	li	a4,1
    6fd2:	47b5                	li	a5,13
    6fd4:	b74d                	j	6f76 <SystemCoreClockUpdate+0x66>
    6fd6:	4701                	li	a4,0
    6fd8:	bf79                	j	6f76 <SystemCoreClockUpdate+0x66>

00006fda <LCD_thread_entry>:
    6fda:	bd8f92ef          	jal	t0,3b2 <__riscv_save_12>
    6fde:	93018793          	addi	a5,gp,-1744 # 20003458 <mutex_lock>
    6fe2:	4388                	lw	a0,0(a5)
    6fe4:	715d                	addi	sp,sp,-80
    6fe6:	55fd                	li	a1,-1
    6fe8:	d03e                	sw	a5,32(sp)
    6fea:	a11f90ef          	jal	ra,9fa <rt_mutex_take>
    6fee:	20005537          	lui	a0,0x20005
    6ff2:	55fd                	li	a1,-1
    6ff4:	40450513          	addi	a0,a0,1028 # 20005404 <sem_menu_lock>
    6ff8:	8adf90ef          	jal	ra,8a4 <rt_sem_take>
    6ffc:	000117b7          	lui	a5,0x11
    7000:	4307a603          	lw	a2,1072(a5) # 11430 <asc2_3216+0x1954>
    7004:	4347a583          	lw	a1,1076(a5)
    7008:	000117b7          	lui	a5,0x11
    700c:	4447a803          	lw	a6,1092(a5) # 11444 <asc2_3216+0x1968>
    7010:	4407a783          	lw	a5,1088(a5)
    7014:	000116b7          	lui	a3,0x11
    7018:	4386a703          	lw	a4,1080(a3) # 11438 <asc2_3216+0x195c>
    701c:	cc3e                	sw	a5,24(sp)
    701e:	000117b7          	lui	a5,0x11
    7022:	42c7a783          	lw	a5,1068(a5) # 1142c <asc2_3216+0x1950>
    7026:	43c6a683          	lw	a3,1084(a3)
    702a:	d23e                	sw	a5,36(sp)
    702c:	92f18793          	addi	a5,gp,-1745 # 20003457 <mallocFlag>
    7030:	c83e                	sw	a5,16(sp)
    7032:	92c18793          	addi	a5,gp,-1748 # 20003454 <k>
    7036:	c43e                	sw	a5,8(sp)
    7038:	200057b7          	lui	a5,0x20005
    703c:	a5478793          	addi	a5,a5,-1452 # 20004a54 <TemplateDataSample>
    7040:	c63e                	sw	a5,12(sp)
    7042:	200007b7          	lui	a5,0x20000
    7046:	15078793          	addi	a5,a5,336 # 20000150 <AddrTempPeak>
    704a:	d83a                	sw	a4,48(sp)
    704c:	da36                	sw	a3,52(sp)
    704e:	d432                	sw	a2,40(sp)
    7050:	d62e                	sw	a1,44(sp)
    7052:	ce42                	sw	a6,28(sp)
    7054:	00011b37          	lui	s6,0x11
    7058:	00011ab7          	lui	s5,0x11
    705c:	92818493          	addi	s1,gp,-1752 # 20003450 <LcdScreenSubOption>
    7060:	20005a37          	lui	s4,0x20005
    7064:	ca3e                	sw	a5,20(sp)
    7066:	dc3a                	sw	a4,56(sp)
    7068:	de36                	sw	a3,60(sp)
    706a:	c0b2                	sw	a2,64(sp)
    706c:	c2ae                	sw	a1,68(sp)
    706e:	c4ba                	sw	a4,72(sp)
    7070:	c6b6                	sw	a3,76(sp)
    7072:	c48f90ef          	jal	ra,4ba <rt_tick_get>
    7076:	85aa                	mv	a1,a0
    7078:	344b0513          	addi	a0,s6,836 # 11344 <asc2_3216+0x1868>
    707c:	b9cfa0ef          	jal	ra,1418 <rt_kprintf>
    7080:	448a8513          	addi	a0,s5,1096 # 11448 <asc2_3216+0x196c>
    7084:	b94fa0ef          	jal	ra,1418 <rt_kprintf>
    7088:	9121c503          	lbu	a0,-1774(gp) # 2000343a <LcdScreen>
    708c:	0004c583          	lbu	a1,0(s1)
    7090:	d06fd0ef          	jal	ra,4596 <DrawMenu>
    7094:	55fd                	li	a1,-1
    7096:	3e4a0513          	addi	a0,s4,996 # 200053e4 <sem_key_lock>
    709a:	80bf90ef          	jal	ra,8a4 <rt_sem_take>
    709e:	8061c783          	lbu	a5,-2042(gp) # 2000332e <KeyValue>
    70a2:	0ff7f793          	andi	a5,a5,255
    70a6:	90f187a3          	sb	a5,-1777(gp) # 20003437 <KeyReg>
    70aa:	9121c783          	lbu	a5,-1774(gp) # 2000343a <LcdScreen>
    70ae:	0ff7f793          	andi	a5,a5,255
    70b2:	eb91                	bnez	a5,70c6 <LCD_thread_entry+0xec>
    70b4:	1f400513          	li	a0,500
    70b8:	da3fa0ef          	jal	ra,1e5a <rt_thread_mdelay>
    70bc:	9121c783          	lbu	a5,-1774(gp) # 2000343a <LcdScreen>
    70c0:	0ff7f793          	andi	a5,a5,255
    70c4:	dbe5                	beqz	a5,70b4 <LCD_thread_entry+0xda>
    70c6:	9121c783          	lbu	a5,-1774(gp) # 2000343a <LcdScreen>
    70ca:	4705                	li	a4,1
    70cc:	0ff7f793          	andi	a5,a5,255
    70d0:	04e78763          	beq	a5,a4,711e <LCD_thread_entry+0x144>
    70d4:	9121c783          	lbu	a5,-1774(gp) # 2000343a <LcdScreen>
    70d8:	4b89                	li	s7,2
    70da:	0ff7f793          	andi	a5,a5,255
    70de:	05778e63          	beq	a5,s7,713a <LCD_thread_entry+0x160>
    70e2:	9121c783          	lbu	a5,-1774(gp) # 2000343a <LcdScreen>
    70e6:	468d                	li	a3,3
    70e8:	12f68963          	beq	a3,a5,721a <LCD_thread_entry+0x240>
    70ec:	9121c783          	lbu	a5,-1774(gp) # 2000343a <LcdScreen>
    70f0:	4611                	li	a2,4
    70f2:	0ff7f793          	andi	a5,a5,255
    70f6:	20c78a63          	beq	a5,a2,730a <LCD_thread_entry+0x330>
    70fa:	9121c783          	lbu	a5,-1774(gp) # 2000343a <LcdScreen>
    70fe:	4695                	li	a3,5
    7100:	f6f699e3          	bne	a3,a5,7072 <LCD_thread_entry+0x98>
    7104:	90f1c783          	lbu	a5,-1777(gp) # 20003437 <KeyReg>
    7108:	0ff7f793          	andi	a5,a5,255
    710c:	2ee78e63          	beq	a5,a4,7408 <LCD_thread_entry+0x42e>
    7110:	2a078463          	beqz	a5,73b8 <LCD_thread_entry+0x3de>
    7114:	f5779fe3          	bne	a5,s7,7072 <LCD_thread_entry+0x98>
    7118:	90e18923          	sb	a4,-1774(gp) # 2000343a <LcdScreen>
    711c:	bf99                	j	7072 <LCD_thread_entry+0x98>
    711e:	0004c703          	lbu	a4,0(s1)
    7122:	ef0d                	bnez	a4,715c <LCD_thread_entry+0x182>
    7124:	90f1c703          	lbu	a4,-1777(gp) # 20003437 <KeyReg>
    7128:	0ff77713          	andi	a4,a4,255
    712c:	1ef70c63          	beq	a4,a5,7324 <LCD_thread_entry+0x34a>
    7130:	c36d                	beqz	a4,7212 <LCD_thread_entry+0x238>
    7132:	4789                	li	a5,2
    7134:	fef702e3          	beq	a4,a5,7118 <LCD_thread_entry+0x13e>
    7138:	bf2d                	j	7072 <LCD_thread_entry+0x98>
    713a:	0004c683          	lbu	a3,0(s1)
    713e:	16069d63          	bnez	a3,72b8 <LCD_thread_entry+0x2de>
    7142:	90f1c683          	lbu	a3,-1777(gp) # 20003437 <KeyReg>
    7146:	0ff6f693          	andi	a3,a3,255
    714a:	22e68463          	beq	a3,a4,7372 <LCD_thread_entry+0x398>
    714e:	c2f1                	beqz	a3,7212 <LCD_thread_entry+0x238>
    7150:	24f68263          	beq	a3,a5,7394 <LCD_thread_entry+0x3ba>
    7154:	478d                	li	a5,3
    7156:	fcf681e3          	beq	a3,a5,7118 <LCD_thread_entry+0x13e>
    715a:	bf21                	j	7072 <LCD_thread_entry+0x98>
    715c:	4795                	li	a5,5
    715e:	f0e7eae3          	bltu	a5,a4,7072 <LCD_thread_entry+0x98>
    7162:	67c5                	lui	a5,0x11
    7164:	40078793          	addi	a5,a5,1024 # 11400 <asc2_3216+0x1924>
    7168:	070a                	slli	a4,a4,0x2
    716a:	973e                	add	a4,a4,a5
    716c:	431c                	lw	a5,0(a4)
    716e:	8782                	jr	a5
    7170:	90f1c783          	lbu	a5,-1777(gp) # 20003437 <KeyReg>
    7174:	0ff7f793          	andi	a5,a5,255
    7178:	32078763          	beqz	a5,74a6 <LCD_thread_entry+0x4cc>
    717c:	470d                	li	a4,3
    717e:	eee79ae3          	bne	a5,a4,7072 <LCD_thread_entry+0x98>
    7182:	4791                	li	a5,4
    7184:	00f48023          	sb	a5,0(s1)
    7188:	b5ed                	j	7072 <LCD_thread_entry+0x98>
    718a:	90f1c783          	lbu	a5,-1777(gp) # 20003437 <KeyReg>
    718e:	4705                	li	a4,1
    7190:	0ff7f793          	andi	a5,a5,255
    7194:	52e78763          	beq	a5,a4,76c2 <LCD_thread_entry+0x6e8>
    7198:	50078163          	beqz	a5,769a <LCD_thread_entry+0x6c0>
    719c:	4709                	li	a4,2
    719e:	56e78e63          	beq	a5,a4,771a <LCD_thread_entry+0x740>
    71a2:	470d                	li	a4,3
    71a4:	ece797e3          	bne	a5,a4,7072 <LCD_thread_entry+0x98>
    71a8:	478d                	li	a5,3
    71aa:	00f48023          	sb	a5,0(s1)
    71ae:	b5d1                	j	7072 <LCD_thread_entry+0x98>
    71b0:	90f1c783          	lbu	a5,-1777(gp) # 20003437 <KeyReg>
    71b4:	4705                	li	a4,1
    71b6:	0ff7f793          	andi	a5,a5,255
    71ba:	54e78263          	beq	a5,a4,76fe <LCD_thread_entry+0x724>
    71be:	d3f1                	beqz	a5,7182 <LCD_thread_entry+0x1a8>
    71c0:	4709                	li	a4,2
    71c2:	52e78063          	beq	a5,a4,76e2 <LCD_thread_entry+0x708>
    71c6:	470d                	li	a4,3
    71c8:	eae795e3          	bne	a5,a4,7072 <LCD_thread_entry+0x98>
    71cc:	4789                	li	a5,2
    71ce:	00f48023          	sb	a5,0(s1)
    71d2:	b545                	j	7072 <LCD_thread_entry+0x98>
    71d4:	90f1c783          	lbu	a5,-1777(gp) # 20003437 <KeyReg>
    71d8:	4705                	li	a4,1
    71da:	0ff7f793          	andi	a5,a5,255
    71de:	48e78763          	beq	a5,a4,766c <LCD_thread_entry+0x692>
    71e2:	d7ed                	beqz	a5,71cc <LCD_thread_entry+0x1f2>
    71e4:	4709                	li	a4,2
    71e6:	44e78b63          	beq	a5,a4,763c <LCD_thread_entry+0x662>
    71ea:	470d                	li	a4,3
    71ec:	e8e793e3          	bne	a5,a4,7072 <LCD_thread_entry+0x98>
    71f0:	00048023          	sb	zero,0(s1)
    71f4:	bdbd                	j	7072 <LCD_thread_entry+0x98>
    71f6:	90f1c783          	lbu	a5,-1777(gp) # 20003437 <KeyReg>
    71fa:	4705                	li	a4,1
    71fc:	0ff7f793          	andi	a5,a5,255
    7200:	40e78763          	beq	a5,a4,760e <LCD_thread_entry+0x634>
    7204:	d3d5                	beqz	a5,71a8 <LCD_thread_entry+0x1ce>
    7206:	4709                	li	a4,2
    7208:	3ce78c63          	beq	a5,a4,75e0 <LCD_thread_entry+0x606>
    720c:	470d                	li	a4,3
    720e:	e6e792e3          	bne	a5,a4,7072 <LCD_thread_entry+0x98>
    7212:	4785                	li	a5,1
    7214:	00f48023          	sb	a5,0(s1)
    7218:	bda9                	j	7072 <LCD_thread_entry+0x98>
    721a:	0004c783          	lbu	a5,0(s1)
    721e:	4711                	li	a4,4
    7220:	fcf768e3          	bltu	a4,a5,71f0 <LCD_thread_entry+0x216>
    7224:	6745                	lui	a4,0x11
    7226:	078a                	slli	a5,a5,0x2
    7228:	41870713          	addi	a4,a4,1048 # 11418 <asc2_3216+0x193c>
    722c:	97ba                	add	a5,a5,a4
    722e:	439c                	lw	a5,0(a5)
    7230:	8782                	jr	a5
    7232:	90f1c783          	lbu	a5,-1777(gp) # 20003437 <KeyReg>
    7236:	4705                	li	a4,1
    7238:	0ff7f793          	andi	a5,a5,255
    723c:	f8e788e3          	beq	a5,a4,71cc <LCD_thread_entry+0x1f2>
    7240:	56078363          	beqz	a5,77a6 <LCD_thread_entry+0x7cc>
    7244:	4709                	li	a4,2
    7246:	fae792e3          	bne	a5,a4,71ea <LCD_thread_entry+0x210>
    724a:	bf25                	j	7182 <LCD_thread_entry+0x1a8>
    724c:	90f1c783          	lbu	a5,-1777(gp) # 20003437 <KeyReg>
    7250:	4705                	li	a4,1
    7252:	0ff7f793          	andi	a5,a5,255
    7256:	fae78ee3          	beq	a5,a4,7212 <LCD_thread_entry+0x238>
    725a:	5c078763          	beqz	a5,7828 <LCD_thread_entry+0x84e>
    725e:	4709                	li	a4,2
    7260:	f8e795e3          	bne	a5,a4,71ea <LCD_thread_entry+0x210>
    7264:	b791                	j	71a8 <LCD_thread_entry+0x1ce>
    7266:	90f1c783          	lbu	a5,-1777(gp) # 20003437 <KeyReg>
    726a:	4705                	li	a4,1
    726c:	0ff7f793          	andi	a5,a5,255
    7270:	f0e789e3          	beq	a5,a4,7182 <LCD_thread_entry+0x1a8>
    7274:	58078063          	beqz	a5,77f4 <LCD_thread_entry+0x81a>
    7278:	4709                	li	a4,2
    727a:	f6e798e3          	bne	a5,a4,71ea <LCD_thread_entry+0x210>
    727e:	b7b9                	j	71cc <LCD_thread_entry+0x1f2>
    7280:	90f1c783          	lbu	a5,-1777(gp) # 20003437 <KeyReg>
    7284:	4705                	li	a4,1
    7286:	0ff7f793          	andi	a5,a5,255
    728a:	f0e78fe3          	beq	a5,a4,71a8 <LCD_thread_entry+0x1ce>
    728e:	5c078b63          	beqz	a5,7864 <LCD_thread_entry+0x88a>
    7292:	4709                	li	a4,2
    7294:	f4e79be3          	bne	a5,a4,71ea <LCD_thread_entry+0x210>
    7298:	bfad                	j	7212 <LCD_thread_entry+0x238>
    729a:	90f1c783          	lbu	a5,-1777(gp) # 20003437 <KeyReg>
    729e:	4705                	li	a4,1
    72a0:	0ff7f793          	andi	a5,a5,255
    72a4:	30e78363          	beq	a5,a4,75aa <LCD_thread_entry+0x5d0>
    72a8:	d7ad                	beqz	a5,7212 <LCD_thread_entry+0x238>
    72aa:	4709                	li	a4,2
    72ac:	dce793e3          	bne	a5,a4,7072 <LCD_thread_entry+0x98>
    72b0:	4791                	li	a5,4
    72b2:	90f18923          	sb	a5,-1774(gp) # 2000343a <LcdScreen>
    72b6:	bb75                	j	7072 <LCD_thread_entry+0x98>
    72b8:	08e68b63          	beq	a3,a4,734e <LCD_thread_entry+0x374>
    72bc:	461d                	li	a2,7
    72be:	0ac68d63          	beq	a3,a2,7378 <LCD_thread_entry+0x39e>
    72c2:	4621                	li	a2,8
    72c4:	0cc68c63          	beq	a3,a2,739c <LCD_thread_entry+0x3c2>
    72c8:	4625                	li	a2,9
    72ca:	14c68263          	beq	a3,a2,740e <LCD_thread_entry+0x434>
    72ce:	4629                	li	a2,10
    72d0:	2ac68d63          	beq	a3,a2,758a <LCD_thread_entry+0x5b0>
    72d4:	4af68c63          	beq	a3,a5,778c <LCD_thread_entry+0x7b2>
    72d8:	478d                	li	a5,3
    72da:	5ef68a63          	beq	a3,a5,78ce <LCD_thread_entry+0x8f4>
    72de:	4791                	li	a5,4
    72e0:	60f68563          	beq	a3,a5,78ea <LCD_thread_entry+0x910>
    72e4:	4795                	li	a5,5
    72e6:	68f68f63          	beq	a3,a5,7984 <LCD_thread_entry+0x9aa>
    72ea:	4799                	li	a5,6
    72ec:	d8f693e3          	bne	a3,a5,7072 <LCD_thread_entry+0x98>
    72f0:	90f1c783          	lbu	a5,-1777(gp) # 20003437 <KeyReg>
    72f4:	4705                	li	a4,1
    72f6:	0ff7f793          	andi	a5,a5,255
    72fa:	60e78463          	beq	a5,a4,7902 <LCD_thread_entry+0x928>
    72fe:	00078ce3          	beqz	a5,7b16 <LCD_thread_entry+0xb3c>
    7302:	4709                	li	a4,2
    7304:	ece791e3          	bne	a5,a4,71c6 <LCD_thread_entry+0x1ec>
    7308:	b545                	j	71a8 <LCD_thread_entry+0x1ce>
    730a:	0004c603          	lbu	a2,0(s1)
    730e:	ee19                	bnez	a2,732c <LCD_thread_entry+0x352>
    7310:	90f1c783          	lbu	a5,-1777(gp) # 20003437 <KeyReg>
    7314:	0ff7f793          	andi	a5,a5,255
    7318:	04e78d63          	beq	a5,a4,7372 <LCD_thread_entry+0x398>
    731c:	ee078be3          	beqz	a5,7212 <LCD_thread_entry+0x238>
    7320:	d57799e3          	bne	a5,s7,7072 <LCD_thread_entry+0x98>
    7324:	4795                	li	a5,5
    7326:	90f18923          	sb	a5,-1774(gp) # 2000343a <LcdScreen>
    732a:	b3a1                	j	7072 <LCD_thread_entry+0x98>
    732c:	90f1c603          	lbu	a2,-1777(gp) # 20003437 <KeyReg>
    7330:	0ff67613          	andi	a2,a2,255
    7334:	14e60d63          	beq	a2,a4,748e <LCD_thread_entry+0x4b4>
    7338:	10060763          	beqz	a2,7446 <LCD_thread_entry+0x46c>
    733c:	0f760763          	beq	a2,s7,742a <LCD_thread_entry+0x450>
    7340:	d2d619e3          	bne	a2,a3,7072 <LCD_thread_entry+0x98>
    7344:	90f18923          	sb	a5,-1774(gp) # 2000343a <LcdScreen>
    7348:	00048023          	sb	zero,0(s1)
    734c:	b31d                	j	7072 <LCD_thread_entry+0x98>
    734e:	90f1c703          	lbu	a4,-1777(gp) # 20003437 <KeyReg>
    7352:	0ff77713          	andi	a4,a4,255
    7356:	00e7e863          	bltu	a5,a4,7366 <LCD_thread_entry+0x38c>
    735a:	e60719e3          	bnez	a4,71cc <LCD_thread_entry+0x1f2>
    735e:	479d                	li	a5,7
    7360:	00f48023          	sb	a5,0(s1)
    7364:	b339                	j	7072 <LCD_thread_entry+0x98>
    7366:	478d                	li	a5,3
    7368:	d0f715e3          	bne	a4,a5,7072 <LCD_thread_entry+0x98>
    736c:	00048023          	sb	zero,0(s1)
    7370:	b309                	j	7072 <LCD_thread_entry+0x98>
    7372:	90d18923          	sb	a3,-1774(gp) # 2000343a <LcdScreen>
    7376:	b9f5                	j	7072 <LCD_thread_entry+0x98>
    7378:	90f1c683          	lbu	a3,-1777(gp) # 20003437 <KeyReg>
    737c:	0ff6f693          	andi	a3,a3,255
    7380:	0ae68163          	beq	a3,a4,7422 <LCD_thread_entry+0x448>
    7384:	22068763          	beqz	a3,75b2 <LCD_thread_entry+0x5d8>
    7388:	20f68d63          	beq	a3,a5,75a2 <LCD_thread_entry+0x5c8>
    738c:	478d                	li	a5,3
    738e:	e8f682e3          	beq	a3,a5,7212 <LCD_thread_entry+0x238>
    7392:	b1c5                	j	7072 <LCD_thread_entry+0x98>
    7394:	478d                	li	a5,3
    7396:	90f18923          	sb	a5,-1774(gp) # 2000343a <LcdScreen>
    739a:	b9e1                	j	7072 <LCD_thread_entry+0x98>
    739c:	90f1c683          	lbu	a3,-1777(gp) # 20003437 <KeyReg>
    73a0:	0ff6f693          	andi	a3,a3,255
    73a4:	fae68de3          	beq	a3,a4,735e <LCD_thread_entry+0x384>
    73a8:	4e068b63          	beqz	a3,789e <LCD_thread_entry+0x8c4>
    73ac:	fef690e3          	bne	a3,a5,738c <LCD_thread_entry+0x3b2>
    73b0:	47a5                	li	a5,9
    73b2:	00f48023          	sb	a5,0(s1)
    73b6:	b975                	j	7072 <LCD_thread_entry+0x98>
    73b8:	0802a7b7          	lui	a5,0x802a
    73bc:	0007d703          	lhu	a4,0(a5) # 802a000 <__rt_init_end+0x80186c0>
    73c0:	67c1                	lui	a5,0x10
    73c2:	17fd                	addi	a5,a5,-1
    73c4:	10e78563          	beq	a5,a4,74ce <LCD_thread_entry+0x4f4>
    73c8:	4501                	li	a0,0
    73ca:	8bdfe0ef          	jal	ra,5c86 <lcd_clear>
    73ce:	000116b7          	lui	a3,0x11
    73d2:	47468693          	addi	a3,a3,1140 # 11474 <asc2_3216+0x1998>
    73d6:	4661                	li	a2,24
    73d8:	05000593          	li	a1,80
    73dc:	4551                	li	a0,20
    73de:	bceff0ef          	jal	ra,67ac <lcd_show_string>
    73e2:	000116b7          	lui	a3,0x11
    73e6:	48868693          	addi	a3,a3,1160 # 11488 <asc2_3216+0x19ac>
    73ea:	4661                	li	a2,24
    73ec:	0a000593          	li	a1,160
    73f0:	4551                	li	a0,20
    73f2:	bbaff0ef          	jal	ra,67ac <lcd_show_string>
    73f6:	7d000513          	li	a0,2000
    73fa:	61b010ef          	jal	ra,9214 <Delay_Ms>
    73fe:	91718923          	sb	s7,-1774(gp) # 2000343a <LcdScreen>
    7402:	00048023          	sb	zero,0(s1)
    7406:	b1b5                	j	7072 <LCD_thread_entry+0x98>
    7408:	90c18923          	sb	a2,-1774(gp) # 2000343a <LcdScreen>
    740c:	b19d                	j	7072 <LCD_thread_entry+0x98>
    740e:	90f1c683          	lbu	a3,-1777(gp) # 20003437 <KeyReg>
    7412:	0ff6f693          	andi	a3,a3,255
    7416:	18e68663          	beq	a3,a4,75a2 <LCD_thread_entry+0x5c8>
    741a:	52068963          	beqz	a3,794c <LCD_thread_entry+0x972>
    741e:	f6f697e3          	bne	a3,a5,738c <LCD_thread_entry+0x3b2>
    7422:	47a9                	li	a5,10
    7424:	00f48023          	sb	a5,0(s1)
    7428:	b1a9                	j	7072 <LCD_thread_entry+0x98>
    742a:	9161c783          	lbu	a5,-1770(gp) # 2000343e <TemplateWanted>
    742e:	0ff7f793          	andi	a5,a5,255
    7432:	36078663          	beqz	a5,779e <LCD_thread_entry+0x7c4>
    7436:	9161c783          	lbu	a5,-1770(gp) # 2000343e <TemplateWanted>
    743a:	17fd                	addi	a5,a5,-1
    743c:	0ff7f793          	andi	a5,a5,255
    7440:	90f18b23          	sb	a5,-1770(gp) # 2000343e <TemplateWanted>
    7444:	b13d                	j	7072 <LCD_thread_entry+0x98>
    7446:	4795                	li	a5,5
    7448:	4501                	li	a0,0
    744a:	90f18923          	sb	a5,-1774(gp) # 2000343a <LcdScreen>
    744e:	00048023          	sb	zero,0(s1)
    7452:	835fe0ef          	jal	ra,5c86 <lcd_clear>
    7456:	000116b7          	lui	a3,0x11
    745a:	49c68693          	addi	a3,a3,1180 # 1149c <asc2_3216+0x19c0>
    745e:	4661                	li	a2,24
    7460:	05000593          	li	a1,80
    7464:	02800513          	li	a0,40
    7468:	b44ff0ef          	jal	ra,67ac <lcd_show_string>
    746c:	9161c703          	lbu	a4,-1770(gp) # 2000343e <TemplateWanted>
    7470:	000116b7          	lui	a3,0x11
    7474:	4ac68693          	addi	a3,a3,1196 # 114ac <asc2_3216+0x19d0>
    7478:	4661                	li	a2,24
    747a:	0a000593          	li	a1,160
    747e:	4501                	li	a0,0
    7480:	b2cff0ef          	jal	ra,67ac <lcd_show_string>
    7484:	7d000513          	li	a0,2000
    7488:	58d010ef          	jal	ra,9214 <Delay_Ms>
    748c:	b6dd                	j	7072 <LCD_thread_entry+0x98>
    748e:	9161c783          	lbu	a5,-1770(gp) # 2000343e <TemplateWanted>
    7492:	2afbe463          	bltu	s7,a5,773a <LCD_thread_entry+0x760>
    7496:	9161c783          	lbu	a5,-1770(gp) # 2000343e <TemplateWanted>
    749a:	0785                	addi	a5,a5,1
    749c:	0ff7f793          	andi	a5,a5,255
    74a0:	90f18b23          	sb	a5,-1770(gp) # 2000343e <TemplateWanted>
    74a4:	b6f9                	j	7072 <LCD_thread_entry+0x98>
    74a6:	4501                	li	a0,0
    74a8:	00048023          	sb	zero,0(s1)
    74ac:	fdafe0ef          	jal	ra,5c86 <lcd_clear>
    74b0:	000116b7          	lui	a3,0x11
    74b4:	45068693          	addi	a3,a3,1104 # 11450 <asc2_3216+0x1974>
    74b8:	4661                	li	a2,24
    74ba:	05000593          	li	a1,80
    74be:	4551                	li	a0,20
    74c0:	aecff0ef          	jal	ra,67ac <lcd_show_string>
    74c4:	7d000513          	li	a0,2000
    74c8:	54d010ef          	jal	ra,9214 <Delay_Ms>
    74cc:	b65d                	j	7072 <LCD_thread_entry+0x98>
    74ce:	47c2                	lw	a5,16(sp)
    74d0:	0007c783          	lbu	a5,0(a5) # 10000 <asc2_3216+0x524>
    74d4:	0ff7f793          	andi	a5,a5,255
    74d8:	42079a63          	bnez	a5,790c <LCD_thread_entry+0x932>
    74dc:	47a2                	lw	a5,8(sp)
    74de:	4b85                	li	s7,1
    74e0:	4cb2                	lw	s9,12(sp)
    74e2:	00078023          	sb	zero,0(a5)
    74e6:	200007b7          	lui	a5,0x20000
    74ea:	16078d93          	addi	s11,a5,352 # 20000160 <AddrTempSize>
    74ee:	200007b7          	lui	a5,0x20000
    74f2:	14078d13          	addi	s10,a5,320 # 20000140 <AddrTemp>
    74f6:	c26a                	sw	s10,4(sp)
    74f8:	4c52                	lw	s8,20(sp)
    74fa:	8d5e                	mv	s10,s7
    74fc:	8bee                	mv	s7,s11
    74fe:	a03d                	j	752c <LCD_thread_entry+0x552>
    7500:	4d92                	lw	s11,4(sp)
    7502:	863a                	mv	a2,a4
    7504:	0b91                	addi	s7,s7,4
    7506:	000da583          	lw	a1,0(s11)
    750a:	0c91                	addi	s9,s9,4
    750c:	0c11                	addi	s8,s8,4
    750e:	61b030ef          	jal	ra,b328 <memcpy>
    7512:	4722                	lw	a4,8(sp)
    7514:	001d0793          	addi	a5,s10,1
    7518:	01a70023          	sb	s10,0(a4)
    751c:	0ff7fd13          	andi	s10,a5,255
    7520:	004d8793          	addi	a5,s11,4
    7524:	c23e                	sw	a5,4(sp)
    7526:	4795                	li	a5,5
    7528:	20fd0c63          	beq	s10,a5,7740 <LCD_thread_entry+0x766>
    752c:	000ba783          	lw	a5,0(s7)
    7530:	000cad83          	lw	s11,0(s9)
    7534:	000c2603          	lw	a2,0(s8)
    7538:	0007d783          	lhu	a5,0(a5)
    753c:	07c2                	slli	a5,a5,0x10
    753e:	83c1                	srli	a5,a5,0x10
    7540:	00fd9223          	sh	a5,4(s11)
    7544:	00065603          	lhu	a2,0(a2) # 40021000 <_eusrstack+0x20011000>
    7548:	00179713          	slli	a4,a5,0x1
    754c:	853a                	mv	a0,a4
    754e:	00cd9323          	sh	a2,6(s11)
    7552:	c03a                	sw	a4,0(sp)
    7554:	5a5030ef          	jal	ra,b2f8 <malloc>
    7558:	00ada023          	sw	a0,0(s11)
    755c:	4702                	lw	a4,0(sp)
    755e:	f14d                	bnez	a0,7500 <LCD_thread_entry+0x526>
    7560:	f26fe0ef          	jal	ra,5c86 <lcd_clear>
    7564:	000116b7          	lui	a3,0x11
    7568:	4c468693          	addi	a3,a3,1220 # 114c4 <asc2_3216+0x19e8>
    756c:	4661                	li	a2,24
    756e:	05000593          	li	a1,80
    7572:	02800513          	li	a0,40
    7576:	a36ff0ef          	jal	ra,67ac <lcd_show_string>
    757a:	6505                	lui	a0,0x1
    757c:	bb850513          	addi	a0,a0,-1096 # bb8 <rt_mutex_release+0x76>
    7580:	495010ef          	jal	ra,9214 <Delay_Ms>
    7584:	6161                	addi	sp,sp,80
    7586:	e69f806f          	j	3ee <__riscv_restore_12>
    758a:	90f1c783          	lbu	a5,-1777(gp) # 20003437 <KeyReg>
    758e:	0ff7f793          	andi	a5,a5,255
    7592:	e0e78fe3          	beq	a5,a4,73b0 <LCD_thread_entry+0x3d6>
    7596:	42078c63          	beqz	a5,79ce <LCD_thread_entry+0x9f4>
    759a:	4709                	li	a4,2
    759c:	c6e798e3          	bne	a5,a4,720c <LCD_thread_entry+0x232>
    75a0:	bb7d                	j	735e <LCD_thread_entry+0x384>
    75a2:	47a1                	li	a5,8
    75a4:	00f48023          	sb	a5,0(s1)
    75a8:	b4e9                	j	7072 <LCD_thread_entry+0x98>
    75aa:	4789                	li	a5,2
    75ac:	90f18923          	sb	a5,-1774(gp) # 2000343a <LcdScreen>
    75b0:	b4c9                	j	7072 <LCD_thread_entry+0x98>
    75b2:	9181a503          	lw	a0,-1768(gp) # 20003440 <Template_Sample>
    75b6:	4581                	li	a1,0
    75b8:	9d9fd0ef          	jal	ra,4f90 <fasttraining>
    75bc:	332010ef          	jal	ra,88ee <FLASH_Unlock>
    75c0:	0802a7b7          	lui	a5,0x802a
    75c4:	0007d583          	lhu	a1,0(a5) # 802a000 <__rt_init_end+0x80186c0>
    75c8:	0802a537          	lui	a0,0x802a
    75cc:	00f5e593          	ori	a1,a1,15
    75d0:	392010ef          	jal	ra,8962 <FLASH_ProgramHalfWord>
    75d4:	334010ef          	jal	ra,8908 <FLASH_Lock>
    75d8:	47a1                	li	a5,8
    75da:	00f48023          	sb	a5,0(s1)
    75de:	bc51                	j	7072 <LCD_thread_entry+0x98>
    75e0:	80c1a503          	lw	a0,-2036(gp) # 20003334 <fac_Odist>
    75e4:	289030ef          	jal	ra,b06c <__extendsfdf2>
    75e8:	4662                	lw	a2,24(sp)
    75ea:	46f2                	lw	a3,28(sp)
    75ec:	3fc020ef          	jal	ra,99e8 <__gedf2>
    75f0:	a8a051e3          	blez	a0,7072 <LCD_thread_entry+0x98>
    75f4:	80c1a503          	lw	a0,-2036(gp) # 20003334 <fac_Odist>
    75f8:	275030ef          	jal	ra,b06c <__extendsfdf2>
    75fc:	5662                	lw	a2,56(sp)
    75fe:	56f2                	lw	a3,60(sp)
    7600:	54c020ef          	jal	ra,9b4c <__subdf3>
    7604:	315030ef          	jal	ra,b118 <__truncdfsf2>
    7608:	80a1a623          	sw	a0,-2036(gp) # 20003334 <fac_Odist>
    760c:	b49d                	j	7072 <LCD_thread_entry+0x98>
    760e:	80c1a503          	lw	a0,-2036(gp) # 20003334 <fac_Odist>
    7612:	25b030ef          	jal	ra,b06c <__extendsfdf2>
    7616:	5622                	lw	a2,40(sp)
    7618:	56b2                	lw	a3,44(sp)
    761a:	47c020ef          	jal	ra,9a96 <__ledf2>
    761e:	a4055ae3          	bgez	a0,7072 <LCD_thread_entry+0x98>
    7622:	80c1a503          	lw	a0,-2036(gp) # 20003334 <fac_Odist>
    7626:	247030ef          	jal	ra,b06c <__extendsfdf2>
    762a:	5642                	lw	a2,48(sp)
    762c:	56d2                	lw	a3,52(sp)
    762e:	48b010ef          	jal	ra,92b8 <__adddf3>
    7632:	2e7030ef          	jal	ra,b118 <__truncdfsf2>
    7636:	80a1a623          	sw	a0,-2036(gp) # 20003334 <fac_Odist>
    763a:	bc25                	j	7072 <LCD_thread_entry+0x98>
    763c:	8101a503          	lw	a0,-2032(gp) # 20003338 <fac_dtw>
    7640:	5592                	lw	a1,36(sp)
    7642:	264030ef          	jal	ra,a8a6 <__gesf2>
    7646:	a2a056e3          	blez	a0,7072 <LCD_thread_entry+0x98>
    764a:	8101a503          	lw	a0,-2032(gp) # 20003338 <fac_dtw>
    764e:	21f030ef          	jal	ra,b06c <__extendsfdf2>
    7652:	000117b7          	lui	a5,0x11
    7656:	4387a603          	lw	a2,1080(a5) # 11438 <asc2_3216+0x195c>
    765a:	43c7a683          	lw	a3,1084(a5)
    765e:	4ee020ef          	jal	ra,9b4c <__subdf3>
    7662:	2b7030ef          	jal	ra,b118 <__truncdfsf2>
    7666:	80a1a823          	sw	a0,-2032(gp) # 20003338 <fac_dtw>
    766a:	b421                	j	7072 <LCD_thread_entry+0x98>
    766c:	8101a503          	lw	a0,-2032(gp) # 20003338 <fac_dtw>
    7670:	1fd030ef          	jal	ra,b06c <__extendsfdf2>
    7674:	4606                	lw	a2,64(sp)
    7676:	4696                	lw	a3,68(sp)
    7678:	41e020ef          	jal	ra,9a96 <__ledf2>
    767c:	9e055be3          	bgez	a0,7072 <LCD_thread_entry+0x98>
    7680:	8101a503          	lw	a0,-2032(gp) # 20003338 <fac_dtw>
    7684:	1e9030ef          	jal	ra,b06c <__extendsfdf2>
    7688:	4626                	lw	a2,72(sp)
    768a:	46b6                	lw	a3,76(sp)
    768c:	42d010ef          	jal	ra,92b8 <__adddf3>
    7690:	289030ef          	jal	ra,b118 <__truncdfsf2>
    7694:	80a1a823          	sw	a0,-2032(gp) # 20003338 <fac_dtw>
    7698:	bae9                	j	7072 <LCD_thread_entry+0x98>
    769a:	4501                	li	a0,0
    769c:	00048023          	sb	zero,0(s1)
    76a0:	de6fe0ef          	jal	ra,5c86 <lcd_clear>
    76a4:	000116b7          	lui	a3,0x11
    76a8:	45068693          	addi	a3,a3,1104 # 11450 <asc2_3216+0x1974>
    76ac:	4661                	li	a2,24
    76ae:	05000593          	li	a1,80
    76b2:	4551                	li	a0,20
    76b4:	8f8ff0ef          	jal	ra,67ac <lcd_show_string>
    76b8:	3e800513          	li	a0,1000
    76bc:	359010ef          	jal	ra,9214 <Delay_Ms>
    76c0:	ba4d                	j	7072 <LCD_thread_entry+0x98>
    76c2:	20003737          	lui	a4,0x20003
    76c6:	32c75783          	lhu	a5,812(a4) # 2000332c <JudgeThresh>
    76ca:	1f300693          	li	a3,499
    76ce:	9af6e2e3          	bltu	a3,a5,7072 <LCD_thread_entry+0x98>
    76d2:	32c75783          	lhu	a5,812(a4)
    76d6:	07a9                	addi	a5,a5,10
    76d8:	07c2                	slli	a5,a5,0x10
    76da:	83c1                	srli	a5,a5,0x10
    76dc:	32f71623          	sh	a5,812(a4)
    76e0:	ba49                	j	7072 <LCD_thread_entry+0x98>
    76e2:	8081d783          	lhu	a5,-2040(gp) # 20003330 <Thresh>
    76e6:	06400693          	li	a3,100
    76ea:	98f6f4e3          	bgeu	a3,a5,7072 <LCD_thread_entry+0x98>
    76ee:	8081d783          	lhu	a5,-2040(gp) # 20003330 <Thresh>
    76f2:	17d9                	addi	a5,a5,-10
    76f4:	07c2                	slli	a5,a5,0x10
    76f6:	83c1                	srli	a5,a5,0x10
    76f8:	80f19423          	sh	a5,-2040(gp) # 20003330 <Thresh>
    76fc:	ba9d                	j	7072 <LCD_thread_entry+0x98>
    76fe:	8081d783          	lhu	a5,-2040(gp) # 20003330 <Thresh>
    7702:	1f300693          	li	a3,499
    7706:	96f6e6e3          	bltu	a3,a5,7072 <LCD_thread_entry+0x98>
    770a:	8081d783          	lhu	a5,-2040(gp) # 20003330 <Thresh>
    770e:	07a9                	addi	a5,a5,10
    7710:	07c2                	slli	a5,a5,0x10
    7712:	83c1                	srli	a5,a5,0x10
    7714:	80f19423          	sh	a5,-2040(gp) # 20003330 <Thresh>
    7718:	baa9                	j	7072 <LCD_thread_entry+0x98>
    771a:	20003737          	lui	a4,0x20003
    771e:	32c75783          	lhu	a5,812(a4) # 2000332c <JudgeThresh>
    7722:	12c00693          	li	a3,300
    7726:	94f6f6e3          	bgeu	a3,a5,7072 <LCD_thread_entry+0x98>
    772a:	32c75783          	lhu	a5,812(a4)
    772e:	17d9                	addi	a5,a5,-10
    7730:	07c2                	slli	a5,a5,0x10
    7732:	83c1                	srli	a5,a5,0x10
    7734:	32f71623          	sh	a5,812(a4)
    7738:	ba2d                	j	7072 <LCD_thread_entry+0x98>
    773a:	90018b23          	sb	zero,-1770(gp) # 2000343e <TemplateWanted>
    773e:	ba15                	j	7072 <LCD_thread_entry+0x98>
    7740:	d8cfd0ef          	jal	ra,4ccc <GetThreshHoldVolt>
    7744:	4742                	lw	a4,16(sp)
    7746:	90a19e23          	sh	a0,-1764(gp) # 20003444 <ThreshVolt>
    774a:	4785                	li	a5,1
    774c:	00f70023          	sb	a5,0(a4)
    7750:	90018923          	sb	zero,-1774(gp) # 2000343a <LcdScreen>
    7754:	4501                	li	a0,0
    7756:	90f18723          	sb	a5,-1778(gp) # 20003436 <DtwRun>
    775a:	00048023          	sb	zero,0(s1)
    775e:	d28fe0ef          	jal	ra,5c86 <lcd_clear>
    7762:	000116b7          	lui	a3,0x11
    7766:	4d468693          	addi	a3,a3,1236 # 114d4 <asc2_3216+0x19f8>
    776a:	4661                	li	a2,24
    776c:	05000593          	li	a1,80
    7770:	02800513          	li	a0,40
    7774:	838ff0ef          	jal	ra,67ac <lcd_show_string>
    7778:	7d000513          	li	a0,2000
    777c:	299010ef          	jal	ra,9214 <Delay_Ms>
    7780:	5782                	lw	a5,32(sp)
    7782:	4388                	lw	a0,0(a5)
    7784:	bbef90ef          	jal	ra,b42 <rt_mutex_release>
    7788:	8ebff06f          	j	7072 <LCD_thread_entry+0x98>
    778c:	90f1c783          	lbu	a5,-1777(gp) # 20003437 <KeyReg>
    7790:	0ff7f793          	andi	a5,a5,255
    7794:	a4f6ebe3          	bltu	a3,a5,71ea <LCD_thread_entry+0x210>
    7798:	a00788e3          	beqz	a5,71a8 <LCD_thread_entry+0x1ce>
    779c:	bc9d                	j	7212 <LCD_thread_entry+0x238>
    779e:	90d18b23          	sb	a3,-1770(gp) # 2000343e <TemplateWanted>
    77a2:	8d1ff06f          	j	7072 <LCD_thread_entry+0x98>
    77a6:	0802a7b7          	lui	a5,0x802a
    77aa:	0007d703          	lhu	a4,0(a5) # 802a000 <__rt_init_end+0x80186c0>
    77ae:	6785                	lui	a5,0x1
    77b0:	f0078793          	addi	a5,a5,-256 # f00 <rt_memset+0x80>
    77b4:	8f7d                	and	a4,a4,a5
    77b6:	1ef70863          	beq	a4,a5,79a6 <LCD_thread_entry+0x9cc>
    77ba:	4501                	li	a0,0
    77bc:	ccafe0ef          	jal	ra,5c86 <lcd_clear>
    77c0:	000116b7          	lui	a3,0x11
    77c4:	47468693          	addi	a3,a3,1140 # 11474 <asc2_3216+0x1998>
    77c8:	4661                	li	a2,24
    77ca:	05000593          	li	a1,80
    77ce:	4551                	li	a0,20
    77d0:	fddfe0ef          	jal	ra,67ac <lcd_show_string>
    77d4:	000116b7          	lui	a3,0x11
    77d8:	48868693          	addi	a3,a3,1160 # 11488 <asc2_3216+0x19ac>
    77dc:	4661                	li	a2,24
    77de:	0a000593          	li	a1,160
    77e2:	4551                	li	a0,20
    77e4:	fc9fe0ef          	jal	ra,67ac <lcd_show_string>
    77e8:	3e800513          	li	a0,1000
    77ec:	229010ef          	jal	ra,9214 <Delay_Ms>
    77f0:	883ff06f          	j	7072 <LCD_thread_entry+0x98>
    77f4:	0802a7b7          	lui	a5,0x802a
    77f8:	0007d783          	lhu	a5,0(a5) # 802a000 <__rt_init_end+0x80186c0>
    77fc:	473d                	li	a4,15
    77fe:	8bbd                	andi	a5,a5,15
    7800:	fae79de3          	bne	a5,a4,77ba <LCD_thread_entry+0x7e0>
    7804:	200007b7          	lui	a5,0x20000
    7808:	1607a783          	lw	a5,352(a5) # 20000160 <AddrTempSize>
    780c:	20000737          	lui	a4,0x20000
    7810:	14072503          	lw	a0,320(a4) # 20000140 <AddrTemp>
    7814:	0007d583          	lhu	a1,0(a5)
    7818:	b4bfc0ef          	jal	ra,4362 <DrawCurve>
    781c:	2ee00513          	li	a0,750
    7820:	1f5010ef          	jal	ra,9214 <Delay_Ms>
    7824:	84fff06f          	j	7072 <LCD_thread_entry+0x98>
    7828:	0802a7b7          	lui	a5,0x802a
    782c:	0007d783          	lhu	a5,0(a5) # 802a000 <__rt_init_end+0x80186c0>
    7830:	0f000713          	li	a4,240
    7834:	0f07f793          	andi	a5,a5,240
    7838:	f8e791e3          	bne	a5,a4,77ba <LCD_thread_entry+0x7e0>
    783c:	200007b7          	lui	a5,0x20000
    7840:	16078793          	addi	a5,a5,352 # 20000160 <AddrTempSize>
    7844:	43dc                	lw	a5,4(a5)
    7846:	20000737          	lui	a4,0x20000
    784a:	14070713          	addi	a4,a4,320 # 20000140 <AddrTemp>
    784e:	4348                	lw	a0,4(a4)
    7850:	0007d583          	lhu	a1,0(a5)
    7854:	b0ffc0ef          	jal	ra,4362 <DrawCurve>
    7858:	2ee00513          	li	a0,750
    785c:	1b9010ef          	jal	ra,9214 <Delay_Ms>
    7860:	813ff06f          	j	7072 <LCD_thread_entry+0x98>
    7864:	0802a7b7          	lui	a5,0x802a
    7868:	0007d783          	lhu	a5,0(a5) # 802a000 <__rt_init_end+0x80186c0>
    786c:	76fd                	lui	a3,0xfffff
    786e:	673d                	lui	a4,0xf
    7870:	8ff5                	and	a5,a5,a3
    7872:	f4e794e3          	bne	a5,a4,77ba <LCD_thread_entry+0x7e0>
    7876:	200007b7          	lui	a5,0x20000
    787a:	16078793          	addi	a5,a5,352 # 20000160 <AddrTempSize>
    787e:	47dc                	lw	a5,12(a5)
    7880:	20000737          	lui	a4,0x20000
    7884:	14070713          	addi	a4,a4,320 # 20000140 <AddrTemp>
    7888:	4748                	lw	a0,12(a4)
    788a:	0007d583          	lhu	a1,0(a5)
    788e:	ad5fc0ef          	jal	ra,4362 <DrawCurve>
    7892:	2ee00513          	li	a0,750
    7896:	17f010ef          	jal	ra,9214 <Delay_Ms>
    789a:	fd8ff06f          	j	7072 <LCD_thread_entry+0x98>
    789e:	9181a503          	lw	a0,-1768(gp) # 20003440 <Template_Sample>
    78a2:	4585                	li	a1,1
    78a4:	eecfd0ef          	jal	ra,4f90 <fasttraining>
    78a8:	046010ef          	jal	ra,88ee <FLASH_Unlock>
    78ac:	0802a7b7          	lui	a5,0x802a
    78b0:	0007d583          	lhu	a1,0(a5) # 802a000 <__rt_init_end+0x80186c0>
    78b4:	0802a537          	lui	a0,0x802a
    78b8:	0f05e593          	ori	a1,a1,240
    78bc:	0a6010ef          	jal	ra,8962 <FLASH_ProgramHalfWord>
    78c0:	048010ef          	jal	ra,8908 <FLASH_Lock>
    78c4:	47a5                	li	a5,9
    78c6:	00f48023          	sb	a5,0(s1)
    78ca:	fa8ff06f          	j	7072 <LCD_thread_entry+0x98>
    78ce:	90f1c783          	lbu	a5,-1777(gp) # 20003437 <KeyReg>
    78d2:	4705                	li	a4,1
    78d4:	0ff7f793          	andi	a5,a5,255
    78d8:	0ce78263          	beq	a5,a4,799c <LCD_thread_entry+0x9c2>
    78dc:	16078e63          	beqz	a5,7a58 <LCD_thread_entry+0xa7e>
    78e0:	4709                	li	a4,2
    78e2:	8ee792e3          	bne	a5,a4,71c6 <LCD_thread_entry+0x1ec>
    78e6:	89dff06f          	j	7182 <LCD_thread_entry+0x1a8>
    78ea:	90f1c783          	lbu	a5,-1777(gp) # 20003437 <KeyReg>
    78ee:	4705                	li	a4,1
    78f0:	0ff7f793          	andi	a5,a5,255
    78f4:	8ae78ae3          	beq	a5,a4,71a8 <LCD_thread_entry+0x1ce>
    78f8:	0e078f63          	beqz	a5,79f6 <LCD_thread_entry+0xa1c>
    78fc:	4709                	li	a4,2
    78fe:	8ce794e3          	bne	a5,a4,71c6 <LCD_thread_entry+0x1ec>
    7902:	4795                	li	a5,5
    7904:	00f48023          	sb	a5,0(s1)
    7908:	f6aff06f          	j	7072 <LCD_thread_entry+0x98>
    790c:	47a2                	lw	a5,8(sp)
    790e:	4b8d                	li	s7,3
    7910:	00078023          	sb	zero,0(a5)
    7914:	4781                	li	a5,0
    7916:	4c32                	lw	s8,12(sp)
    7918:	078a                	slli	a5,a5,0x2
    791a:	97e2                	add	a5,a5,s8
    791c:	439c                	lw	a5,0(a5)
    791e:	4388                	lw	a0,0(a5)
    7920:	e8ff90ef          	jal	ra,17ae <rt_free>
    7924:	46a2                	lw	a3,8(sp)
    7926:	0006c783          	lbu	a5,0(a3) # fffff000 <_eusrstack+0xdffef000>
    792a:	00279713          	slli	a4,a5,0x2
    792e:	9762                	add	a4,a4,s8
    7930:	4318                	lw	a4,0(a4)
    7932:	0785                	addi	a5,a5,1
    7934:	0ff7f793          	andi	a5,a5,255
    7938:	00072023          	sw	zero,0(a4)
    793c:	00f68023          	sb	a5,0(a3)
    7940:	fcfbfbe3          	bgeu	s7,a5,7916 <LCD_thread_entry+0x93c>
    7944:	47c2                	lw	a5,16(sp)
    7946:	00078023          	sb	zero,0(a5)
    794a:	be49                	j	74dc <LCD_thread_entry+0x502>
    794c:	9181a503          	lw	a0,-1768(gp) # 20003440 <Template_Sample>
    7950:	4589                	li	a1,2
    7952:	e3efd0ef          	jal	ra,4f90 <fasttraining>
    7956:	799000ef          	jal	ra,88ee <FLASH_Unlock>
    795a:	0802a7b7          	lui	a5,0x802a
    795e:	0007d783          	lhu	a5,0(a5) # 802a000 <__rt_init_end+0x80186c0>
    7962:	6585                	lui	a1,0x1
    7964:	f0058593          	addi	a1,a1,-256 # f00 <rt_memset+0x80>
    7968:	8ddd                	or	a1,a1,a5
    796a:	05c2                	slli	a1,a1,0x10
    796c:	81c1                	srli	a1,a1,0x10
    796e:	0802a537          	lui	a0,0x802a
    7972:	7f1000ef          	jal	ra,8962 <FLASH_ProgramHalfWord>
    7976:	793000ef          	jal	ra,8908 <FLASH_Lock>
    797a:	47a9                	li	a5,10
    797c:	00f48023          	sb	a5,0(s1)
    7980:	ef2ff06f          	j	7072 <LCD_thread_entry+0x98>
    7984:	90f1c783          	lbu	a5,-1777(gp) # 20003437 <KeyReg>
    7988:	4705                	li	a4,1
    798a:	0ff7f793          	andi	a5,a5,255
    798e:	fee78a63          	beq	a5,a4,7182 <LCD_thread_entry+0x1a8>
    7992:	12078163          	beqz	a5,7ab4 <LCD_thread_entry+0xada>
    7996:	4709                	li	a4,2
    7998:	82e797e3          	bne	a5,a4,71c6 <LCD_thread_entry+0x1ec>
    799c:	4799                	li	a5,6
    799e:	00f48023          	sb	a5,0(s1)
    79a2:	ed0ff06f          	j	7072 <LCD_thread_entry+0x98>
    79a6:	200007b7          	lui	a5,0x20000
    79aa:	16078793          	addi	a5,a5,352 # 20000160 <AddrTempSize>
    79ae:	479c                	lw	a5,8(a5)
    79b0:	20000737          	lui	a4,0x20000
    79b4:	14070713          	addi	a4,a4,320 # 20000140 <AddrTemp>
    79b8:	4708                	lw	a0,8(a4)
    79ba:	0007d583          	lhu	a1,0(a5)
    79be:	9a5fc0ef          	jal	ra,4362 <DrawCurve>
    79c2:	2ee00513          	li	a0,750
    79c6:	04f010ef          	jal	ra,9214 <Delay_Ms>
    79ca:	ea8ff06f          	j	7072 <LCD_thread_entry+0x98>
    79ce:	9181a503          	lw	a0,-1768(gp) # 20003440 <Template_Sample>
    79d2:	458d                	li	a1,3
    79d4:	dbcfd0ef          	jal	ra,4f90 <fasttraining>
    79d8:	717000ef          	jal	ra,88ee <FLASH_Unlock>
    79dc:	0802a7b7          	lui	a5,0x802a
    79e0:	0007d783          	lhu	a5,0(a5) # 802a000 <__rt_init_end+0x80186c0>
    79e4:	65bd                	lui	a1,0xf
    79e6:	0802a537          	lui	a0,0x802a
    79ea:	8ddd                	or	a1,a1,a5
    79ec:	777000ef          	jal	ra,8962 <FLASH_ProgramHalfWord>
    79f0:	719000ef          	jal	ra,8908 <FLASH_Lock>
    79f4:	b2ad                	j	735e <LCD_thread_entry+0x384>
    79f6:	4501                	li	a0,0
    79f8:	a8efe0ef          	jal	ra,5c86 <lcd_clear>
    79fc:	0004c703          	lbu	a4,0(s1)
    7a00:	000116b7          	lui	a3,0x11
    7a04:	45c68693          	addi	a3,a3,1116 # 1145c <asc2_3216+0x1980>
    7a08:	1775                	addi	a4,a4,-3
    7a0a:	4661                	li	a2,24
    7a0c:	05000593          	li	a1,80
    7a10:	02800513          	li	a0,40
    7a14:	d99fe0ef          	jal	ra,67ac <lcd_show_string>
    7a18:	3e800513          	li	a0,1000
    7a1c:	7f8010ef          	jal	ra,9214 <Delay_Ms>
    7a20:	0004c583          	lbu	a1,0(s1)
    7a24:	9181a503          	lw	a0,-1768(gp) # 20003440 <Template_Sample>
    7a28:	15f5                	addi	a1,a1,-3
    7a2a:	0ff5f593          	andi	a1,a1,255
    7a2e:	e7afd0ef          	jal	ra,50a8 <train>
    7a32:	6bd000ef          	jal	ra,88ee <FLASH_Unlock>
    7a36:	0802a7b7          	lui	a5,0x802a
    7a3a:	0007d583          	lhu	a1,0(a5) # 802a000 <__rt_init_end+0x80186c0>
    7a3e:	0802a537          	lui	a0,0x802a
    7a42:	0f05e593          	ori	a1,a1,240
    7a46:	71d000ef          	jal	ra,8962 <FLASH_ProgramHalfWord>
    7a4a:	6bf000ef          	jal	ra,8908 <FLASH_Lock>
    7a4e:	4795                	li	a5,5
    7a50:	00f48023          	sb	a5,0(s1)
    7a54:	e1eff06f          	j	7072 <LCD_thread_entry+0x98>
    7a58:	4501                	li	a0,0
    7a5a:	a2cfe0ef          	jal	ra,5c86 <lcd_clear>
    7a5e:	0004c703          	lbu	a4,0(s1)
    7a62:	000116b7          	lui	a3,0x11
    7a66:	45c68693          	addi	a3,a3,1116 # 1145c <asc2_3216+0x1980>
    7a6a:	1775                	addi	a4,a4,-3
    7a6c:	4661                	li	a2,24
    7a6e:	05000593          	li	a1,80
    7a72:	02800513          	li	a0,40
    7a76:	d37fe0ef          	jal	ra,67ac <lcd_show_string>
    7a7a:	3e800513          	li	a0,1000
    7a7e:	796010ef          	jal	ra,9214 <Delay_Ms>
    7a82:	0004c583          	lbu	a1,0(s1)
    7a86:	9181a503          	lw	a0,-1768(gp) # 20003440 <Template_Sample>
    7a8a:	15f5                	addi	a1,a1,-3
    7a8c:	0ff5f593          	andi	a1,a1,255
    7a90:	e18fd0ef          	jal	ra,50a8 <train>
    7a94:	65b000ef          	jal	ra,88ee <FLASH_Unlock>
    7a98:	0802a7b7          	lui	a5,0x802a
    7a9c:	0007d583          	lhu	a1,0(a5) # 802a000 <__rt_init_end+0x80186c0>
    7aa0:	0802a537          	lui	a0,0x802a
    7aa4:	00f5e593          	ori	a1,a1,15
    7aa8:	6bb000ef          	jal	ra,8962 <FLASH_ProgramHalfWord>
    7aac:	65d000ef          	jal	ra,8908 <FLASH_Lock>
    7ab0:	ed2ff06f          	j	7182 <LCD_thread_entry+0x1a8>
    7ab4:	4501                	li	a0,0
    7ab6:	9d0fe0ef          	jal	ra,5c86 <lcd_clear>
    7aba:	0004c703          	lbu	a4,0(s1)
    7abe:	000116b7          	lui	a3,0x11
    7ac2:	45c68693          	addi	a3,a3,1116 # 1145c <asc2_3216+0x1980>
    7ac6:	1775                	addi	a4,a4,-3
    7ac8:	4661                	li	a2,24
    7aca:	05000593          	li	a1,80
    7ace:	02800513          	li	a0,40
    7ad2:	cdbfe0ef          	jal	ra,67ac <lcd_show_string>
    7ad6:	3e800513          	li	a0,1000
    7ada:	73a010ef          	jal	ra,9214 <Delay_Ms>
    7ade:	0004c583          	lbu	a1,0(s1)
    7ae2:	9181a503          	lw	a0,-1768(gp) # 20003440 <Template_Sample>
    7ae6:	15f5                	addi	a1,a1,-3
    7ae8:	0ff5f593          	andi	a1,a1,255
    7aec:	dbcfd0ef          	jal	ra,50a8 <train>
    7af0:	5ff000ef          	jal	ra,88ee <FLASH_Unlock>
    7af4:	0802a7b7          	lui	a5,0x802a
    7af8:	0007d783          	lhu	a5,0(a5) # 802a000 <__rt_init_end+0x80186c0>
    7afc:	6585                	lui	a1,0x1
    7afe:	f0058593          	addi	a1,a1,-256 # f00 <rt_memset+0x80>
    7b02:	8ddd                	or	a1,a1,a5
    7b04:	05c2                	slli	a1,a1,0x10
    7b06:	81c1                	srli	a1,a1,0x10
    7b08:	0802a537          	lui	a0,0x802a
    7b0c:	657000ef          	jal	ra,8962 <FLASH_ProgramHalfWord>
    7b10:	5f9000ef          	jal	ra,8908 <FLASH_Lock>
    7b14:	b561                	j	799c <LCD_thread_entry+0x9c2>
    7b16:	4501                	li	a0,0
    7b18:	96efe0ef          	jal	ra,5c86 <lcd_clear>
    7b1c:	0004c703          	lbu	a4,0(s1)
    7b20:	000116b7          	lui	a3,0x11
    7b24:	45c68693          	addi	a3,a3,1116 # 1145c <asc2_3216+0x1980>
    7b28:	1775                	addi	a4,a4,-3
    7b2a:	4661                	li	a2,24
    7b2c:	05000593          	li	a1,80
    7b30:	02800513          	li	a0,40
    7b34:	c79fe0ef          	jal	ra,67ac <lcd_show_string>
    7b38:	3e800513          	li	a0,1000
    7b3c:	6d8010ef          	jal	ra,9214 <Delay_Ms>
    7b40:	0004c583          	lbu	a1,0(s1)
    7b44:	9181a503          	lw	a0,-1768(gp) # 20003440 <Template_Sample>
    7b48:	15f5                	addi	a1,a1,-3
    7b4a:	0ff5f593          	andi	a1,a1,255
    7b4e:	d5afd0ef          	jal	ra,50a8 <train>
    7b52:	59d000ef          	jal	ra,88ee <FLASH_Unlock>
    7b56:	0802a7b7          	lui	a5,0x802a
    7b5a:	0007d783          	lhu	a5,0(a5) # 802a000 <__rt_init_end+0x80186c0>
    7b5e:	65bd                	lui	a1,0xf
    7b60:	0802a537          	lui	a0,0x802a
    7b64:	8ddd                	or	a1,a1,a5
    7b66:	5fd000ef          	jal	ra,8962 <FLASH_ProgramHalfWord>
    7b6a:	59f000ef          	jal	ra,8908 <FLASH_Lock>
    7b6e:	e5eff06f          	j	71cc <LCD_thread_entry+0x1f2>

00007b72 <DTW_thread_entry>:
    7b72:	841f82ef          	jal	t0,3b2 <__riscv_save_12>
    7b76:	7159                	addi	sp,sp,-112
    7b78:	0c800513          	li	a0,200
    7b7c:	adefa0ef          	jal	ra,1e5a <rt_thread_mdelay>
    7b80:	93018d13          	addi	s10,gp,-1744 # 20003458 <mutex_lock>
    7b84:	92918793          	addi	a5,gp,-1751 # 20003451 <cnt_state>
    7b88:	c83e                	sw	a5,16(sp)
    7b8a:	92c18793          	addi	a5,gp,-1748 # 20003454 <k>
    7b8e:	cc3e                	sw	a5,24(sp)
    7b90:	82c18793          	addi	a5,gp,-2004 # 20003354 <min_dtw>
    7b94:	c2be                	sw	a5,68(sp)
    7b96:	200057b7          	lui	a5,0x20005
    7b9a:	a5478793          	addi	a5,a5,-1452 # 20004a54 <TemplateDataSample>
    7b9e:	c6be                	sw	a5,76(sp)
    7ba0:	200007b7          	lui	a5,0x20000
    7ba4:	18478793          	addi	a5,a5,388 # 20000184 <D+0x14>
    7ba8:	c4be                	sw	a5,72(sp)
    7baa:	200007b7          	lui	a5,0x20000
    7bae:	31478793          	addi	a5,a5,788 # 20000314 <D+0x1a4>
    7bb2:	c23e                	sw	a5,4(sp)
    7bb4:	200007b7          	lui	a5,0x20000
    7bb8:	18678c93          	addi	s9,a5,390 # 20000186 <D+0x16>
    7bbc:	200017b7          	lui	a5,0x20001
    7bc0:	20078793          	addi	a5,a5,512 # 20001200 <DTW+0x28>
    7bc4:	cabe                	sw	a5,84(sp)
    7bc6:	200017b7          	lui	a5,0x20001
    7bca:	22878793          	addi	a5,a5,552 # 20001228 <DTW+0x50>
    7bce:	c63e                	sw	a5,12(sp)
    7bd0:	200017b7          	lui	a5,0x20001
    7bd4:	22478793          	addi	a5,a5,548 # 20001224 <DTW+0x4c>
    7bd8:	c43e                	sw	a5,8(sp)
    7bda:	200057b7          	lui	a5,0x20005
    7bde:	a4478793          	addi	a5,a5,-1468 # 20004a44 <MedistanceValue>
    7be2:	ca3e                	sw	a5,20(sp)
    7be4:	200057b7          	lui	a5,0x20005
    7be8:	a3478793          	addi	a5,a5,-1484 # 20004a34 <Finaldist>
    7bec:	c8be                	sw	a5,80(sp)
    7bee:	92a18793          	addi	a5,gp,-1750 # 20003452 <i_dtw>
    7bf2:	ccbe                	sw	a5,88(sp)
    7bf4:	93418793          	addi	a5,gp,-1740 # 2000345c <offset_start>
    7bf8:	cebe                	sw	a5,92(sp)
    7bfa:	92e18793          	addi	a5,gp,-1746 # 20003456 <kk>
    7bfe:	d0be                	sw	a5,96(sp)
    7c00:	92b18793          	addi	a5,gp,-1749 # 20003453 <j_dtw>
    7c04:	d2be                	sw	a5,100(sp)
    7c06:	92d18793          	addi	a5,gp,-1747 # 20003455 <k_dtw>
    7c0a:	d4be                	sw	a5,104(sp)
    7c0c:	400117b7          	lui	a5,0x40011
    7c10:	200009b7          	lui	s3,0x20000
    7c14:	c0078793          	addi	a5,a5,-1024 # 40010c00 <_eusrstack+0x20000c00>
    7c18:	17098993          	addi	s3,s3,368 # 20000170 <D>
    7c1c:	d6be                	sw	a5,108(sp)
    7c1e:	02a00b13          	li	s6,42
    7c22:	05400a13          	li	s4,84
    7c26:	000d2503          	lw	a0,0(s10)
    7c2a:	55fd                	li	a1,-1
    7c2c:	dcff80ef          	jal	ra,9fa <rt_mutex_take>
    7c30:	8fe1d783          	lhu	a5,-1794(gp) # 20003426 <DMAProcessFlag>
    7c34:	07c2                	slli	a5,a5,0x10
    7c36:	83c1                	srli	a5,a5,0x10
    7c38:	d7fd                	beqz	a5,7c26 <DTW_thread_entry+0xb4>
    7c3a:	9001c783          	lbu	a5,-1792(gp) # 20003428 <DTWDataState>
    7c3e:	0ff7f793          	andi	a5,a5,255
    7c42:	3e079a63          	bnez	a5,8036 <DTW_thread_entry+0x4c4>
    7c46:	90c1d783          	lhu	a5,-1780(gp) # 20003434 <DifData>
    7c4a:	91c1d703          	lhu	a4,-1764(gp) # 20003444 <ThreshVolt>
    7c4e:	8081d683          	lhu	a3,-2040(gp) # 20003330 <Thresh>
    7c52:	8f99                	sub	a5,a5,a4
    7c54:	41f7d713          	srai	a4,a5,0x1f
    7c58:	8fb9                	xor	a5,a5,a4
    7c5a:	8f99                	sub	a5,a5,a4
    7c5c:	02f6df63          	bge	a3,a5,7c9a <DTW_thread_entry+0x128>
    7c60:	46c2                	lw	a3,16(sp)
    7c62:	4719                	li	a4,6
    7c64:	0006c783          	lbu	a5,0(a3)
    7c68:	0785                	addi	a5,a5,1
    7c6a:	0ff7f793          	andi	a5,a5,255
    7c6e:	00f68023          	sb	a5,0(a3)
    7c72:	00f77763          	bgeu	a4,a5,7c80 <DTW_thread_entry+0x10e>
    7c76:	4785                	li	a5,1
    7c78:	90f18023          	sb	a5,-1792(gp) # 20003428 <DTWDataState>
    7c7c:	00068023          	sb	zero,0(a3)
    7c80:	9001c703          	lbu	a4,-1792(gp) # 20003428 <DTWDataState>
    7c84:	4785                	li	a5,1
    7c86:	02e78263          	beq	a5,a4,7caa <DTW_thread_entry+0x138>
    7c8a:	9001c703          	lbu	a4,-1792(gp) # 20003428 <DTWDataState>
    7c8e:	4689                	li	a3,2
    7c90:	3ee68863          	beq	a3,a4,8080 <DTW_thread_entry+0x50e>
    7c94:	8e019f23          	sh	zero,-1794(gp) # 20003426 <DMAProcessFlag>
    7c98:	b779                	j	7c26 <DTW_thread_entry+0xb4>
    7c9a:	47c2                	lw	a5,16(sp)
    7c9c:	00078023          	sb	zero,0(a5)
    7ca0:	9001c703          	lbu	a4,-1792(gp) # 20003428 <DTWDataState>
    7ca4:	4785                	li	a5,1
    7ca6:	fee792e3          	bne	a5,a4,7c8a <DTW_thread_entry+0x118>
    7caa:	9081a903          	lw	s2,-1784(gp) # 20003430 <DataStream>
    7cae:	4796                	lw	a5,68(sp)
    7cb0:	4e36                	lw	t3,76(sp)
    7cb2:	4d81                	li	s11,0
    7cb4:	0007ac03          	lw	s8,0(a5)
    7cb8:	47e2                	lw	a5,24(sp)
    7cba:	4e81                	li	t4,0
    7cbc:	00290f93          	addi	t6,s2,2
    7cc0:	00078023          	sb	zero,0(a5)
    7cc4:	200017b7          	lui	a5,0x20001
    7cc8:	4f51                	li	t5,20
    7cca:	1d878b93          	addi	s7,a5,472 # 200011d8 <DTW>
    7cce:	886e                	mv	a6,s11
    7cd0:	000e2683          	lw	a3,0(t3)
    7cd4:	91e1c703          	lbu	a4,-1762(gp) # 20003446 <offset_p>
    7cd8:	0046d783          	lhu	a5,4(a3)
    7cdc:	0ff7f613          	andi	a2,a5,255
    7ce0:	38f76963          	bltu	a4,a5,8072 <DTW_thread_entry+0x500>
    7ce4:	91e1c483          	lbu	s1,-1762(gp) # 20003446 <offset_p>
    7ce8:	40c48633          	sub	a2,s1,a2
    7cec:	0ff67493          	andi	s1,a2,255
    7cf0:	428c                	lw	a1,0(a3)
    7cf2:	00a48893          	addi	a7,s1,10
    7cf6:	42a6                	lw	t0,72(sp)
    7cf8:	0886                	slli	a7,a7,0x1
    7cfa:	00149393          	slli	t2,s1,0x1
    7cfe:	832e                	mv	t1,a1
    7d00:	98fe                	add	a7,a7,t6
    7d02:	864e                	mv	a2,s3
    7d04:	93ca                	add	t2,t2,s2
    7d06:	8516                	mv	a0,t0
    7d08:	871e                	mv	a4,t2
    7d0a:	00075083          	lhu	ra,0(a4)
    7d0e:	00035783          	lhu	a5,0(t1)
    7d12:	0509                	addi	a0,a0,2
    7d14:	0709                	addi	a4,a4,2
    7d16:	401787b3          	sub	a5,a5,ra
    7d1a:	41f7d093          	srai	ra,a5,0x1f
    7d1e:	00f0c7b3          	xor	a5,ra,a5
    7d22:	401787b3          	sub	a5,a5,ra
    7d26:	fef51f23          	sh	a5,-2(a0) # 8029ffe <__rt_init_end+0x80186be>
    7d2a:	fee890e3          	bne	a7,a4,7d0a <DTW_thread_entry+0x198>
    7d2e:	4792                	lw	a5,4(sp)
    7d30:	02828293          	addi	t0,t0,40 # 4c8 <rt_tick_increase+0x8>
    7d34:	0309                	addi	t1,t1,2
    7d36:	0889                	addi	a7,a7,2
    7d38:	fc5797e3          	bne	a5,t0,7d06 <DTW_thread_entry+0x194>
    7d3c:	0046d703          	lhu	a4,4(a3)
    7d40:	42ef7c63          	bgeu	t5,a4,8178 <DTW_thread_entry+0x606>
    7d44:	4555                	li	a0,21
    7d46:	47a9                	li	a5,10
    7d48:	48a9                	li	a7,10
    7d4a:	03678733          	mul	a4,a5,s6
    7d4e:	00189313          	slli	t1,a7,0x1
    7d52:	ff688413          	addi	s0,a7,-10
    7d56:	932e                	add	t1,t1,a1
    7d58:	0ff47413          	andi	s0,s0,255
    7d5c:	974e                	add	a4,a4,s3
    7d5e:	009407b3          	add	a5,s0,s1
    7d62:	0786                	slli	a5,a5,0x1
    7d64:	97ca                	add	a5,a5,s2
    7d66:	0007d283          	lhu	t0,0(a5)
    7d6a:	00035783          	lhu	a5,0(t1)
    7d6e:	0405                	addi	s0,s0,1
    7d70:	0ff47413          	andi	s0,s0,255
    7d74:	405787b3          	sub	a5,a5,t0
    7d78:	41f7d293          	srai	t0,a5,0x1f
    7d7c:	00f2c7b3          	xor	a5,t0,a5
    7d80:	405787b3          	sub	a5,a5,t0
    7d84:	00f71023          	sh	a5,0(a4)
    7d88:	0709                	addi	a4,a4,2
    7d8a:	fc851ae3          	bne	a0,s0,7d5e <DTW_thread_entry+0x1ec>
    7d8e:	0046d703          	lhu	a4,4(a3)
    7d92:	0885                	addi	a7,a7,1
    7d94:	0ff8f893          	andi	a7,a7,255
    7d98:	0505                	addi	a0,a0,1
    7d9a:	ff670313          	addi	t1,a4,-10
    7d9e:	87c6                	mv	a5,a7
    7da0:	0ff57513          	andi	a0,a0,255
    7da4:	fa68c3e3          	blt	a7,t1,7d4a <DTW_thread_entry+0x1d8>
    7da8:	0ff77793          	andi	a5,a4,255
    7dac:	ff678293          	addi	t0,a5,-10
    7db0:	0ff2f293          	andi	t0,t0,255
    7db4:	08e2f163          	bgeu	t0,a4,7e36 <DTW_thread_entry+0x2c4>
    7db8:	4529                	li	a0,10
    7dba:	40f507b3          	sub	a5,a0,a5
    7dbe:	0ff7f093          	andi	ra,a5,255
    7dc2:	ff628393          	addi	t2,t0,-10
    7dc6:	407707b3          	sub	a5,a4,t2
    7dca:	0ff3f413          	andi	s0,t2,255
    7dce:	04f05c63          	blez	a5,7e26 <DTW_thread_entry+0x2b4>
    7dd2:	00229893          	slli	a7,t0,0x2
    7dd6:	9896                	add	a7,a7,t0
    7dd8:	00129313          	slli	t1,t0,0x1
    7ddc:	088a                	slli	a7,a7,0x2
    7dde:	932e                	add	t1,t1,a1
    7de0:	4781                	li	a5,0
    7de2:	00a08d93          	addi	s11,ra,10
    7de6:	9896                	add	a7,a7,t0
    7de8:	00940733          	add	a4,s0,s1
    7dec:	0706                	slli	a4,a4,0x1
    7dee:	974a                	add	a4,a4,s2
    7df0:	00075503          	lhu	a0,0(a4)
    7df4:	00035703          	lhu	a4,0(t1)
    7df8:	97c6                	add	a5,a5,a7
    7dfa:	0786                	slli	a5,a5,0x1
    7dfc:	8f09                	sub	a4,a4,a0
    7dfe:	41f75513          	srai	a0,a4,0x1f
    7e02:	8f29                	xor	a4,a4,a0
    7e04:	8f09                	sub	a4,a4,a0
    7e06:	97ce                	add	a5,a5,s3
    7e08:	00e79023          	sh	a4,0(a5)
    7e0c:	0405                	addi	s0,s0,1
    7e0e:	0046d703          	lhu	a4,4(a3)
    7e12:	0ff47413          	andi	s0,s0,255
    7e16:	01b407b3          	add	a5,s0,s11
    7e1a:	0ff7f793          	andi	a5,a5,255
    7e1e:	40770533          	sub	a0,a4,t2
    7e22:	fca7c3e3          	blt	a5,a0,7de8 <DTW_thread_entry+0x276>
    7e26:	0285                	addi	t0,t0,1
    7e28:	10fd                	addi	ra,ra,-1
    7e2a:	0ff2f293          	andi	t0,t0,255
    7e2e:	0ff0f093          	andi	ra,ra,255
    7e32:	f8e2e8e3          	bltu	t0,a4,7dc2 <DTW_thread_entry+0x250>
    7e36:	200017b7          	lui	a5,0x20001
    7e3a:	1d878793          	addi	a5,a5,472 # 200011d8 <DTW>
    7e3e:	00065683          	lhu	a3,0(a2)
    7e42:	0791                	addi	a5,a5,4
    7e44:	0609                	addi	a2,a2,2
    7e46:	fed7ae23          	sw	a3,-4(a5)
    7e4a:	fecc9ae3          	bne	s9,a2,7e3e <DTW_thread_entry+0x2cc>
    7e4e:	47d6                	lw	a5,84(sp)
    7e50:	8666                	mv	a2,s9
    7e52:	4388                	lw	a0,0(a5)
    7e54:	00065683          	lhu	a3,0(a2)
    7e58:	0791                	addi	a5,a5,4
    7e5a:	0609                	addi	a2,a2,2
    7e5c:	96aa                	add	a3,a3,a0
    7e5e:	c394                	sw	a3,0(a5)
    7e60:	46b2                	lw	a3,12(sp)
    7e62:	fef698e3          	bne	a3,a5,7e52 <DTW_thread_entry+0x2e0>
    7e66:	4785                	li	a5,1
    7e68:	2ee7f263          	bgeu	a5,a4,814c <DTW_thread_entry+0x5da>
    7e6c:	4d85                	li	s11,1
    7e6e:	fffd8e93          	addi	t4,s11,-1
    7e72:	034e87b3          	mul	a5,t4,s4
    7e76:	97de                	add	a5,a5,s7
    7e78:	4394                	lw	a3,0(a5)
    7e7a:	43dc                	lw	a5,4(a5)
    7e7c:	00f6f363          	bgeu	a3,a5,7e82 <DTW_thread_entry+0x310>
    7e80:	87b6                	mv	a5,a3
    7e82:	036d8533          	mul	a0,s11,s6
    7e86:	42a2                	lw	t0,8(sp)
    7e88:	00a986b3          	add	a3,s3,a0
    7e8c:	0006d683          	lhu	a3,0(a3)
    7e90:	034e8333          	mul	t1,t4,s4
    7e94:	0509                	addi	a0,a0,2
    7e96:	97b6                	add	a5,a5,a3
    7e98:	954e                	add	a0,a0,s3
    7e9a:	034d86b3          	mul	a3,s11,s4
    7e9e:	00430613          	addi	a2,t1,4
    7ea2:	05830893          	addi	a7,t1,88
    7ea6:	965e                	add	a2,a2,s7
    7ea8:	98de                	add	a7,a7,s7
    7eaa:	9316                	add	t1,t1,t0
    7eac:	96de                	add	a3,a3,s7
    7eae:	c29c                	sw	a5,0(a3)
    7eb0:	a011                	j	7eb4 <DTW_thread_entry+0x342>
    7eb2:	0611                	addi	a2,a2,4
    7eb4:	4214                	lw	a3,0(a2)
    7eb6:	00d7f363          	bgeu	a5,a3,7ebc <DTW_thread_entry+0x34a>
    7eba:	86be                	mv	a3,a5
    7ebc:	425c                	lw	a5,4(a2)
    7ebe:	00f6f363          	bgeu	a3,a5,7ec4 <DTW_thread_entry+0x352>
    7ec2:	87b6                	mv	a5,a3
    7ec4:	00055683          	lhu	a3,0(a0)
    7ec8:	0891                	addi	a7,a7,4
    7eca:	0509                	addi	a0,a0,2
    7ecc:	97b6                	add	a5,a5,a3
    7ece:	fef8ae23          	sw	a5,-4(a7)
    7ed2:	fe6610e3          	bne	a2,t1,7eb2 <DTW_thread_entry+0x340>
    7ed6:	034e87b3          	mul	a5,t4,s4
    7eda:	034d86b3          	mul	a3,s11,s4
    7ede:	97de                	add	a5,a5,s7
    7ee0:	0507ac03          	lw	s8,80(a5)
    7ee4:	00db87b3          	add	a5,s7,a3
    7ee8:	47fc                	lw	a5,76(a5)
    7eea:	0187f363          	bgeu	a5,s8,7ef0 <DTW_thread_entry+0x37e>
    7eee:	8c3e                	mv	s8,a5
    7ef0:	036d86b3          	mul	a3,s11,s6
    7ef4:	001d8613          	addi	a2,s11,1
    7ef8:	034d87b3          	mul	a5,s11,s4
    7efc:	96ce                	add	a3,a3,s3
    7efe:	0286d683          	lhu	a3,40(a3)
    7f02:	0ff67d93          	andi	s11,a2,255
    7f06:	96e2                	add	a3,a3,s8
    7f08:	97de                	add	a5,a5,s7
    7f0a:	cbb4                	sw	a3,80(a5)
    7f0c:	f6ede1e3          	bltu	s11,a4,7e6e <DTW_thread_entry+0x2fc>
    7f10:	05400693          	li	a3,84
    7f14:	fff70793          	addi	a5,a4,-1
    7f18:	02d787b3          	mul	a5,a5,a3
    7f1c:	46d2                	lw	a3,20(sp)
    7f1e:	00281313          	slli	t1,a6,0x2
    7f22:	853a                	mv	a0,a4
    7f24:	00668633          	add	a2,a3,t1
    7f28:	46d1                	li	a3,20
    7f2a:	00062023          	sw	zero,0(a2)
    7f2e:	4e85                	li	t4,1
    7f30:	c0b6                	sw	a3,64(sp)
    7f32:	97de                	add	a5,a5,s7
    7f34:	0287a283          	lw	t0,40(a5)
    7f38:	02e2d2b3          	divu	t0,t0,a4
    7f3c:	47d2                	lw	a5,20(sp)
    7f3e:	4601                	li	a2,0
    7f40:	86b2                	mv	a3,a2
    7f42:	006788b3          	add	a7,a5,t1
    7f46:	009687b3          	add	a5,a3,s1
    7f4a:	00169613          	slli	a2,a3,0x1
    7f4e:	0786                	slli	a5,a5,0x1
    7f50:	97ca                	add	a5,a5,s2
    7f52:	962e                	add	a2,a2,a1
    7f54:	0007d783          	lhu	a5,0(a5)
    7f58:	00065603          	lhu	a2,0(a2)
    7f5c:	0008a383          	lw	t2,0(a7)
    7f60:	0685                	addi	a3,a3,1
    7f62:	8f91                	sub	a5,a5,a2
    7f64:	41f7d613          	srai	a2,a5,0x1f
    7f68:	8fb1                	xor	a5,a5,a2
    7f6a:	8f91                	sub	a5,a5,a2
    7f6c:	979e                	add	a5,a5,t2
    7f6e:	00f8a023          	sw	a5,0(a7)
    7f72:	0ff6f693          	andi	a3,a3,255
    7f76:	fce6e8e3          	bltu	a3,a4,7f46 <DTW_thread_entry+0x3d4>
    7f7a:	8636                	mv	a2,a3
    7f7c:	47d2                	lw	a5,20(sp)
    7f7e:	8101a703          	lw	a4,-2032(gp) # 20003338 <fac_dtw>
    7f82:	979a                	add	a5,a5,t1
    7f84:	439c                	lw	a5,0(a5)
    7f86:	d03a                	sw	a4,32(sp)
    7f88:	80c1a583          	lw	a1,-2036(gp) # 20003334 <fac_Odist>
    7f8c:	de32                	sw	a2,60(sp)
    7f8e:	dc7e                	sw	t6,56(sp)
    7f90:	da76                	sw	t4,52(sp)
    7f92:	02a7d533          	divu	a0,a5,a0
    7f96:	d842                	sw	a6,48(sp)
    7f98:	d672                	sw	t3,44(sp)
    7f9a:	d21a                	sw	t1,36(sp)
    7f9c:	d416                	sw	t0,40(sp)
    7f9e:	ce2e                	sw	a1,28(sp)
    7fa0:	7ff020ef          	jal	ra,af9e <__floatunsisf>
    7fa4:	45f2                	lw	a1,28(sp)
    7fa6:	187020ef          	jal	ra,a92c <__mulsf3>
    7faa:	52a2                	lw	t0,40(sp)
    7fac:	ce2a                	sw	a0,28(sp)
    7fae:	8516                	mv	a0,t0
    7fb0:	7ef020ef          	jal	ra,af9e <__floatunsisf>
    7fb4:	5702                	lw	a4,32(sp)
    7fb6:	85ba                	mv	a1,a4
    7fb8:	175020ef          	jal	ra,a92c <__mulsf3>
    7fbc:	47f2                	lw	a5,28(sp)
    7fbe:	85aa                	mv	a1,a0
    7fc0:	853e                	mv	a0,a5
    7fc2:	2c8020ef          	jal	ra,a28a <__addsf3>
    7fc6:	783020ef          	jal	ra,af48 <__fixunssfsi>
    7fca:	5312                	lw	t1,36(sp)
    7fcc:	47c6                	lw	a5,80(sp)
    7fce:	20005737          	lui	a4,0x20005
    7fd2:	a2470713          	addi	a4,a4,-1500 # 20004a24 <BestDtwValue>
    7fd6:	979a                	add	a5,a5,t1
    7fd8:	c388                	sw	a0,0(a5)
    7fda:	933a                	add	t1,t1,a4
    7fdc:	438c                	lw	a1,0(a5)
    7fde:	00032703          	lw	a4,0(t1)
    7fe2:	4f51                	li	t5,20
    7fe4:	5e32                	lw	t3,44(sp)
    7fe6:	5842                	lw	a6,48(sp)
    7fe8:	5ed2                	lw	t4,52(sp)
    7fea:	5fe2                	lw	t6,56(sp)
    7fec:	5672                	lw	a2,60(sp)
    7fee:	00e5f563          	bgeu	a1,a4,7ff8 <DTW_thread_entry+0x486>
    7ff2:	439c                	lw	a5,0(a5)
    7ff4:	00f32023          	sw	a5,0(t1)
    7ff8:	0805                	addi	a6,a6,1
    7ffa:	4791                	li	a5,4
    7ffc:	0e11                	addi	t3,t3,4
    7ffe:	ccf819e3          	bne	a6,a5,7cd0 <DTW_thread_entry+0x15e>
    8002:	47e6                	lw	a5,88(sp)
    8004:	01b78023          	sb	s11,0(a5)
    8008:	47f6                	lw	a5,92(sp)
    800a:	00978023          	sb	s1,0(a5)
    800e:	5786                	lw	a5,96(sp)
    8010:	00c78023          	sb	a2,0(a5)
    8014:	000e8563          	beqz	t4,801e <DTW_thread_entry+0x4ac>
    8018:	4796                	lw	a5,68(sp)
    801a:	0187a023          	sw	s8,0(a5)
    801e:	5796                	lw	a5,100(sp)
    8020:	4706                	lw	a4,64(sp)
    8022:	00e78023          	sb	a4,0(a5)
    8026:	57a6                	lw	a5,104(sp)
    8028:	4762                	lw	a4,24(sp)
    802a:	00878023          	sb	s0,0(a5)
    802e:	4791                	li	a5,4
    8030:	00f70023          	sb	a5,0(a4)
    8034:	b185                	j	7c94 <DTW_thread_entry+0x122>
    8036:	90c1d783          	lhu	a5,-1780(gp) # 20003434 <DifData>
    803a:	91c1d703          	lhu	a4,-1764(gp) # 20003444 <ThreshVolt>
    803e:	8081d683          	lhu	a3,-2040(gp) # 20003330 <Thresh>
    8042:	8f99                	sub	a5,a5,a4
    8044:	41f7d713          	srai	a4,a5,0x1f
    8048:	8fb9                	xor	a5,a5,a4
    804a:	8f99                	sub	a5,a5,a4
    804c:	c4f6c7e3          	blt	a3,a5,7c9a <DTW_thread_entry+0x128>
    8050:	46c2                	lw	a3,16(sp)
    8052:	473d                	li	a4,15
    8054:	0006c783          	lbu	a5,0(a3)
    8058:	0785                	addi	a5,a5,1
    805a:	0ff7f793          	andi	a5,a5,255
    805e:	00f68023          	sb	a5,0(a3)
    8062:	c0f77fe3          	bgeu	a4,a5,7c80 <DTW_thread_entry+0x10e>
    8066:	4789                	li	a5,2
    8068:	90f18023          	sb	a5,-1792(gp) # 20003428 <DTWDataState>
    806c:	00068023          	sb	zero,0(a3)
    8070:	b901                	j	7c80 <DTW_thread_entry+0x10e>
    8072:	91e1c483          	lbu	s1,-1762(gp) # 20003446 <offset_p>
    8076:	40c48633          	sub	a2,s1,a2
    807a:	0ff67493          	andi	s1,a2,255
    807e:	b98d                	j	7cf0 <DTW_thread_entry+0x17e>
    8080:	20003737          	lui	a4,0x20003
    8084:	32070523          	sb	zero,810(a4) # 2000332a <DtwResultReg>
    8088:	4762                	lw	a4,24(sp)
    808a:	4801                	li	a6,0
    808c:	4881                	li	a7,0
    808e:	00f70023          	sb	a5,0(a4)
    8092:	4511                	li	a0,4
    8094:	4785                	li	a5,1
    8096:	20005437          	lui	s0,0x20005
    809a:	00279713          	slli	a4,a5,0x2
    809e:	a2440693          	addi	a3,s0,-1500 # 20004a24 <BestDtwValue>
    80a2:	9736                	add	a4,a4,a3
    80a4:	4310                	lw	a2,0(a4)
    80a6:	a2442683          	lw	a3,-1500(s0)
    80aa:	0ff7f593          	andi	a1,a5,255
    80ae:	0785                	addi	a5,a5,1
    80b0:	00d67763          	bgeu	a2,a3,80be <DTW_thread_entry+0x54c>
    80b4:	4318                	lw	a4,0(a4)
    80b6:	88ae                	mv	a7,a1
    80b8:	4805                	li	a6,1
    80ba:	a2e42223          	sw	a4,-1500(s0)
    80be:	fca79ce3          	bne	a5,a0,8096 <DTW_thread_entry+0x524>
    80c2:	4762                	lw	a4,24(sp)
    80c4:	00f70023          	sb	a5,0(a4)
    80c8:	00080663          	beqz	a6,80d4 <DTW_thread_entry+0x562>
    80cc:	200037b7          	lui	a5,0x20003
    80d0:	33178523          	sb	a7,810(a5) # 2000332a <DtwResultReg>
    80d4:	200057b7          	lui	a5,0x20005
    80d8:	a247a703          	lw	a4,-1500(a5) # 20004a24 <BestDtwValue>
    80dc:	200037b7          	lui	a5,0x20003
    80e0:	32c7d783          	lhu	a5,812(a5) # 2000332c <JudgeThresh>
    80e4:	08e7ec63          	bltu	a5,a4,817c <DTW_thread_entry+0x60a>
    80e8:	200037b7          	lui	a5,0x20003
    80ec:	32a7c603          	lbu	a2,810(a5) # 2000332a <DtwResultReg>
    80f0:	9161c783          	lbu	a5,-1770(gp) # 2000343e <TemplateWanted>
    80f4:	02000713          	li	a4,32
    80f8:	4685                	li	a3,1
    80fa:	09600593          	li	a1,150
    80fe:	06800513          	li	a0,104
    8102:	08f60f63          	beq	a2,a5,81a0 <DTW_thread_entry+0x62e>
    8106:	f9cfe0ef          	jal	ra,68a2 <lcd_show_num>
    810a:	5436                	lw	s0,108(sp)
    810c:	4605                	li	a2,1
    810e:	4589                	li	a1,2
    8110:	8522                	mv	a0,s0
    8112:	271000ef          	jal	ra,8b82 <GPIO_WriteBit>
    8116:	4565                	li	a0,25
    8118:	0fc010ef          	jal	ra,9214 <Delay_Ms>
    811c:	4601                	li	a2,0
    811e:	4589                	li	a1,2
    8120:	8522                	mv	a0,s0
    8122:	261000ef          	jal	ra,8b82 <GPIO_WriteBit>
    8126:	57fd                	li	a5,-1
    8128:	20005737          	lui	a4,0x20005
    812c:	a2f72223          	sw	a5,-1500(a4) # 20004a24 <BestDtwValue>
    8130:	a2470693          	addi	a3,a4,-1500
    8134:	c2dc                	sw	a5,4(a3)
    8136:	c69c                	sw	a5,8(a3)
    8138:	a2470713          	addi	a4,a4,-1500
    813c:	c75c                	sw	a5,12(a4)
    813e:	4762                	lw	a4,24(sp)
    8140:	4791                	li	a5,4
    8142:	00f70023          	sb	a5,0(a4)
    8146:	90018023          	sb	zero,-1792(gp) # 20003428 <DTWDataState>
    814a:	b6a9                	j	7c94 <DTW_thread_entry+0x122>
    814c:	fff70793          	addi	a5,a4,-1
    8150:	034787b3          	mul	a5,a5,s4
    8154:	46d2                	lw	a3,20(sp)
    8156:	00281313          	slli	t1,a6,0x2
    815a:	969a                	add	a3,a3,t1
    815c:	0006a023          	sw	zero,0(a3)
    8160:	97de                	add	a5,a5,s7
    8162:	0287a283          	lw	t0,40(a5)
    8166:	47d5                	li	a5,21
    8168:	c0be                	sw	a5,64(sp)
    816a:	02e2d2b3          	divu	t0,t0,a4
    816e:	ef05                	bnez	a4,81a6 <DTW_thread_entry+0x634>
    8170:	4501                	li	a0,0
    8172:	4d85                	li	s11,1
    8174:	4601                	li	a2,0
    8176:	b519                	j	7f7c <DTW_thread_entry+0x40a>
    8178:	4451                	li	s0,20
    817a:	b13d                	j	7da8 <DTW_thread_entry+0x236>
    817c:	02000713          	li	a4,32
    8180:	4685                	li	a3,1
    8182:	4625                	li	a2,9
    8184:	09600593          	li	a1,150
    8188:	06800513          	li	a0,104
    818c:	f16fe0ef          	jal	ra,68a2 <lcd_show_num>
    8190:	5436                	lw	s0,108(sp)
    8192:	4605                	li	a2,1
    8194:	4589                	li	a1,2
    8196:	8522                	mv	a0,s0
    8198:	1eb000ef          	jal	ra,8b82 <GPIO_WriteBit>
    819c:	4579                	li	a0,30
    819e:	bfad                	j	8118 <DTW_thread_entry+0x5a6>
    81a0:	f02fe0ef          	jal	ra,68a2 <lcd_show_num>
    81a4:	b749                	j	8126 <DTW_thread_entry+0x5b4>
    81a6:	4505                	li	a0,1
    81a8:	4d85                	li	s11,1
    81aa:	bb49                	j	7f3c <DTW_thread_entry+0x3ca>

000081ac <thread_sema_init>:
    81ac:	a36f82ef          	jal	t0,3e2 <__riscv_save_0>
    81b0:	00011537          	lui	a0,0x11
    81b4:	4e050513          	addi	a0,a0,1248 # 114e0 <asc2_3216+0x1a04>
    81b8:	a60f90ef          	jal	ra,1418 <rt_kprintf>
    81bc:	000115b7          	lui	a1,0x11
    81c0:	20005537          	lui	a0,0x20005
    81c4:	4681                	li	a3,0
    81c6:	4601                	li	a2,0
    81c8:	4f058593          	addi	a1,a1,1264 # 114f0 <asc2_3216+0x1a14>
    81cc:	3e450513          	addi	a0,a0,996 # 200053e4 <sem_key_lock>
    81d0:	eaef80ef          	jal	ra,87e <rt_sem_init>
    81d4:	000115b7          	lui	a1,0x11
    81d8:	20005537          	lui	a0,0x20005
    81dc:	4681                	li	a3,0
    81de:	4601                	li	a2,0
    81e0:	4fc58593          	addi	a1,a1,1276 # 114fc <asc2_3216+0x1a20>
    81e4:	40450513          	addi	a0,a0,1028 # 20005404 <sem_menu_lock>
    81e8:	e96f80ef          	jal	ra,87e <rt_sem_init>
    81ec:	00011537          	lui	a0,0x11
    81f0:	4581                	li	a1,0
    81f2:	50850513          	addi	a0,a0,1288 # 11508 <asc2_3216+0x1a2c>
    81f6:	fd8f80ef          	jal	ra,9ce <rt_mutex_create>
    81fa:	92a1a823          	sw	a0,-1744(gp) # 20003458 <mutex_lock>
    81fe:	00011537          	lui	a0,0x11
    8202:	51450513          	addi	a0,a0,1300 # 11514 <asc2_3216+0x1a38>
    8206:	a12f90ef          	jal	ra,1418 <rt_kprintf>
    820a:	20005537          	lui	a0,0x20005
    820e:	b6450513          	addi	a0,a0,-1180 # 20004b64 <TEST_thread>
    8212:	ca3f90ef          	jal	ra,1eb4 <rt_thread_startup>
    8216:	00011537          	lui	a0,0x11
    821a:	52050513          	addi	a0,a0,1312 # 11520 <asc2_3216+0x1a44>
    821e:	9faf90ef          	jal	ra,1418 <rt_kprintf>
    8222:	20005437          	lui	s0,0x20005
    8226:	20005737          	lui	a4,0x20005
    822a:	00007637          	lui	a2,0x7
    822e:	000115b7          	lui	a1,0x11
    8232:	4895                	li	a7,5
    8234:	4825                	li	a6,9
    8236:	40000793          	li	a5,1024
    823a:	fe470713          	addi	a4,a4,-28 # 20004fe4 <rt_LCD_thread_stack>
    823e:	4681                	li	a3,0
    8240:	fda60613          	addi	a2,a2,-38 # 6fda <LCD_thread_entry>
    8244:	53058593          	addi	a1,a1,1328 # 11530 <asc2_3216+0x1a54>
    8248:	ae440513          	addi	a0,s0,-1308 # 20004ae4 <LCD_thread>
    824c:	a79f90ef          	jal	ra,1cc4 <rt_thread_init>
    8250:	e939                	bnez	a0,82a6 <thread_sema_init+0xfa>
    8252:	ae440513          	addi	a0,s0,-1308
    8256:	c5ff90ef          	jal	ra,1eb4 <rt_thread_startup>
    825a:	200054b7          	lui	s1,0x20005
    825e:	20005737          	lui	a4,0x20005
    8262:	00008637          	lui	a2,0x8
    8266:	000115b7          	lui	a1,0x11
    826a:	4895                	li	a7,5
    826c:	4829                	li	a6,10
    826e:	40000793          	li	a5,1024
    8272:	be470713          	addi	a4,a4,-1052 # 20004be4 <rt_DTW_thread_stack>
    8276:	4681                	li	a3,0
    8278:	b7260613          	addi	a2,a2,-1166 # 7b72 <DTW_thread_entry>
    827c:	4dc58593          	addi	a1,a1,1244 # 114dc <asc2_3216+0x1a00>
    8280:	a6448513          	addi	a0,s1,-1436 # 20004a64 <DTW_thread>
    8284:	a41f90ef          	jal	ra,1cc4 <rt_thread_init>
    8288:	842a                	mv	s0,a0
    828a:	e515                	bnez	a0,82b6 <thread_sema_init+0x10a>
    828c:	a6448513          	addi	a0,s1,-1436
    8290:	c25f90ef          	jal	ra,1eb4 <rt_thread_startup>
    8294:	00011537          	lui	a0,0x11
    8298:	56450513          	addi	a0,a0,1380 # 11564 <asc2_3216+0x1a88>
    829c:	97cf90ef          	jal	ra,1418 <rt_kprintf>
    82a0:	8522                	mv	a0,s0
    82a2:	964f806f          	j	406 <__riscv_restore_0>
    82a6:	00011537          	lui	a0,0x11
    82aa:	53450513          	addi	a0,a0,1332 # 11534 <asc2_3216+0x1a58>
    82ae:	96af90ef          	jal	ra,1418 <rt_kprintf>
    82b2:	547d                	li	s0,-1
    82b4:	b7f5                	j	82a0 <thread_sema_init+0xf4>
    82b6:	00011537          	lui	a0,0x11
    82ba:	54c50513          	addi	a0,a0,1356 # 1154c <asc2_3216+0x1a70>
    82be:	95af90ef          	jal	ra,1418 <rt_kprintf>
    82c2:	547d                	li	s0,-1
    82c4:	bff1                	j	82a0 <thread_sema_init+0xf4>
    82c6:	a001                	j	82c6 <thread_sema_init+0x11a>
    82c8:	a001                	j	82c8 <thread_sema_init+0x11c>

000082ca <Ecall_M_Mode_Handler>:
    82ca:	a001                	j	82ca <Ecall_M_Mode_Handler>

000082cc <Ecall_U_Mode_Handler>:
    82cc:	a001                	j	82cc <Ecall_U_Mode_Handler>

000082ce <Break_Point_Handler>:
    82ce:	a001                	j	82ce <Break_Point_Handler>
    82d0:	a001                	j	82d0 <Break_Point_Handler+0x2>
    82d2:	a001                	j	82d2 <Break_Point_Handler+0x4>

000082d4 <WWDG_IRQHandler>:
    82d4:	a001                	j	82d4 <WWDG_IRQHandler>

000082d6 <PVD_IRQHandler>:
    82d6:	a001                	j	82d6 <PVD_IRQHandler>

000082d8 <TAMPER_IRQHandler>:
    82d8:	a001                	j	82d8 <TAMPER_IRQHandler>

000082da <RTC_IRQHandler>:
    82da:	a001                	j	82da <RTC_IRQHandler>

000082dc <FLASH_IRQHandler>:
    82dc:	a001                	j	82dc <FLASH_IRQHandler>

000082de <RCC_IRQHandler>:
    82de:	a001                	j	82de <RCC_IRQHandler>
    82e0:	a001                	j	82e0 <RCC_IRQHandler+0x2>
    82e2:	a001                	j	82e2 <RCC_IRQHandler+0x4>
    82e4:	a001                	j	82e4 <RCC_IRQHandler+0x6>
    82e6:	a001                	j	82e6 <RCC_IRQHandler+0x8>
    82e8:	a001                	j	82e8 <RCC_IRQHandler+0xa>
    82ea:	a001                	j	82ea <RCC_IRQHandler+0xc>

000082ec <DMA1_Channel2_IRQHandler>:
    82ec:	a001                	j	82ec <DMA1_Channel2_IRQHandler>

000082ee <DMA1_Channel3_IRQHandler>:
    82ee:	a001                	j	82ee <DMA1_Channel3_IRQHandler>

000082f0 <DMA1_Channel4_IRQHandler>:
    82f0:	a001                	j	82f0 <DMA1_Channel4_IRQHandler>

000082f2 <DMA1_Channel5_IRQHandler>:
    82f2:	a001                	j	82f2 <DMA1_Channel5_IRQHandler>

000082f4 <DMA1_Channel6_IRQHandler>:
    82f4:	a001                	j	82f4 <DMA1_Channel6_IRQHandler>

000082f6 <DMA1_Channel7_IRQHandler>:
    82f6:	a001                	j	82f6 <DMA1_Channel7_IRQHandler>

000082f8 <ADC1_2_IRQHandler>:
    82f8:	a001                	j	82f8 <ADC1_2_IRQHandler>

000082fa <USB_HP_CAN1_TX_IRQHandler>:
    82fa:	a001                	j	82fa <USB_HP_CAN1_TX_IRQHandler>

000082fc <USB_LP_CAN1_RX0_IRQHandler>:
    82fc:	a001                	j	82fc <USB_LP_CAN1_RX0_IRQHandler>

000082fe <CAN1_RX1_IRQHandler>:
    82fe:	a001                	j	82fe <CAN1_RX1_IRQHandler>

00008300 <CAN1_SCE_IRQHandler>:
    8300:	a001                	j	8300 <CAN1_SCE_IRQHandler>
    8302:	a001                	j	8302 <CAN1_SCE_IRQHandler+0x2>

00008304 <TIM1_BRK_IRQHandler>:
    8304:	a001                	j	8304 <TIM1_BRK_IRQHandler>

00008306 <TIM1_UP_IRQHandler>:
    8306:	a001                	j	8306 <TIM1_UP_IRQHandler>

00008308 <TIM1_TRG_COM_IRQHandler>:
    8308:	a001                	j	8308 <TIM1_TRG_COM_IRQHandler>

0000830a <TIM1_CC_IRQHandler>:
    830a:	a001                	j	830a <TIM1_CC_IRQHandler>

0000830c <TIM2_IRQHandler>:
    830c:	a001                	j	830c <TIM2_IRQHandler>

0000830e <TIM3_IRQHandler>:
    830e:	a001                	j	830e <TIM3_IRQHandler>

00008310 <TIM4_IRQHandler>:
    8310:	a001                	j	8310 <TIM4_IRQHandler>

00008312 <I2C1_EV_IRQHandler>:
    8312:	a001                	j	8312 <I2C1_EV_IRQHandler>

00008314 <I2C1_ER_IRQHandler>:
    8314:	a001                	j	8314 <I2C1_ER_IRQHandler>

00008316 <I2C2_EV_IRQHandler>:
    8316:	a001                	j	8316 <I2C2_EV_IRQHandler>

00008318 <I2C2_ER_IRQHandler>:
    8318:	a001                	j	8318 <I2C2_ER_IRQHandler>

0000831a <SPI1_IRQHandler>:
    831a:	a001                	j	831a <SPI1_IRQHandler>

0000831c <SPI2_IRQHandler>:
    831c:	a001                	j	831c <SPI2_IRQHandler>
    831e:	a001                	j	831e <SPI2_IRQHandler+0x2>

00008320 <USART2_IRQHandler>:
    8320:	a001                	j	8320 <USART2_IRQHandler>

00008322 <USART3_IRQHandler>:
    8322:	a001                	j	8322 <USART3_IRQHandler>
    8324:	a001                	j	8324 <USART3_IRQHandler+0x2>

00008326 <RTCAlarm_IRQHandler>:
    8326:	a001                	j	8326 <RTCAlarm_IRQHandler>

00008328 <USBWakeUp_IRQHandler>:
    8328:	a001                	j	8328 <USBWakeUp_IRQHandler>

0000832a <TIM8_BRK_IRQHandler>:
    832a:	a001                	j	832a <TIM8_BRK_IRQHandler>

0000832c <TIM8_UP_IRQHandler>:
    832c:	a001                	j	832c <TIM8_UP_IRQHandler>

0000832e <TIM8_TRG_COM_IRQHandler>:
    832e:	a001                	j	832e <TIM8_TRG_COM_IRQHandler>

00008330 <TIM8_CC_IRQHandler>:
    8330:	a001                	j	8330 <TIM8_CC_IRQHandler>

00008332 <RNG_IRQHandler>:
    8332:	a001                	j	8332 <RNG_IRQHandler>

00008334 <FSMC_IRQHandler>:
    8334:	a001                	j	8334 <FSMC_IRQHandler>

00008336 <SDIO_IRQHandler>:
    8336:	a001                	j	8336 <SDIO_IRQHandler>

00008338 <TIM5_IRQHandler>:
    8338:	a001                	j	8338 <TIM5_IRQHandler>

0000833a <SPI3_IRQHandler>:
    833a:	a001                	j	833a <SPI3_IRQHandler>

0000833c <UART4_IRQHandler>:
    833c:	a001                	j	833c <UART4_IRQHandler>

0000833e <UART5_IRQHandler>:
    833e:	a001                	j	833e <UART5_IRQHandler>

00008340 <TIM6_IRQHandler>:
    8340:	a001                	j	8340 <TIM6_IRQHandler>
    8342:	a001                	j	8342 <TIM6_IRQHandler+0x2>

00008344 <DMA2_Channel1_IRQHandler>:
    8344:	a001                	j	8344 <DMA2_Channel1_IRQHandler>

00008346 <DMA2_Channel2_IRQHandler>:
    8346:	a001                	j	8346 <DMA2_Channel2_IRQHandler>

00008348 <DMA2_Channel3_IRQHandler>:
    8348:	a001                	j	8348 <DMA2_Channel3_IRQHandler>

0000834a <DMA2_Channel4_IRQHandler>:
    834a:	a001                	j	834a <DMA2_Channel4_IRQHandler>

0000834c <DMA2_Channel5_IRQHandler>:
    834c:	a001                	j	834c <DMA2_Channel5_IRQHandler>

0000834e <ETH_IRQHandler>:
    834e:	a001                	j	834e <ETH_IRQHandler>

00008350 <ETH_WKUP_IRQHandler>:
    8350:	a001                	j	8350 <ETH_WKUP_IRQHandler>

00008352 <CAN2_TX_IRQHandler>:
    8352:	a001                	j	8352 <CAN2_TX_IRQHandler>

00008354 <CAN2_RX0_IRQHandler>:
    8354:	a001                	j	8354 <CAN2_RX0_IRQHandler>

00008356 <CAN2_RX1_IRQHandler>:
    8356:	a001                	j	8356 <CAN2_RX1_IRQHandler>

00008358 <CAN2_SCE_IRQHandler>:
    8358:	a001                	j	8358 <CAN2_SCE_IRQHandler>

0000835a <OTG_FS_IRQHandler>:
    835a:	a001                	j	835a <OTG_FS_IRQHandler>

0000835c <USBHSWakeup_IRQHandler>:
    835c:	a001                	j	835c <USBHSWakeup_IRQHandler>

0000835e <USBHS_IRQHandler>:
    835e:	a001                	j	835e <USBHS_IRQHandler>

00008360 <DVP_IRQHandler>:
    8360:	a001                	j	8360 <DVP_IRQHandler>

00008362 <UART6_IRQHandler>:
    8362:	a001                	j	8362 <UART6_IRQHandler>

00008364 <UART7_IRQHandler>:
    8364:	a001                	j	8364 <UART7_IRQHandler>

00008366 <UART8_IRQHandler>:
    8366:	a001                	j	8366 <UART8_IRQHandler>

00008368 <TIM9_BRK_IRQHandler>:
    8368:	a001                	j	8368 <TIM9_BRK_IRQHandler>

0000836a <TIM9_UP_IRQHandler>:
    836a:	a001                	j	836a <TIM9_UP_IRQHandler>

0000836c <TIM9_TRG_COM_IRQHandler>:
    836c:	a001                	j	836c <TIM9_TRG_COM_IRQHandler>

0000836e <TIM9_CC_IRQHandler>:
    836e:	a001                	j	836e <TIM9_CC_IRQHandler>

00008370 <TIM10_BRK_IRQHandler>:
    8370:	a001                	j	8370 <TIM10_BRK_IRQHandler>

00008372 <TIM10_UP_IRQHandler>:
    8372:	a001                	j	8372 <TIM10_UP_IRQHandler>

00008374 <TIM10_TRG_COM_IRQHandler>:
    8374:	a001                	j	8374 <TIM10_TRG_COM_IRQHandler>

00008376 <TIM10_CC_IRQHandler>:
    8376:	a001                	j	8376 <TIM10_CC_IRQHandler>

00008378 <DMA2_Channel6_IRQHandler>:
    8378:	a001                	j	8378 <DMA2_Channel6_IRQHandler>

0000837a <DMA2_Channel7_IRQHandler>:
    837a:	a001                	j	837a <DMA2_Channel7_IRQHandler>

0000837c <DMA2_Channel8_IRQHandler>:
    837c:	a001                	j	837c <DMA2_Channel8_IRQHandler>

0000837e <DMA2_Channel9_IRQHandler>:
    837e:	a001                	j	837e <DMA2_Channel9_IRQHandler>

00008380 <DMA2_Channel10_IRQHandler>:
    8380:	a001                	j	8380 <DMA2_Channel10_IRQHandler>

00008382 <DMA2_Channel11_IRQHandler>:
    8382:	a001                	j	8382 <DMA2_Channel11_IRQHandler>

00008384 <handle_reset>:
    8384:	34129073          	csrw	mepc,t0
    8388:	1fffb197          	auipc	gp,0x1fffb
    838c:	7a018193          	addi	gp,gp,1952 # 20003b28 <__global_pointer$>
    8390:	20008117          	auipc	sp,0x20008
    8394:	c7010113          	addi	sp,sp,-912 # 20010000 <_eusrstack>
    8398:	00009517          	auipc	a0,0x9
    839c:	5a850513          	addi	a0,a0,1448 # 11940 <__rt_init_end>
    83a0:	1fff8597          	auipc	a1,0x1fff8
    83a4:	c6058593          	addi	a1,a1,-928 # 20000000 <_data_vma>
    83a8:	84018613          	addi	a2,gp,-1984 # 20003368 <_edata>
    83ac:	00c5fa63          	bgeu	a1,a2,83c0 <handle_reset+0x3c>
    83b0:	00052283          	lw	t0,0(a0)
    83b4:	0055a023          	sw	t0,0(a1)
    83b8:	0511                	addi	a0,a0,4
    83ba:	0591                	addi	a1,a1,4
    83bc:	fec5eae3          	bltu	a1,a2,83b0 <handle_reset+0x2c>
    83c0:	84018513          	addi	a0,gp,-1984 # 20003368 <_edata>
    83c4:	1fffd597          	auipc	a1,0x1fffd
    83c8:	06458593          	addi	a1,a1,100 # 20005428 <_ebss>
    83cc:	00b57763          	bgeu	a0,a1,83da <handle_reset+0x56>
    83d0:	00052023          	sw	zero,0(a0)
    83d4:	0511                	addi	a0,a0,4
    83d6:	feb56de3          	bltu	a0,a1,83d0 <handle_reset+0x4c>
    83da:	42fd                	li	t0,31
    83dc:	bc029073          	csrw	0xbc0,t0
    83e0:	42fd                	li	t0,31
    83e2:	80429073          	csrw	0x804,t0
    83e6:	000082b7          	lui	t0,0x8
    83ea:	80028293          	addi	t0,t0,-2048 # 7800 <LCD_thread_entry+0x826>
    83ee:	3002a073          	csrs	mstatus,t0
    83f2:	ffff8297          	auipc	t0,0xffff8
    83f6:	c4628293          	addi	t0,t0,-954 # 38 <_einit>
    83fa:	0032e293          	ori	t0,t0,3
    83fe:	30529073          	csrw	mtvec,t0
    8402:	a05fe0ef          	jal	ra,6e06 <SystemInit>
    8406:	ffff8297          	auipc	t0,0xffff8
    840a:	1e428293          	addi	t0,t0,484 # 5ea <entry>
    840e:	34129073          	csrw	mepc,t0
    8412:	30200073          	mret

00008416 <ADC_DeInit>:
    8416:	fcdf72ef          	jal	t0,3e2 <__riscv_save_0>
    841a:	400127b7          	lui	a5,0x40012
    841e:	40078793          	addi	a5,a5,1024 # 40012400 <_eusrstack+0x20002400>
    8422:	00f50a63          	beq	a0,a5,8436 <ADC_DeInit+0x20>
    8426:	400137b7          	lui	a5,0x40013
    842a:	80078793          	addi	a5,a5,-2048 # 40012800 <_eusrstack+0x20002800>
    842e:	02f50063          	beq	a0,a5,844e <ADC_DeInit+0x38>
    8432:	fd5f706f          	j	406 <__riscv_restore_0>
    8436:	4585                	li	a1,1
    8438:	20000513          	li	a0,512
    843c:	267000ef          	jal	ra,8ea2 <RCC_APB2PeriphResetCmd>
    8440:	4581                	li	a1,0
    8442:	20000513          	li	a0,512
    8446:	25d000ef          	jal	ra,8ea2 <RCC_APB2PeriphResetCmd>
    844a:	fbdf706f          	j	406 <__riscv_restore_0>
    844e:	4585                	li	a1,1
    8450:	40000513          	li	a0,1024
    8454:	24f000ef          	jal	ra,8ea2 <RCC_APB2PeriphResetCmd>
    8458:	4581                	li	a1,0
    845a:	40000513          	li	a0,1024
    845e:	245000ef          	jal	ra,8ea2 <RCC_APB2PeriphResetCmd>
    8462:	fa5f706f          	j	406 <__riscv_restore_0>

00008466 <ADC_Init>:
    8466:	419c                	lw	a5,0(a1)
    8468:	0185a803          	lw	a6,24(a1)
    846c:	4dd0                	lw	a2,28(a1)
    846e:	41d4                	lw	a3,4(a1)
    8470:	4158                	lw	a4,4(a0)
    8472:	0107e7b3          	or	a5,a5,a6
    8476:	8fd1                	or	a5,a5,a2
    8478:	e0f10637          	lui	a2,0xe0f10
    847c:	06a2                	slli	a3,a3,0x8
    847e:	eff60613          	addi	a2,a2,-257 # e0f0feff <_eusrstack+0xc0effeff>
    8482:	8f71                	and	a4,a4,a2
    8484:	8fd5                	or	a5,a5,a3
    8486:	8fd9                	or	a5,a5,a4
    8488:	c15c                	sw	a5,4(a0)
    848a:	45d0                	lw	a2,12(a1)
    848c:	499c                	lw	a5,16(a1)
    848e:	4594                	lw	a3,8(a1)
    8490:	4518                	lw	a4,8(a0)
    8492:	8fd1                	or	a5,a5,a2
    8494:	fff1f637          	lui	a2,0xfff1f
    8498:	0686                	slli	a3,a3,0x1
    849a:	7fd60613          	addi	a2,a2,2045 # fff1f7fd <_eusrstack+0xdff0f7fd>
    849e:	8f71                	and	a4,a4,a2
    84a0:	8fd5                	or	a5,a5,a3
    84a2:	8fd9                	or	a5,a5,a4
    84a4:	c51c                	sw	a5,8(a0)
    84a6:	0145c783          	lbu	a5,20(a1)
    84aa:	5558                	lw	a4,44(a0)
    84ac:	ff1006b7          	lui	a3,0xff100
    84b0:	17fd                	addi	a5,a5,-1
    84b2:	0ff7f793          	andi	a5,a5,255
    84b6:	16fd                	addi	a3,a3,-1
    84b8:	8f75                	and	a4,a4,a3
    84ba:	07d2                	slli	a5,a5,0x14
    84bc:	8fd9                	or	a5,a5,a4
    84be:	d55c                	sw	a5,44(a0)
    84c0:	8082                	ret

000084c2 <ADC_Cmd>:
    84c2:	451c                	lw	a5,8(a0)
    84c4:	c589                	beqz	a1,84ce <ADC_Cmd+0xc>
    84c6:	0017e793          	ori	a5,a5,1
    84ca:	c51c                	sw	a5,8(a0)
    84cc:	8082                	ret
    84ce:	9bf9                	andi	a5,a5,-2
    84d0:	c51c                	sw	a5,8(a0)
    84d2:	8082                	ret

000084d4 <ADC_DMACmd>:
    84d4:	451c                	lw	a5,8(a0)
    84d6:	c589                	beqz	a1,84e0 <ADC_DMACmd+0xc>
    84d8:	1007e793          	ori	a5,a5,256
    84dc:	c51c                	sw	a5,8(a0)
    84de:	8082                	ret
    84e0:	eff7f793          	andi	a5,a5,-257
    84e4:	c51c                	sw	a5,8(a0)
    84e6:	8082                	ret

000084e8 <ADC_ResetCalibration>:
    84e8:	451c                	lw	a5,8(a0)
    84ea:	0087e793          	ori	a5,a5,8
    84ee:	c51c                	sw	a5,8(a0)
    84f0:	8082                	ret

000084f2 <ADC_GetResetCalibrationStatus>:
    84f2:	4508                	lw	a0,8(a0)
    84f4:	810d                	srli	a0,a0,0x3
    84f6:	8905                	andi	a0,a0,1
    84f8:	8082                	ret

000084fa <ADC_StartCalibration>:
    84fa:	451c                	lw	a5,8(a0)
    84fc:	0047e793          	ori	a5,a5,4
    8500:	c51c                	sw	a5,8(a0)
    8502:	8082                	ret

00008504 <ADC_GetCalibrationStatus>:
    8504:	4508                	lw	a0,8(a0)
    8506:	8109                	srli	a0,a0,0x2
    8508:	8905                	andi	a0,a0,1
    850a:	8082                	ret

0000850c <ADC_SoftwareStartConvCmd>:
    850c:	451c                	lw	a5,8(a0)
    850e:	c591                	beqz	a1,851a <ADC_SoftwareStartConvCmd+0xe>
    8510:	00500737          	lui	a4,0x500
    8514:	8fd9                	or	a5,a5,a4
    8516:	c51c                	sw	a5,8(a0)
    8518:	8082                	ret
    851a:	ffb00737          	lui	a4,0xffb00
    851e:	177d                	addi	a4,a4,-1
    8520:	8ff9                	and	a5,a5,a4
    8522:	c51c                	sw	a5,8(a0)
    8524:	8082                	ret

00008526 <ADC_RegularChannelConfig>:
    8526:	47a5                	li	a5,9
    8528:	04b7f763          	bgeu	a5,a1,8576 <ADC_RegularChannelConfig+0x50>
    852c:	ff658813          	addi	a6,a1,-10
    8530:	00181713          	slli	a4,a6,0x1
    8534:	00c52883          	lw	a7,12(a0)
    8538:	9742                	add	a4,a4,a6
    853a:	479d                	li	a5,7
    853c:	00e797b3          	sll	a5,a5,a4
    8540:	fff7c793          	not	a5,a5
    8544:	0117f7b3          	and	a5,a5,a7
    8548:	00e696b3          	sll	a3,a3,a4
    854c:	8edd                	or	a3,a3,a5
    854e:	c554                	sw	a3,12(a0)
    8550:	4799                	li	a5,6
    8552:	04c7e563          	bltu	a5,a2,859c <ADC_RegularChannelConfig+0x76>
    8556:	167d                	addi	a2,a2,-1
    8558:	00261793          	slli	a5,a2,0x2
    855c:	963e                	add	a2,a2,a5
    855e:	5958                	lw	a4,52(a0)
    8560:	47fd                	li	a5,31
    8562:	00c797b3          	sll	a5,a5,a2
    8566:	fff7c793          	not	a5,a5
    856a:	8ff9                	and	a5,a5,a4
    856c:	00c59633          	sll	a2,a1,a2
    8570:	8e5d                	or	a2,a2,a5
    8572:	d950                	sw	a2,52(a0)
    8574:	8082                	ret
    8576:	00159713          	slli	a4,a1,0x1
    857a:	01052803          	lw	a6,16(a0)
    857e:	972e                	add	a4,a4,a1
    8580:	479d                	li	a5,7
    8582:	00e797b3          	sll	a5,a5,a4
    8586:	fff7c793          	not	a5,a5
    858a:	0107f7b3          	and	a5,a5,a6
    858e:	00e696b3          	sll	a3,a3,a4
    8592:	8edd                	or	a3,a3,a5
    8594:	c914                	sw	a3,16(a0)
    8596:	4799                	li	a5,6
    8598:	fac7ffe3          	bgeu	a5,a2,8556 <ADC_RegularChannelConfig+0x30>
    859c:	47b1                	li	a5,12
    859e:	02c7e363          	bltu	a5,a2,85c4 <ADC_RegularChannelConfig+0x9e>
    85a2:	ff960713          	addi	a4,a2,-7
    85a6:	00271613          	slli	a2,a4,0x2
    85aa:	5914                	lw	a3,48(a0)
    85ac:	963a                	add	a2,a2,a4
    85ae:	47fd                	li	a5,31
    85b0:	00c797b3          	sll	a5,a5,a2
    85b4:	fff7c793          	not	a5,a5
    85b8:	8ff5                	and	a5,a5,a3
    85ba:	00c59633          	sll	a2,a1,a2
    85be:	8e5d                	or	a2,a2,a5
    85c0:	d910                	sw	a2,48(a0)
    85c2:	8082                	ret
    85c4:	164d                	addi	a2,a2,-13
    85c6:	00261713          	slli	a4,a2,0x2
    85ca:	5554                	lw	a3,44(a0)
    85cc:	963a                	add	a2,a2,a4
    85ce:	47fd                	li	a5,31
    85d0:	00c797b3          	sll	a5,a5,a2
    85d4:	fff7c793          	not	a5,a5
    85d8:	8ff5                	and	a5,a5,a3
    85da:	00c595b3          	sll	a1,a1,a2
    85de:	8ddd                	or	a1,a1,a5
    85e0:	d54c                	sw	a1,44(a0)
    85e2:	8082                	ret

000085e4 <ADC_BufferCmd>:
    85e4:	415c                	lw	a5,4(a0)
    85e6:	c591                	beqz	a1,85f2 <ADC_BufferCmd+0xe>
    85e8:	04000737          	lui	a4,0x4000
    85ec:	8fd9                	or	a5,a5,a4
    85ee:	c15c                	sw	a5,4(a0)
    85f0:	8082                	ret
    85f2:	fc000737          	lui	a4,0xfc000
    85f6:	177d                	addi	a4,a4,-1
    85f8:	8ff9                	and	a5,a5,a4
    85fa:	c15c                	sw	a5,4(a0)
    85fc:	8082                	ret

000085fe <DBGMCU_GetCHIPID>:
    85fe:	1ffff7b7          	lui	a5,0x1ffff
    8602:	7047a503          	lw	a0,1796(a5) # 1ffff704 <__rt_init_end+0x1ffeddc4>
    8606:	8082                	ret

00008608 <DMA_DeInit>:
    8608:	411c                	lw	a5,0(a0)
    860a:	6741                	lui	a4,0x10
    860c:	1779                	addi	a4,a4,-2
    860e:	8ff9                	and	a5,a5,a4
    8610:	c11c                	sw	a5,0(a0)
    8612:	00052023          	sw	zero,0(a0)
    8616:	00052223          	sw	zero,4(a0)
    861a:	00052423          	sw	zero,8(a0)
    861e:	400207b7          	lui	a5,0x40020
    8622:	00052623          	sw	zero,12(a0)
    8626:	00878713          	addi	a4,a5,8 # 40020008 <_eusrstack+0x20010008>
    862a:	08e50e63          	beq	a0,a4,86c6 <DMA_DeInit+0xbe>
    862e:	01c78713          	addi	a4,a5,28
    8632:	08e50563          	beq	a0,a4,86bc <DMA_DeInit+0xb4>
    8636:	03078713          	addi	a4,a5,48
    863a:	0ae50163          	beq	a0,a4,86dc <DMA_DeInit+0xd4>
    863e:	04478713          	addi	a4,a5,68
    8642:	0ae50463          	beq	a0,a4,86ea <DMA_DeInit+0xe2>
    8646:	05878713          	addi	a4,a5,88
    864a:	08e50363          	beq	a0,a4,86d0 <DMA_DeInit+0xc8>
    864e:	06c78713          	addi	a4,a5,108
    8652:	0ae50163          	beq	a0,a4,86f4 <DMA_DeInit+0xec>
    8656:	08078713          	addi	a4,a5,128
    865a:	0ce50163          	beq	a0,a4,871c <DMA_DeInit+0x114>
    865e:	40878713          	addi	a4,a5,1032
    8662:	0ce50363          	beq	a0,a4,8728 <DMA_DeInit+0x120>
    8666:	41c78713          	addi	a4,a5,1052
    866a:	08e50b63          	beq	a0,a4,8700 <DMA_DeInit+0xf8>
    866e:	43078793          	addi	a5,a5,1072
    8672:	0cf50263          	beq	a0,a5,8736 <DMA_DeInit+0x12e>
    8676:	400207b7          	lui	a5,0x40020
    867a:	44478713          	addi	a4,a5,1092 # 40020444 <_eusrstack+0x20010444>
    867e:	0ce50763          	beq	a0,a4,874c <DMA_DeInit+0x144>
    8682:	45878713          	addi	a4,a5,1112
    8686:	0ce50a63          	beq	a0,a4,875a <DMA_DeInit+0x152>
    868a:	46c78713          	addi	a4,a5,1132
    868e:	0ce50e63          	beq	a0,a4,876a <DMA_DeInit+0x162>
    8692:	48078713          	addi	a4,a5,1152
    8696:	0ee50263          	beq	a0,a4,877a <DMA_DeInit+0x172>
    869a:	49078713          	addi	a4,a5,1168
    869e:	0ee50663          	beq	a0,a4,878a <DMA_DeInit+0x182>
    86a2:	4a078713          	addi	a4,a5,1184
    86a6:	0ee50963          	beq	a0,a4,8798 <DMA_DeInit+0x190>
    86aa:	4b078713          	addi	a4,a5,1200
    86ae:	0ee50c63          	beq	a0,a4,87a6 <DMA_DeInit+0x19e>
    86b2:	4c078713          	addi	a4,a5,1216
    86b6:	04e50c63          	beq	a0,a4,870e <DMA_DeInit+0x106>
    86ba:	8082                	ret
    86bc:	43d8                	lw	a4,4(a5)
    86be:	0f076713          	ori	a4,a4,240
    86c2:	c3d8                	sw	a4,4(a5)
    86c4:	8082                	ret
    86c6:	43d8                	lw	a4,4(a5)
    86c8:	00f76713          	ori	a4,a4,15
    86cc:	c3d8                	sw	a4,4(a5)
    86ce:	8082                	ret
    86d0:	43d8                	lw	a4,4(a5)
    86d2:	000f06b7          	lui	a3,0xf0
    86d6:	8f55                	or	a4,a4,a3
    86d8:	c3d8                	sw	a4,4(a5)
    86da:	8082                	ret
    86dc:	43d8                	lw	a4,4(a5)
    86de:	6685                	lui	a3,0x1
    86e0:	f0068693          	addi	a3,a3,-256 # f00 <rt_memset+0x80>
    86e4:	8f55                	or	a4,a4,a3
    86e6:	c3d8                	sw	a4,4(a5)
    86e8:	8082                	ret
    86ea:	43d8                	lw	a4,4(a5)
    86ec:	66bd                	lui	a3,0xf
    86ee:	8f55                	or	a4,a4,a3
    86f0:	c3d8                	sw	a4,4(a5)
    86f2:	8082                	ret
    86f4:	43d8                	lw	a4,4(a5)
    86f6:	00f006b7          	lui	a3,0xf00
    86fa:	8f55                	or	a4,a4,a3
    86fc:	c3d8                	sw	a4,4(a5)
    86fe:	8082                	ret
    8700:	4047a703          	lw	a4,1028(a5)
    8704:	0f076713          	ori	a4,a4,240
    8708:	40e7a223          	sw	a4,1028(a5)
    870c:	8082                	ret
    870e:	4d47a703          	lw	a4,1236(a5)
    8712:	66bd                	lui	a3,0xf
    8714:	8f55                	or	a4,a4,a3
    8716:	4ce7aa23          	sw	a4,1236(a5)
    871a:	8082                	ret
    871c:	43d8                	lw	a4,4(a5)
    871e:	0f0006b7          	lui	a3,0xf000
    8722:	8f55                	or	a4,a4,a3
    8724:	c3d8                	sw	a4,4(a5)
    8726:	8082                	ret
    8728:	4047a703          	lw	a4,1028(a5)
    872c:	00f76713          	ori	a4,a4,15
    8730:	40e7a223          	sw	a4,1028(a5)
    8734:	8082                	ret
    8736:	400207b7          	lui	a5,0x40020
    873a:	4047a703          	lw	a4,1028(a5) # 40020404 <_eusrstack+0x20010404>
    873e:	6685                	lui	a3,0x1
    8740:	f0068693          	addi	a3,a3,-256 # f00 <rt_memset+0x80>
    8744:	8f55                	or	a4,a4,a3
    8746:	40e7a223          	sw	a4,1028(a5)
    874a:	8082                	ret
    874c:	4047a703          	lw	a4,1028(a5)
    8750:	66bd                	lui	a3,0xf
    8752:	8f55                	or	a4,a4,a3
    8754:	40e7a223          	sw	a4,1028(a5)
    8758:	8082                	ret
    875a:	4047a703          	lw	a4,1028(a5)
    875e:	000f06b7          	lui	a3,0xf0
    8762:	8f55                	or	a4,a4,a3
    8764:	40e7a223          	sw	a4,1028(a5)
    8768:	8082                	ret
    876a:	4047a703          	lw	a4,1028(a5)
    876e:	00f006b7          	lui	a3,0xf00
    8772:	8f55                	or	a4,a4,a3
    8774:	40e7a223          	sw	a4,1028(a5)
    8778:	8082                	ret
    877a:	4047a703          	lw	a4,1028(a5)
    877e:	0f0006b7          	lui	a3,0xf000
    8782:	8f55                	or	a4,a4,a3
    8784:	40e7a223          	sw	a4,1028(a5)
    8788:	8082                	ret
    878a:	4d47a703          	lw	a4,1236(a5)
    878e:	00f76713          	ori	a4,a4,15
    8792:	4ce7aa23          	sw	a4,1236(a5)
    8796:	8082                	ret
    8798:	4d47a703          	lw	a4,1236(a5)
    879c:	0f076713          	ori	a4,a4,240
    87a0:	4ce7aa23          	sw	a4,1236(a5)
    87a4:	8082                	ret
    87a6:	4d47a703          	lw	a4,1236(a5)
    87aa:	6685                	lui	a3,0x1
    87ac:	f0068693          	addi	a3,a3,-256 # f00 <rt_memset+0x80>
    87b0:	8f55                	or	a4,a4,a3
    87b2:	4ce7aa23          	sw	a4,1236(a5)
    87b6:	8082                	ret

000087b8 <DMA_Init>:
    87b8:	5190                	lw	a2,32(a1)
    87ba:	459c                	lw	a5,8(a1)
    87bc:	4994                	lw	a3,16(a1)
    87be:	49d8                	lw	a4,20(a1)
    87c0:	0185a883          	lw	a7,24(a1)
    87c4:	8fd1                	or	a5,a5,a2
    87c6:	8fd5                	or	a5,a5,a3
    87c8:	4dd0                	lw	a2,28(a1)
    87ca:	51d4                	lw	a3,36(a1)
    87cc:	8fd9                	or	a5,a5,a4
    87ce:	0117e7b3          	or	a5,a5,a7
    87d2:	4118                	lw	a4,0(a0)
    87d4:	0285a803          	lw	a6,40(a1)
    87d8:	8fd1                	or	a5,a5,a2
    87da:	8fd5                	or	a5,a5,a3
    87dc:	76e1                	lui	a3,0xffff8
    87de:	06bd                	addi	a3,a3,15
    87e0:	45d0                	lw	a2,12(a1)
    87e2:	8f75                	and	a4,a4,a3
    87e4:	0107e7b3          	or	a5,a5,a6
    87e8:	4194                	lw	a3,0(a1)
    87ea:	8fd9                	or	a5,a5,a4
    87ec:	c11c                	sw	a5,0(a0)
    87ee:	41dc                	lw	a5,4(a1)
    87f0:	c150                	sw	a2,4(a0)
    87f2:	c514                	sw	a3,8(a0)
    87f4:	c55c                	sw	a5,12(a0)
    87f6:	8082                	ret

000087f8 <DMA_Cmd>:
    87f8:	411c                	lw	a5,0(a0)
    87fa:	c589                	beqz	a1,8804 <DMA_Cmd+0xc>
    87fc:	0017e793          	ori	a5,a5,1
    8800:	c11c                	sw	a5,0(a0)
    8802:	8082                	ret
    8804:	6741                	lui	a4,0x10
    8806:	1779                	addi	a4,a4,-2
    8808:	8ff9                	and	a5,a5,a4
    880a:	c11c                	sw	a5,0(a0)
    880c:	8082                	ret

0000880e <DMA_ITConfig>:
    880e:	411c                	lw	a5,0(a0)
    8810:	c601                	beqz	a2,8818 <DMA_ITConfig+0xa>
    8812:	8ddd                	or	a1,a1,a5
    8814:	c10c                	sw	a1,0(a0)
    8816:	8082                	ret
    8818:	fff5c593          	not	a1,a1
    881c:	8dfd                	and	a1,a1,a5
    881e:	c10c                	sw	a1,0(a0)
    8820:	8082                	ret

00008822 <DMA_ClearFlag>:
    8822:	00351793          	slli	a5,a0,0x3
    8826:	0007d763          	bgez	a5,8834 <DMA_ClearFlag+0x12>
    882a:	400207b7          	lui	a5,0x40020
    882e:	40a7a223          	sw	a0,1028(a5) # 40020404 <_eusrstack+0x20010404>
    8832:	8082                	ret
    8834:	00251793          	slli	a5,a0,0x2
    8838:	0007d763          	bgez	a5,8846 <DMA_ClearFlag+0x24>
    883c:	400207b7          	lui	a5,0x40020
    8840:	4ca7aa23          	sw	a0,1236(a5) # 400204d4 <_eusrstack+0x200104d4>
    8844:	8082                	ret
    8846:	400207b7          	lui	a5,0x40020
    884a:	c3c8                	sw	a0,4(a5)
    884c:	8082                	ret

0000884e <EXTI_Init>:
    884e:	4158                	lw	a4,4(a0)
    8850:	410c                	lw	a1,0(a0)
    8852:	00c52803          	lw	a6,12(a0)
    8856:	400106b7          	lui	a3,0x40010
    885a:	40068793          	addi	a5,a3,1024 # 40010400 <_eusrstack+0x20000400>
    885e:	973e                	add	a4,a4,a5
    8860:	fff5c613          	not	a2,a1
    8864:	04080163          	beqz	a6,88a6 <EXTI_Init+0x58>
    8868:	4006a883          	lw	a7,1024(a3)
    886c:	00852803          	lw	a6,8(a0)
    8870:	4341                	li	t1,16
    8872:	00c8f8b3          	and	a7,a7,a2
    8876:	4116a023          	sw	a7,1024(a3)
    887a:	43d4                	lw	a3,4(a5)
    887c:	8e75                	and	a2,a2,a3
    887e:	c3d0                	sw	a2,4(a5)
    8880:	4314                	lw	a3,0(a4)
    8882:	8dd5                	or	a1,a1,a3
    8884:	c30c                	sw	a1,0(a4)
    8886:	4118                	lw	a4,0(a0)
    8888:	4790                	lw	a2,8(a5)
    888a:	fff74693          	not	a3,a4
    888e:	8e75                	and	a2,a2,a3
    8890:	c790                	sw	a2,8(a5)
    8892:	47d0                	lw	a2,12(a5)
    8894:	8ef1                	and	a3,a3,a2
    8896:	c7d4                	sw	a3,12(a5)
    8898:	00680b63          	beq	a6,t1,88ae <EXTI_Init+0x60>
    889c:	97c2                	add	a5,a5,a6
    889e:	4394                	lw	a3,0(a5)
    88a0:	8f55                	or	a4,a4,a3
    88a2:	c398                	sw	a4,0(a5)
    88a4:	8082                	ret
    88a6:	431c                	lw	a5,0(a4)
    88a8:	8e7d                	and	a2,a2,a5
    88aa:	c310                	sw	a2,0(a4)
    88ac:	8082                	ret
    88ae:	4794                	lw	a3,8(a5)
    88b0:	8ed9                	or	a3,a3,a4
    88b2:	c794                	sw	a3,8(a5)
    88b4:	47d4                	lw	a3,12(a5)
    88b6:	8f55                	or	a4,a4,a3
    88b8:	c7d8                	sw	a4,12(a5)
    88ba:	8082                	ret

000088bc <EXTI_ClearFlag>:
    88bc:	400107b7          	lui	a5,0x40010
    88c0:	40a7aa23          	sw	a0,1044(a5) # 40010414 <_eusrstack+0x20000414>
    88c4:	8082                	ret

000088c6 <EXTI_GetITStatus>:
    88c6:	400107b7          	lui	a5,0x40010
    88ca:	40078713          	addi	a4,a5,1024 # 40010400 <_eusrstack+0x20000400>
    88ce:	4007a783          	lw	a5,1024(a5)
    88d2:	4b58                	lw	a4,20(a4)
    88d4:	8f69                	and	a4,a4,a0
    88d6:	c709                	beqz	a4,88e0 <EXTI_GetITStatus+0x1a>
    88d8:	8d7d                	and	a0,a0,a5
    88da:	00a03533          	snez	a0,a0
    88de:	8082                	ret
    88e0:	4501                	li	a0,0
    88e2:	8082                	ret

000088e4 <EXTI_ClearITPendingBit>:
    88e4:	400107b7          	lui	a5,0x40010
    88e8:	40a7aa23          	sw	a0,1044(a5) # 40010414 <_eusrstack+0x20000414>
    88ec:	8082                	ret

000088ee <FLASH_Unlock>:
    88ee:	456707b7          	lui	a5,0x45670
    88f2:	40022737          	lui	a4,0x40022
    88f6:	12378793          	addi	a5,a5,291 # 45670123 <_eusrstack+0x25660123>
    88fa:	c35c                	sw	a5,4(a4)
    88fc:	cdef97b7          	lui	a5,0xcdef9
    8900:	9ab78793          	addi	a5,a5,-1621 # cdef89ab <_eusrstack+0xadee89ab>
    8904:	c35c                	sw	a5,4(a4)
    8906:	8082                	ret

00008908 <FLASH_Lock>:
    8908:	40022737          	lui	a4,0x40022
    890c:	4b1c                	lw	a5,16(a4)
    890e:	0807e793          	ori	a5,a5,128
    8912:	cb1c                	sw	a5,16(a4)
    8914:	8082                	ret

00008916 <FLASH_WaitForLastOperation>:
    8916:	400226b7          	lui	a3,0x40022
    891a:	46d8                	lw	a4,12(a3)
    891c:	87aa                	mv	a5,a0
    891e:	8b05                	andi	a4,a4,1
    8920:	eb01                	bnez	a4,8930 <FLASH_WaitForLastOperation+0x1a>
    8922:	46c8                	lw	a0,12(a3)
    8924:	8941                	andi	a0,a0,16
    8926:	00153513          	seqz	a0,a0
    892a:	050d                	addi	a0,a0,3
    892c:	cb8d                	beqz	a5,895e <FLASH_WaitForLastOperation+0x48>
    892e:	8082                	ret
    8930:	c51d                	beqz	a0,895e <FLASH_WaitForLastOperation+0x48>
    8932:	46d8                	lw	a4,12(a3)
    8934:	400226b7          	lui	a3,0x40022
    8938:	8b05                	andi	a4,a4,1
    893a:	eb19                	bnez	a4,8950 <FLASH_WaitForLastOperation+0x3a>
    893c:	40022737          	lui	a4,0x40022
    8940:	4748                	lw	a0,12(a4)
    8942:	17fd                	addi	a5,a5,-1
    8944:	8941                	andi	a0,a0,16
    8946:	00153513          	seqz	a0,a0
    894a:	050d                	addi	a0,a0,3
    894c:	f3ed                	bnez	a5,892e <FLASH_WaitForLastOperation+0x18>
    894e:	a801                	j	895e <FLASH_WaitForLastOperation+0x48>
    8950:	17fd                	addi	a5,a5,-1
    8952:	c791                	beqz	a5,895e <FLASH_WaitForLastOperation+0x48>
    8954:	46d8                	lw	a4,12(a3)
    8956:	8b05                	andi	a4,a4,1
    8958:	d375                	beqz	a4,893c <FLASH_WaitForLastOperation+0x26>
    895a:	17fd                	addi	a5,a5,-1
    895c:	ffe5                	bnez	a5,8954 <FLASH_WaitForLastOperation+0x3e>
    895e:	4515                	li	a0,5
    8960:	8082                	ret

00008962 <FLASH_ProgramHalfWord>:
    8962:	a81f72ef          	jal	t0,3e2 <__riscv_save_0>
    8966:	842a                	mv	s0,a0
    8968:	6515                	lui	a0,0x5
    896a:	84ae                	mv	s1,a1
    896c:	fabff0ef          	jal	ra,8916 <FLASH_WaitForLastOperation>
    8970:	4791                	li	a5,4
    8972:	00f50463          	beq	a0,a5,897a <FLASH_ProgramHalfWord+0x18>
    8976:	a91f706f          	j	406 <__riscv_restore_0>
    897a:	40022937          	lui	s2,0x40022
    897e:	01092783          	lw	a5,16(s2) # 40022010 <_eusrstack+0x20012010>
    8982:	6515                	lui	a0,0x5
    8984:	0017e793          	ori	a5,a5,1
    8988:	00f92823          	sw	a5,16(s2)
    898c:	00941023          	sh	s1,0(s0)
    8990:	f87ff0ef          	jal	ra,8916 <FLASH_WaitForLastOperation>
    8994:	01092783          	lw	a5,16(s2)
    8998:	9bf9                	andi	a5,a5,-2
    899a:	00f92823          	sw	a5,16(s2)
    899e:	a69f706f          	j	406 <__riscv_restore_0>

000089a2 <FSMC_NORSRAMInit>:
    89a2:	4518                	lw	a4,8(a0)
    89a4:	415c                	lw	a5,4(a0)
    89a6:	4550                	lw	a2,12(a0)
    89a8:	4914                	lw	a3,16(a0)
    89aa:	01452803          	lw	a6,20(a0) # 5014 <fasttraining+0x84>
    89ae:	8fd9                	or	a5,a5,a4
    89b0:	4d0c                	lw	a1,24(a0)
    89b2:	8fd1                	or	a5,a5,a2
    89b4:	8fd5                	or	a5,a5,a3
    89b6:	4d50                	lw	a2,28(a0)
    89b8:	5114                	lw	a3,32(a0)
    89ba:	0107e7b3          	or	a5,a5,a6
    89be:	8fcd                	or	a5,a5,a1
    89c0:	02452803          	lw	a6,36(a0)
    89c4:	550c                	lw	a1,40(a0)
    89c6:	8fd1                	or	a5,a5,a2
    89c8:	02c52e03          	lw	t3,44(a0)
    89cc:	4110                	lw	a2,0(a0)
    89ce:	8fd5                	or	a5,a5,a3
    89d0:	0107e7b3          	or	a5,a5,a6
    89d4:	5914                	lw	a3,48(a0)
    89d6:	8fcd                	or	a5,a5,a1
    89d8:	01c7e7b3          	or	a5,a5,t3
    89dc:	060a                	slli	a2,a2,0x2
    89de:	a00005b7          	lui	a1,0xa0000
    89e2:	8fd5                	or	a5,a5,a3
    89e4:	95b2                	add	a1,a1,a2
    89e6:	c19c                	sw	a5,0(a1)
    89e8:	47a1                	li	a5,8
    89ea:	00f71663          	bne	a4,a5,89f6 <FSMC_NORSRAMInit+0x54>
    89ee:	419c                	lw	a5,0(a1)
    89f0:	0407e793          	ori	a5,a5,64
    89f4:	c19c                	sw	a5,0(a1)
    89f6:	5954                	lw	a3,52(a0)
    89f8:	6e91                	lui	t4,0x4
    89fa:	4298                	lw	a4,0(a3)
    89fc:	0186af03          	lw	t5,24(a3) # 40022018 <_eusrstack+0x20012018>
    8a00:	42dc                	lw	a5,4(a3)
    8a02:	0086a303          	lw	t1,8(a3)
    8a06:	00c6a883          	lw	a7,12(a3)
    8a0a:	0106a803          	lw	a6,16(a3)
    8a0e:	01e76733          	or	a4,a4,t5
    8a12:	0792                	slli	a5,a5,0x4
    8a14:	4ad4                	lw	a3,20(a3)
    8a16:	8fd9                	or	a5,a5,a4
    8a18:	00831713          	slli	a4,t1,0x8
    8a1c:	8fd9                	or	a5,a5,a4
    8a1e:	01089713          	slli	a4,a7,0x10
    8a22:	8fd9                	or	a5,a5,a4
    8a24:	01481713          	slli	a4,a6,0x14
    8a28:	8fd9                	or	a5,a5,a4
    8a2a:	01869713          	slli	a4,a3,0x18
    8a2e:	8fd9                	or	a5,a5,a4
    8a30:	c1dc                	sw	a5,4(a1)
    8a32:	01de0c63          	beq	t3,t4,8a4a <FSMC_NORSRAMInit+0xa8>
    8a36:	a00007b7          	lui	a5,0xa0000
    8a3a:	10478793          	addi	a5,a5,260 # a0000104 <_eusrstack+0x7fff0104>
    8a3e:	963e                	add	a2,a2,a5
    8a40:	100007b7          	lui	a5,0x10000
    8a44:	17fd                	addi	a5,a5,-1
    8a46:	c21c                	sw	a5,0(a2)
    8a48:	8082                	ret
    8a4a:	5d18                	lw	a4,56(a0)
    8a4c:	431c                	lw	a5,0(a4)
    8a4e:	01872803          	lw	a6,24(a4) # 40022018 <_eusrstack+0x20012018>
    8a52:	4348                	lw	a0,4(a4)
    8a54:	470c                	lw	a1,8(a4)
    8a56:	4b14                	lw	a3,16(a4)
    8a58:	0107e7b3          	or	a5,a5,a6
    8a5c:	4b58                	lw	a4,20(a4)
    8a5e:	0512                	slli	a0,a0,0x4
    8a60:	8fc9                	or	a5,a5,a0
    8a62:	05a2                	slli	a1,a1,0x8
    8a64:	8fcd                	or	a5,a5,a1
    8a66:	06d2                	slli	a3,a3,0x14
    8a68:	0762                	slli	a4,a4,0x18
    8a6a:	8fd5                	or	a5,a5,a3
    8a6c:	8fd9                	or	a5,a5,a4
    8a6e:	a0000737          	lui	a4,0xa0000
    8a72:	10470713          	addi	a4,a4,260 # a0000104 <_eusrstack+0x7fff0104>
    8a76:	963a                	add	a2,a2,a4
    8a78:	c21c                	sw	a5,0(a2)
    8a7a:	8082                	ret

00008a7c <FSMC_NORSRAMCmd>:
    8a7c:	a00007b7          	lui	a5,0xa0000
    8a80:	050a                	slli	a0,a0,0x2
    8a82:	953e                	add	a0,a0,a5
    8a84:	411c                	lw	a5,0(a0)
    8a86:	c589                	beqz	a1,8a90 <FSMC_NORSRAMCmd+0x14>
    8a88:	0017e793          	ori	a5,a5,1
    8a8c:	c11c                	sw	a5,0(a0)
    8a8e:	8082                	ret
    8a90:	00100737          	lui	a4,0x100
    8a94:	1779                	addi	a4,a4,-2
    8a96:	8ff9                	and	a5,a5,a4
    8a98:	c11c                	sw	a5,0(a0)
    8a9a:	8082                	ret

00008a9c <GPIO_Init>:
    8a9c:	0085a803          	lw	a6,8(a1) # a0000008 <_eusrstack+0x7fff0008>
    8aa0:	01087793          	andi	a5,a6,16
    8aa4:	00f87313          	andi	t1,a6,15
    8aa8:	c781                	beqz	a5,8ab0 <GPIO_Init+0x14>
    8aaa:	41dc                	lw	a5,4(a1)
    8aac:	00f36333          	or	t1,t1,a5
    8ab0:	0005d683          	lhu	a3,0(a1)
    8ab4:	0ff6f793          	andi	a5,a3,255
    8ab8:	cba1                	beqz	a5,8b08 <GPIO_Init+0x6c>
    8aba:	410c                	lw	a1,0(a0)
    8abc:	4781                	li	a5,0
    8abe:	4e85                	li	t4,1
    8ac0:	4fbd                	li	t6,15
    8ac2:	02800f13          	li	t5,40
    8ac6:	04800293          	li	t0,72
    8aca:	4e21                	li	t3,8
    8acc:	a021                	j	8ad4 <GPIO_Init+0x38>
    8ace:	0785                	addi	a5,a5,1
    8ad0:	03c78b63          	beq	a5,t3,8b06 <GPIO_Init+0x6a>
    8ad4:	00fe9733          	sll	a4,t4,a5
    8ad8:	00e6f633          	and	a2,a3,a4
    8adc:	fec719e3          	bne	a4,a2,8ace <GPIO_Init+0x32>
    8ae0:	00279613          	slli	a2,a5,0x2
    8ae4:	00cf98b3          	sll	a7,t6,a2
    8ae8:	fff8c893          	not	a7,a7
    8aec:	00b8f5b3          	and	a1,a7,a1
    8af0:	00c31633          	sll	a2,t1,a2
    8af4:	8dd1                	or	a1,a1,a2
    8af6:	07e80963          	beq	a6,t5,8b68 <GPIO_Init+0xcc>
    8afa:	fc581ae3          	bne	a6,t0,8ace <GPIO_Init+0x32>
    8afe:	c918                	sw	a4,16(a0)
    8b00:	0785                	addi	a5,a5,1
    8b02:	fdc799e3          	bne	a5,t3,8ad4 <GPIO_Init+0x38>
    8b06:	c10c                	sw	a1,0(a0)
    8b08:	0ff00793          	li	a5,255
    8b0c:	04d7fd63          	bgeu	a5,a3,8b66 <GPIO_Init+0xca>
    8b10:	00452883          	lw	a7,4(a0)
    8b14:	47a1                	li	a5,8
    8b16:	4e85                	li	t4,1
    8b18:	4fbd                	li	t6,15
    8b1a:	02800f13          	li	t5,40
    8b1e:	04800293          	li	t0,72
    8b22:	4e41                	li	t3,16
    8b24:	a021                	j	8b2c <GPIO_Init+0x90>
    8b26:	0785                	addi	a5,a5,1
    8b28:	03c78d63          	beq	a5,t3,8b62 <GPIO_Init+0xc6>
    8b2c:	00fe9733          	sll	a4,t4,a5
    8b30:	00e6f5b3          	and	a1,a3,a4
    8b34:	feb719e3          	bne	a4,a1,8b26 <GPIO_Init+0x8a>
    8b38:	00279613          	slli	a2,a5,0x2
    8b3c:	1601                	addi	a2,a2,-32
    8b3e:	00cf95b3          	sll	a1,t6,a2
    8b42:	fff5c593          	not	a1,a1
    8b46:	0115f8b3          	and	a7,a1,a7
    8b4a:	00c31633          	sll	a2,t1,a2
    8b4e:	011668b3          	or	a7,a2,a7
    8b52:	01e80d63          	beq	a6,t5,8b6c <GPIO_Init+0xd0>
    8b56:	fc5818e3          	bne	a6,t0,8b26 <GPIO_Init+0x8a>
    8b5a:	c918                	sw	a4,16(a0)
    8b5c:	0785                	addi	a5,a5,1
    8b5e:	fdc797e3          	bne	a5,t3,8b2c <GPIO_Init+0x90>
    8b62:	01152223          	sw	a7,4(a0)
    8b66:	8082                	ret
    8b68:	c958                	sw	a4,20(a0)
    8b6a:	b795                	j	8ace <GPIO_Init+0x32>
    8b6c:	c958                	sw	a4,20(a0)
    8b6e:	bf65                	j	8b26 <GPIO_Init+0x8a>

00008b70 <GPIO_ReadInputDataBit>:
    8b70:	4508                	lw	a0,8(a0)
    8b72:	8d6d                	and	a0,a0,a1
    8b74:	00a03533          	snez	a0,a0
    8b78:	8082                	ret

00008b7a <GPIO_SetBits>:
    8b7a:	c90c                	sw	a1,16(a0)
    8b7c:	8082                	ret

00008b7e <GPIO_ResetBits>:
    8b7e:	c94c                	sw	a1,20(a0)
    8b80:	8082                	ret

00008b82 <GPIO_WriteBit>:
    8b82:	c219                	beqz	a2,8b88 <GPIO_WriteBit+0x6>
    8b84:	c90c                	sw	a1,16(a0)
    8b86:	8082                	ret
    8b88:	c94c                	sw	a1,20(a0)
    8b8a:	8082                	ret

00008b8c <GPIO_EXTILineConfig>:
    8b8c:	0fc5f793          	andi	a5,a1,252
    8b90:	40010737          	lui	a4,0x40010
    8b94:	973e                	add	a4,a4,a5
    8b96:	898d                	andi	a1,a1,3
    8b98:	4714                	lw	a3,8(a4)
    8b9a:	058a                	slli	a1,a1,0x2
    8b9c:	47bd                	li	a5,15
    8b9e:	00b797b3          	sll	a5,a5,a1
    8ba2:	fff7c793          	not	a5,a5
    8ba6:	8ff5                	and	a5,a5,a3
    8ba8:	c71c                	sw	a5,8(a4)
    8baa:	471c                	lw	a5,8(a4)
    8bac:	00b515b3          	sll	a1,a0,a1
    8bb0:	8ddd                	or	a1,a1,a5
    8bb2:	c70c                	sw	a1,8(a4)
    8bb4:	8082                	ret

00008bb6 <NVIC_PriorityGroupConfig>:
    8bb6:	92a1ac23          	sw	a0,-1736(gp) # 20003460 <NVIC_Priority_Group>
    8bba:	8082                	ret

00008bbc <NVIC_Init>:
    8bbc:	93818793          	addi	a5,gp,-1736 # 20003460 <NVIC_Priority_Group>
    8bc0:	4398                	lw	a4,0(a5)
    8bc2:	00054683          	lbu	a3,0(a0)
    8bc6:	e331                	bnez	a4,8c0a <NVIC_Init+0x4e>
    8bc8:	00254783          	lbu	a5,2(a0)
    8bcc:	e000e737          	lui	a4,0xe000e
    8bd0:	0792                	slli	a5,a5,0x4
    8bd2:	9736                	add	a4,a4,a3
    8bd4:	0ff7f793          	andi	a5,a5,255
    8bd8:	40f70023          	sb	a5,1024(a4) # e000e400 <_eusrstack+0xbfffe400>
    8bdc:	4150                	lw	a2,4(a0)
    8bde:	4705                	li	a4,1
    8be0:	0056d793          	srli	a5,a3,0x5
    8be4:	00d71733          	sll	a4,a4,a3
    8be8:	ca09                	beqz	a2,8bfa <NVIC_Init+0x3e>
    8bea:	04078793          	addi	a5,a5,64 # a0000040 <_eusrstack+0x7fff0040>
    8bee:	078a                	slli	a5,a5,0x2
    8bf0:	e000e6b7          	lui	a3,0xe000e
    8bf4:	97b6                	add	a5,a5,a3
    8bf6:	c398                	sw	a4,0(a5)
    8bf8:	8082                	ret
    8bfa:	06078793          	addi	a5,a5,96
    8bfe:	078a                	slli	a5,a5,0x2
    8c00:	e000e6b7          	lui	a3,0xe000e
    8c04:	97b6                	add	a5,a5,a3
    8c06:	c398                	sw	a4,0(a5)
    8c08:	8082                	ret
    8c0a:	4398                	lw	a4,0(a5)
    8c0c:	4605                	li	a2,1
    8c0e:	02c70b63          	beq	a4,a2,8c44 <NVIC_Init+0x88>
    8c12:	438c                	lw	a1,0(a5)
    8c14:	4709                	li	a4,2
    8c16:	04e58663          	beq	a1,a4,8c62 <NVIC_Init+0xa6>
    8c1a:	4398                	lw	a4,0(a5)
    8c1c:	460d                	li	a2,3
    8c1e:	00c70963          	beq	a4,a2,8c30 <NVIC_Init+0x74>
    8c22:	4398                	lw	a4,0(a5)
    8c24:	4791                	li	a5,4
    8c26:	faf71be3          	bne	a4,a5,8bdc <NVIC_Init+0x20>
    8c2a:	00154783          	lbu	a5,1(a0)
    8c2e:	bf79                	j	8bcc <NVIC_Init+0x10>
    8c30:	00154603          	lbu	a2,1(a0)
    8c34:	00254783          	lbu	a5,2(a0)
    8c38:	04c76c63          	bltu	a4,a2,8c90 <NVIC_Init+0xd4>
    8c3c:	0606                	slli	a2,a2,0x1
    8c3e:	97b2                	add	a5,a5,a2
    8c40:	0792                	slli	a5,a5,0x4
    8c42:	a801                	j	8c52 <NVIC_Init+0x96>
    8c44:	00254783          	lbu	a5,2(a0)
    8c48:	00154603          	lbu	a2,1(a0)
    8c4c:	0792                	slli	a5,a5,0x4
    8c4e:	02e60763          	beq	a2,a4,8c7c <NVIC_Init+0xc0>
    8c52:	e000e737          	lui	a4,0xe000e
    8c56:	0ff7f793          	andi	a5,a5,255
    8c5a:	9736                	add	a4,a4,a3
    8c5c:	40f70023          	sb	a5,1024(a4) # e000e400 <_eusrstack+0xbfffe400>
    8c60:	bfb5                	j	8bdc <NVIC_Init+0x20>
    8c62:	00154703          	lbu	a4,1(a0)
    8c66:	00254783          	lbu	a5,2(a0)
    8c6a:	02e67863          	bgeu	a2,a4,8c9a <NVIC_Init+0xde>
    8c6e:	03e70713          	addi	a4,a4,62
    8c72:	070a                	slli	a4,a4,0x2
    8c74:	97ba                	add	a5,a5,a4
    8c76:	0ff7f793          	andi	a5,a5,255
    8c7a:	0792                	slli	a5,a5,0x4
    8c7c:	f807e793          	ori	a5,a5,-128
    8c80:	e000e737          	lui	a4,0xe000e
    8c84:	0ff7f793          	andi	a5,a5,255
    8c88:	9736                	add	a4,a4,a3
    8c8a:	40f70023          	sb	a5,1024(a4) # e000e400 <_eusrstack+0xbfffe400>
    8c8e:	b7b9                	j	8bdc <NVIC_Init+0x20>
    8c90:	07c60613          	addi	a2,a2,124
    8c94:	0606                	slli	a2,a2,0x1
    8c96:	97b2                	add	a5,a5,a2
    8c98:	bff9                	j	8c76 <NVIC_Init+0xba>
    8c9a:	070a                	slli	a4,a4,0x2
    8c9c:	97ba                	add	a5,a5,a4
    8c9e:	0792                	slli	a5,a5,0x4
    8ca0:	bf4d                	j	8c52 <NVIC_Init+0x96>

00008ca2 <RCC_ADCCLKConfig>:
    8ca2:	400216b7          	lui	a3,0x40021
    8ca6:	42dc                	lw	a5,4(a3)
    8ca8:	7751                	lui	a4,0xffff4
    8caa:	177d                	addi	a4,a4,-1
    8cac:	8ff9                	and	a5,a5,a4
    8cae:	8d5d                	or	a0,a0,a5
    8cb0:	c2c8                	sw	a0,4(a3)
    8cb2:	8082                	ret

00008cb4 <RCC_GetClocksFreq>:
    8cb4:	40021737          	lui	a4,0x40021
    8cb8:	435c                	lw	a5,4(a4)
    8cba:	4691                	li	a3,4
    8cbc:	8bb1                	andi	a5,a5,12
    8cbe:	00d78563          	beq	a5,a3,8cc8 <RCC_GetClocksFreq+0x14>
    8cc2:	46a1                	li	a3,8
    8cc4:	06d78563          	beq	a5,a3,8d2e <RCC_GetClocksFreq+0x7a>
    8cc8:	007a17b7          	lui	a5,0x7a1
    8ccc:	20078793          	addi	a5,a5,512 # 7a1200 <__rt_init_end+0x78f8c0>
    8cd0:	c11c                	sw	a5,0(a0)
    8cd2:	40021637          	lui	a2,0x40021
    8cd6:	4254                	lw	a3,4(a2)
    8cd8:	20003737          	lui	a4,0x20003
    8cdc:	2b870713          	addi	a4,a4,696 # 200032b8 <APBAHBPrescTable>
    8ce0:	8291                	srli	a3,a3,0x4
    8ce2:	8abd                	andi	a3,a3,15
    8ce4:	96ba                	add	a3,a3,a4
    8ce6:	0006c683          	lbu	a3,0(a3) # 40021000 <_eusrstack+0x20011000>
    8cea:	00d7d7b3          	srl	a5,a5,a3
    8cee:	c15c                	sw	a5,4(a0)
    8cf0:	4254                	lw	a3,4(a2)
    8cf2:	82a1                	srli	a3,a3,0x8
    8cf4:	8a9d                	andi	a3,a3,7
    8cf6:	96ba                	add	a3,a3,a4
    8cf8:	0006c683          	lbu	a3,0(a3)
    8cfc:	00d7d6b3          	srl	a3,a5,a3
    8d00:	c514                	sw	a3,8(a0)
    8d02:	4254                	lw	a3,4(a2)
    8d04:	82ad                	srli	a3,a3,0xb
    8d06:	8a9d                	andi	a3,a3,7
    8d08:	9736                	add	a4,a4,a3
    8d0a:	00074703          	lbu	a4,0(a4)
    8d0e:	00e7d7b3          	srl	a5,a5,a4
    8d12:	c55c                	sw	a5,12(a0)
    8d14:	4258                	lw	a4,4(a2)
    8d16:	8339                	srli	a4,a4,0xe
    8d18:	00377693          	andi	a3,a4,3
    8d1c:	83018713          	addi	a4,gp,-2000 # 20003358 <ADCPrescTable>
    8d20:	9736                	add	a4,a4,a3
    8d22:	00074703          	lbu	a4,0(a4)
    8d26:	02e7d7b3          	divu	a5,a5,a4
    8d2a:	c91c                	sw	a5,16(a0)
    8d2c:	8082                	ret
    8d2e:	435c                	lw	a5,4(a4)
    8d30:	1ffff6b7          	lui	a3,0x1ffff
    8d34:	4358                	lw	a4,4(a4)
    8d36:	70c6a683          	lw	a3,1804(a3) # 1ffff70c <__rt_init_end+0x1ffeddcc>
    8d3a:	6641                	lui	a2,0x10
    8d3c:	83c9                	srli	a5,a5,0x12
    8d3e:	8bbd                	andi	a5,a5,15
    8d40:	8f71                	and	a4,a4,a2
    8d42:	01169613          	slli	a2,a3,0x11
    8d46:	0789                	addi	a5,a5,2
    8d48:	02065f63          	bgez	a2,8d86 <RCC_GetClocksFreq+0xd2>
    8d4c:	4689                	li	a3,2
    8d4e:	0cd78963          	beq	a5,a3,8e20 <RCC_GetClocksFreq+0x16c>
    8d52:	46bd                	li	a3,15
    8d54:	0cd78963          	beq	a5,a3,8e26 <RCC_GetClocksFreq+0x172>
    8d58:	46c1                	li	a3,16
    8d5a:	0ad79d63          	bne	a5,a3,8e14 <RCC_GetClocksFreq+0x160>
    8d5e:	4681                	li	a3,0
    8d60:	47bd                	li	a5,15
    8d62:	eb05                	bnez	a4,8d92 <RCC_GetClocksFreq+0xde>
    8d64:	40024737          	lui	a4,0x40024
    8d68:	80072703          	lw	a4,-2048(a4) # 40023800 <_eusrstack+0x20013800>
    8d6c:	8b41                	andi	a4,a4,16
    8d6e:	cb2d                	beqz	a4,8de0 <RCC_GetClocksFreq+0x12c>
    8d70:	007a1737          	lui	a4,0x7a1
    8d74:	20070713          	addi	a4,a4,512 # 7a1200 <__rt_init_end+0x78f8c0>
    8d78:	02e787b3          	mul	a5,a5,a4
    8d7c:	c11c                	sw	a5,0(a0)
    8d7e:	dab1                	beqz	a3,8cd2 <RCC_GetClocksFreq+0x1e>
    8d80:	8385                	srli	a5,a5,0x1
    8d82:	c11c                	sw	a5,0(a0)
    8d84:	b7b9                	j	8cd2 <RCC_GetClocksFreq+0x1e>
    8d86:	4645                	li	a2,17
    8d88:	4681                	li	a3,0
    8d8a:	fcc79ce3          	bne	a5,a2,8d62 <RCC_GetClocksFreq+0xae>
    8d8e:	47c9                	li	a5,18
    8d90:	db71                	beqz	a4,8d64 <RCC_GetClocksFreq+0xb0>
    8d92:	400215b7          	lui	a1,0x40021
    8d96:	55d8                	lw	a4,44(a1)
    8d98:	00f71613          	slli	a2,a4,0xf
    8d9c:	55d8                	lw	a4,44(a1)
    8d9e:	04065963          	bgez	a2,8df0 <RCC_GetClocksFreq+0x13c>
    8da2:	8311                	srli	a4,a4,0x4
    8da4:	8b3d                	andi	a4,a4,15
    8da6:	007a1637          	lui	a2,0x7a1
    8daa:	0705                	addi	a4,a4,1
    8dac:	20060613          	addi	a2,a2,512 # 7a1200 <__rt_init_end+0x78f8c0>
    8db0:	02e65633          	divu	a2,a2,a4
    8db4:	c110                	sw	a2,0(a0)
    8db6:	55d8                	lw	a4,44(a1)
    8db8:	8321                	srli	a4,a4,0x8
    8dba:	8b3d                	andi	a4,a4,15
    8dbc:	c739                	beqz	a4,8e0a <RCC_GetClocksFreq+0x156>
    8dbe:	4585                	li	a1,1
    8dc0:	06b70663          	beq	a4,a1,8e2c <RCC_GetClocksFreq+0x178>
    8dc4:	45bd                	li	a1,15
    8dc6:	06b70a63          	beq	a4,a1,8e3a <RCC_GetClocksFreq+0x186>
    8dca:	0709                	addi	a4,a4,2
    8dcc:	02c70733          	mul	a4,a4,a2
    8dd0:	40021637          	lui	a2,0x40021
    8dd4:	5650                	lw	a2,44(a2)
    8dd6:	8a3d                	andi	a2,a2,15
    8dd8:	0605                	addi	a2,a2,1
    8dda:	02c75733          	divu	a4,a4,a2
    8dde:	a015                	j	8e02 <RCC_GetClocksFreq+0x14e>
    8de0:	003d1737          	lui	a4,0x3d1
    8de4:	90070713          	addi	a4,a4,-1792 # 3d0900 <__rt_init_end+0x3befc0>
    8de8:	02e787b3          	mul	a5,a5,a4
    8dec:	c11c                	sw	a5,0(a0)
    8dee:	bf41                	j	8d7e <RCC_GetClocksFreq+0xca>
    8df0:	8b3d                	andi	a4,a4,15
    8df2:	00170613          	addi	a2,a4,1
    8df6:	007a1737          	lui	a4,0x7a1
    8dfa:	20070713          	addi	a4,a4,512 # 7a1200 <__rt_init_end+0x78f8c0>
    8dfe:	02c75733          	divu	a4,a4,a2
    8e02:	02e787b3          	mul	a5,a5,a4
    8e06:	c11c                	sw	a5,0(a0)
    8e08:	bf9d                	j	8d7e <RCC_GetClocksFreq+0xca>
    8e0a:	00261713          	slli	a4,a2,0x2
    8e0e:	9732                	add	a4,a4,a2
    8e10:	8305                	srli	a4,a4,0x1
    8e12:	bf7d                	j	8dd0 <RCC_GetClocksFreq+0x11c>
    8e14:	46c5                	li	a3,17
    8e16:	02d79763          	bne	a5,a3,8e44 <RCC_GetClocksFreq+0x190>
    8e1a:	4681                	li	a3,0
    8e1c:	47c1                	li	a5,16
    8e1e:	b791                	j	8d62 <RCC_GetClocksFreq+0xae>
    8e20:	4681                	li	a3,0
    8e22:	47c9                	li	a5,18
    8e24:	b7b5                	j	8d90 <RCC_GetClocksFreq+0xdc>
    8e26:	4685                	li	a3,1
    8e28:	47b5                	li	a5,13
    8e2a:	bf25                	j	8d62 <RCC_GetClocksFreq+0xae>
    8e2c:	00161713          	slli	a4,a2,0x1
    8e30:	9732                	add	a4,a4,a2
    8e32:	070e                	slli	a4,a4,0x3
    8e34:	9732                	add	a4,a4,a2
    8e36:	8305                	srli	a4,a4,0x1
    8e38:	bf61                	j	8dd0 <RCC_GetClocksFreq+0x11c>
    8e3a:	00261713          	slli	a4,a2,0x2
    8e3e:	9732                	add	a4,a4,a2
    8e40:	070a                	slli	a4,a4,0x2
    8e42:	b779                	j	8dd0 <RCC_GetClocksFreq+0x11c>
    8e44:	4681                	li	a3,0
    8e46:	bf31                	j	8d62 <RCC_GetClocksFreq+0xae>

00008e48 <RCC_AHBPeriphClockCmd>:
    8e48:	c599                	beqz	a1,8e56 <RCC_AHBPeriphClockCmd+0xe>
    8e4a:	40021737          	lui	a4,0x40021
    8e4e:	4b5c                	lw	a5,20(a4)
    8e50:	8d5d                	or	a0,a0,a5
    8e52:	cb48                	sw	a0,20(a4)
    8e54:	8082                	ret
    8e56:	400217b7          	lui	a5,0x40021
    8e5a:	4bd8                	lw	a4,20(a5)
    8e5c:	fff54513          	not	a0,a0
    8e60:	8d79                	and	a0,a0,a4
    8e62:	cbc8                	sw	a0,20(a5)
    8e64:	8082                	ret

00008e66 <RCC_APB2PeriphClockCmd>:
    8e66:	c599                	beqz	a1,8e74 <RCC_APB2PeriphClockCmd+0xe>
    8e68:	40021737          	lui	a4,0x40021
    8e6c:	4f1c                	lw	a5,24(a4)
    8e6e:	8d5d                	or	a0,a0,a5
    8e70:	cf08                	sw	a0,24(a4)
    8e72:	8082                	ret
    8e74:	400217b7          	lui	a5,0x40021
    8e78:	4f98                	lw	a4,24(a5)
    8e7a:	fff54513          	not	a0,a0
    8e7e:	8d79                	and	a0,a0,a4
    8e80:	cf88                	sw	a0,24(a5)
    8e82:	8082                	ret

00008e84 <RCC_APB1PeriphClockCmd>:
    8e84:	c599                	beqz	a1,8e92 <RCC_APB1PeriphClockCmd+0xe>
    8e86:	40021737          	lui	a4,0x40021
    8e8a:	4f5c                	lw	a5,28(a4)
    8e8c:	8d5d                	or	a0,a0,a5
    8e8e:	cf48                	sw	a0,28(a4)
    8e90:	8082                	ret
    8e92:	400217b7          	lui	a5,0x40021
    8e96:	4fd8                	lw	a4,28(a5)
    8e98:	fff54513          	not	a0,a0
    8e9c:	8d79                	and	a0,a0,a4
    8e9e:	cfc8                	sw	a0,28(a5)
    8ea0:	8082                	ret

00008ea2 <RCC_APB2PeriphResetCmd>:
    8ea2:	c599                	beqz	a1,8eb0 <RCC_APB2PeriphResetCmd+0xe>
    8ea4:	40021737          	lui	a4,0x40021
    8ea8:	475c                	lw	a5,12(a4)
    8eaa:	8d5d                	or	a0,a0,a5
    8eac:	c748                	sw	a0,12(a4)
    8eae:	8082                	ret
    8eb0:	400217b7          	lui	a5,0x40021
    8eb4:	47d8                	lw	a4,12(a5)
    8eb6:	fff54513          	not	a0,a0
    8eba:	8d79                	and	a0,a0,a4
    8ebc:	c7c8                	sw	a0,12(a5)
    8ebe:	8082                	ret

00008ec0 <RNG_Cmd>:
    8ec0:	40024737          	lui	a4,0x40024
    8ec4:	c0072783          	lw	a5,-1024(a4) # 40023c00 <_eusrstack+0x20013c00>
    8ec8:	c511                	beqz	a0,8ed4 <RNG_Cmd+0x14>
    8eca:	0047e793          	ori	a5,a5,4
    8ece:	c0f72023          	sw	a5,-1024(a4)
    8ed2:	8082                	ret
    8ed4:	9bed                	andi	a5,a5,-5
    8ed6:	c0f72023          	sw	a5,-1024(a4)
    8eda:	8082                	ret

00008edc <TIM_TimeBaseInit>:
    8edc:	00055783          	lhu	a5,0(a0)
    8ee0:	400136b7          	lui	a3,0x40013
    8ee4:	c0068713          	addi	a4,a3,-1024 # 40012c00 <_eusrstack+0x20002c00>
    8ee8:	07c2                	slli	a5,a5,0x10
    8eea:	83c1                	srli	a5,a5,0x10
    8eec:	04e50063          	beq	a0,a4,8f2c <TIM_TimeBaseInit+0x50>
    8ef0:	40000737          	lui	a4,0x40000
    8ef4:	02e50c63          	beq	a0,a4,8f2c <TIM_TimeBaseInit+0x50>
    8ef8:	40070713          	addi	a4,a4,1024 # 40000400 <_eusrstack+0x1fff0400>
    8efc:	02e50863          	beq	a0,a4,8f2c <TIM_TimeBaseInit+0x50>
    8f00:	40001737          	lui	a4,0x40001
    8f04:	80070613          	addi	a2,a4,-2048 # 40000800 <_eusrstack+0x1fff0800>
    8f08:	02c50263          	beq	a0,a2,8f2c <TIM_TimeBaseInit+0x50>
    8f0c:	c0070713          	addi	a4,a4,-1024
    8f10:	00e50e63          	beq	a0,a4,8f2c <TIM_TimeBaseInit+0x50>
    8f14:	40068693          	addi	a3,a3,1024
    8f18:	00d50a63          	beq	a0,a3,8f2c <TIM_TimeBaseInit+0x50>
    8f1c:	40015737          	lui	a4,0x40015
    8f20:	c0070693          	addi	a3,a4,-1024 # 40014c00 <_eusrstack+0x20004c00>
    8f24:	00d50463          	beq	a0,a3,8f2c <TIM_TimeBaseInit+0x50>
    8f28:	00e51763          	bne	a0,a4,8f36 <TIM_TimeBaseInit+0x5a>
    8f2c:	0025d703          	lhu	a4,2(a1) # 40021002 <_eusrstack+0x20011002>
    8f30:	f8f7f793          	andi	a5,a5,-113
    8f34:	8fd9                	or	a5,a5,a4
    8f36:	40001737          	lui	a4,0x40001
    8f3a:	0045d603          	lhu	a2,4(a1)
    8f3e:	0005d683          	lhu	a3,0(a1)
    8f42:	04e50163          	beq	a0,a4,8f84 <TIM_TimeBaseInit+0xa8>
    8f46:	40070713          	addi	a4,a4,1024 # 40001400 <_eusrstack+0x1fff1400>
    8f4a:	02e50d63          	beq	a0,a4,8f84 <TIM_TimeBaseInit+0xa8>
    8f4e:	0065d703          	lhu	a4,6(a1)
    8f52:	cff7f793          	andi	a5,a5,-769
    8f56:	07c2                	slli	a5,a5,0x10
    8f58:	83c1                	srli	a5,a5,0x10
    8f5a:	8fd9                	or	a5,a5,a4
    8f5c:	00f51023          	sh	a5,0(a0)
    8f60:	02c51623          	sh	a2,44(a0)
    8f64:	400137b7          	lui	a5,0x40013
    8f68:	02d51423          	sh	a3,40(a0)
    8f6c:	c0078713          	addi	a4,a5,-1024 # 40012c00 <_eusrstack+0x20002c00>
    8f70:	02e51463          	bne	a0,a4,8f98 <TIM_TimeBaseInit+0xbc>
    8f74:	0085c783          	lbu	a5,8(a1)
    8f78:	02f51823          	sh	a5,48(a0)
    8f7c:	4785                	li	a5,1
    8f7e:	00f51a23          	sh	a5,20(a0)
    8f82:	8082                	ret
    8f84:	00f51023          	sh	a5,0(a0)
    8f88:	02c51623          	sh	a2,44(a0)
    8f8c:	02d51423          	sh	a3,40(a0)
    8f90:	4785                	li	a5,1
    8f92:	00f51a23          	sh	a5,20(a0)
    8f96:	8082                	ret
    8f98:	40078793          	addi	a5,a5,1024
    8f9c:	fcf50ce3          	beq	a0,a5,8f74 <TIM_TimeBaseInit+0x98>
    8fa0:	400157b7          	lui	a5,0x40015
    8fa4:	c0078713          	addi	a4,a5,-1024 # 40014c00 <_eusrstack+0x20004c00>
    8fa8:	fce506e3          	beq	a0,a4,8f74 <TIM_TimeBaseInit+0x98>
    8fac:	fcf504e3          	beq	a0,a5,8f74 <TIM_TimeBaseInit+0x98>
    8fb0:	b7c5                	j	8f90 <TIM_TimeBaseInit+0xb4>

00008fb2 <TIM_Cmd>:
    8fb2:	00055783          	lhu	a5,0(a0)
    8fb6:	c591                	beqz	a1,8fc2 <TIM_Cmd+0x10>
    8fb8:	0017e793          	ori	a5,a5,1
    8fbc:	00f51023          	sh	a5,0(a0)
    8fc0:	8082                	ret
    8fc2:	07c2                	slli	a5,a5,0x10
    8fc4:	83c1                	srli	a5,a5,0x10
    8fc6:	9bf9                	andi	a5,a5,-2
    8fc8:	07c2                	slli	a5,a5,0x10
    8fca:	83c1                	srli	a5,a5,0x10
    8fcc:	00f51023          	sh	a5,0(a0)
    8fd0:	8082                	ret

00008fd2 <TIM_ITConfig>:
    8fd2:	00c55783          	lhu	a5,12(a0)
    8fd6:	c609                	beqz	a2,8fe0 <TIM_ITConfig+0xe>
    8fd8:	8ddd                	or	a1,a1,a5
    8fda:	00b51623          	sh	a1,12(a0)
    8fde:	8082                	ret
    8fe0:	fff5c593          	not	a1,a1
    8fe4:	8dfd                	and	a1,a1,a5
    8fe6:	00b51623          	sh	a1,12(a0)
    8fea:	8082                	ret

00008fec <TIM_ARRPreloadConfig>:
    8fec:	00055783          	lhu	a5,0(a0)
    8ff0:	c591                	beqz	a1,8ffc <TIM_ARRPreloadConfig+0x10>
    8ff2:	0807e793          	ori	a5,a5,128
    8ff6:	00f51023          	sh	a5,0(a0)
    8ffa:	8082                	ret
    8ffc:	07c2                	slli	a5,a5,0x10
    8ffe:	83c1                	srli	a5,a5,0x10
    9000:	f7f7f793          	andi	a5,a5,-129
    9004:	07c2                	slli	a5,a5,0x10
    9006:	83c1                	srli	a5,a5,0x10
    9008:	00f51023          	sh	a5,0(a0)
    900c:	8082                	ret

0000900e <TIM_ClearFlag>:
    900e:	fff5c593          	not	a1,a1
    9012:	05c2                	slli	a1,a1,0x10
    9014:	81c1                	srli	a1,a1,0x10
    9016:	00b51823          	sh	a1,16(a0)
    901a:	8082                	ret

0000901c <USART_Init>:
    901c:	bc6f72ef          	jal	t0,3e2 <__riscv_save_0>
    9020:	01055683          	lhu	a3,16(a0)
    9024:	0065d703          	lhu	a4,6(a1)
    9028:	77f5                	lui	a5,0xffffd
    902a:	17fd                	addi	a5,a5,-1
    902c:	8ff5                	and	a5,a5,a3
    902e:	8fd9                	or	a5,a5,a4
    9030:	00c5d703          	lhu	a4,12(a1)
    9034:	00f51823          	sh	a5,16(a0)
    9038:	842a                	mv	s0,a0
    903a:	00c55503          	lhu	a0,12(a0)
    903e:	84ae                	mv	s1,a1
    9040:	77fd                	lui	a5,0xfffff
    9042:	0045d583          	lhu	a1,4(a1)
    9046:	0084d603          	lhu	a2,8(s1)
    904a:	9f378793          	addi	a5,a5,-1549 # ffffe9f3 <_eusrstack+0xdffee9f3>
    904e:	00a4d683          	lhu	a3,10(s1)
    9052:	8fe9                	and	a5,a5,a0
    9054:	8fcd                	or	a5,a5,a1
    9056:	8fd1                	or	a5,a5,a2
    9058:	8fd5                	or	a5,a5,a3
    905a:	00f41623          	sh	a5,12(s0)
    905e:	01445783          	lhu	a5,20(s0)
    9062:	1101                	addi	sp,sp,-32
    9064:	0068                	addi	a0,sp,12
    9066:	07c2                	slli	a5,a5,0x10
    9068:	83c1                	srli	a5,a5,0x10
    906a:	cff7f793          	andi	a5,a5,-769
    906e:	8fd9                	or	a5,a5,a4
    9070:	00f41a23          	sh	a5,20(s0)
    9074:	c41ff0ef          	jal	ra,8cb4 <RCC_GetClocksFreq>
    9078:	400147b7          	lui	a5,0x40014
    907c:	80078793          	addi	a5,a5,-2048 # 40013800 <_eusrstack+0x20003800>
    9080:	08f40d63          	beq	s0,a5,911a <USART_Init+0xfe>
    9084:	4752                	lw	a4,20(sp)
    9086:	00c45683          	lhu	a3,12(s0)
    908a:	00171793          	slli	a5,a4,0x1
    908e:	97ba                	add	a5,a5,a4
    9090:	06c2                	slli	a3,a3,0x10
    9092:	078e                	slli	a5,a5,0x3
    9094:	86c1                	srai	a3,a3,0x10
    9096:	97ba                	add	a5,a5,a4
    9098:	4098                	lw	a4,0(s1)
    909a:	0406c063          	bltz	a3,90da <USART_Init+0xbe>
    909e:	070a                	slli	a4,a4,0x2
    90a0:	02e7d7b3          	divu	a5,a5,a4
    90a4:	06400713          	li	a4,100
    90a8:	00c45603          	lhu	a2,12(s0)
    90ac:	0642                	slli	a2,a2,0x10
    90ae:	8641                	srai	a2,a2,0x10
    90b0:	02e7d6b3          	divu	a3,a5,a4
    90b4:	02e7f7b3          	remu	a5,a5,a4
    90b8:	0692                	slli	a3,a3,0x4
    90ba:	04064063          	bltz	a2,90fa <USART_Init+0xde>
    90be:	0792                	slli	a5,a5,0x4
    90c0:	03278793          	addi	a5,a5,50
    90c4:	02e7d7b3          	divu	a5,a5,a4
    90c8:	8bbd                	andi	a5,a5,15
    90ca:	8fd5                	or	a5,a5,a3
    90cc:	07c2                	slli	a5,a5,0x10
    90ce:	83c1                	srli	a5,a5,0x10
    90d0:	00f41423          	sh	a5,8(s0)
    90d4:	6105                	addi	sp,sp,32
    90d6:	b30f706f          	j	406 <__riscv_restore_0>
    90da:	0706                	slli	a4,a4,0x1
    90dc:	02e7d7b3          	divu	a5,a5,a4
    90e0:	06400713          	li	a4,100
    90e4:	00c45603          	lhu	a2,12(s0)
    90e8:	0642                	slli	a2,a2,0x10
    90ea:	8641                	srai	a2,a2,0x10
    90ec:	02e7d6b3          	divu	a3,a5,a4
    90f0:	02e7f7b3          	remu	a5,a5,a4
    90f4:	0692                	slli	a3,a3,0x4
    90f6:	fc0654e3          	bgez	a2,90be <USART_Init+0xa2>
    90fa:	078e                	slli	a5,a5,0x3
    90fc:	03278793          	addi	a5,a5,50
    9100:	02e7d7b3          	divu	a5,a5,a4
    9104:	0077f713          	andi	a4,a5,7
    9108:	00d767b3          	or	a5,a4,a3
    910c:	07c2                	slli	a5,a5,0x10
    910e:	83c1                	srli	a5,a5,0x10
    9110:	00f41423          	sh	a5,8(s0)
    9114:	6105                	addi	sp,sp,32
    9116:	af0f706f          	j	406 <__riscv_restore_0>
    911a:	4762                	lw	a4,24(sp)
    911c:	b7ad                	j	9086 <USART_Init+0x6a>

0000911e <USART_Cmd>:
    911e:	c981                	beqz	a1,912e <USART_Cmd+0x10>
    9120:	00c55783          	lhu	a5,12(a0)
    9124:	6709                	lui	a4,0x2
    9126:	8fd9                	or	a5,a5,a4
    9128:	00f51623          	sh	a5,12(a0)
    912c:	8082                	ret
    912e:	00c55703          	lhu	a4,12(a0)
    9132:	77f9                	lui	a5,0xffffe
    9134:	17fd                	addi	a5,a5,-1
    9136:	8ff9                	and	a5,a5,a4
    9138:	00f51623          	sh	a5,12(a0)
    913c:	8082                	ret

0000913e <USART_ITConfig>:
    913e:	0ff5f793          	andi	a5,a1,255
    9142:	4705                	li	a4,1
    9144:	8395                	srli	a5,a5,0x5
    9146:	00b715b3          	sll	a1,a4,a1
    914a:	02e78563          	beq	a5,a4,9174 <USART_ITConfig+0x36>
    914e:	4689                	li	a3,2
    9150:	01450713          	addi	a4,a0,20
    9154:	00d78763          	beq	a5,a3,9162 <USART_ITConfig+0x24>
    9158:	431c                	lw	a5,0(a4)
    915a:	ca01                	beqz	a2,916a <USART_ITConfig+0x2c>
    915c:	8ddd                	or	a1,a1,a5
    915e:	c30c                	sw	a1,0(a4)
    9160:	8082                	ret
    9162:	01050713          	addi	a4,a0,16
    9166:	431c                	lw	a5,0(a4)
    9168:	fa75                	bnez	a2,915c <USART_ITConfig+0x1e>
    916a:	fff5c593          	not	a1,a1
    916e:	8dfd                	and	a1,a1,a5
    9170:	c30c                	sw	a1,0(a4)
    9172:	8082                	ret
    9174:	00c50713          	addi	a4,a0,12
    9178:	b7c5                	j	9158 <USART_ITConfig+0x1a>

0000917a <USART_SendData>:
    917a:	1ff5f593          	andi	a1,a1,511
    917e:	00b51223          	sh	a1,4(a0)
    9182:	8082                	ret

00009184 <USART_GetFlagStatus>:
    9184:	00055503          	lhu	a0,0(a0)
    9188:	8d6d                	and	a0,a0,a1
    918a:	00a03533          	snez	a0,a0
    918e:	8082                	ret

00009190 <USART_GetITStatus>:
    9190:	0ff5f793          	andi	a5,a1,255
    9194:	4685                	li	a3,1
    9196:	8395                	srli	a5,a5,0x5
    9198:	00b69733          	sll	a4,a3,a1
    919c:	02d78a63          	beq	a5,a3,91d0 <USART_GetITStatus+0x40>
    91a0:	4689                	li	a3,2
    91a2:	02d78363          	beq	a5,a3,91c8 <USART_GetITStatus+0x38>
    91a6:	01455783          	lhu	a5,20(a0)
    91aa:	8f7d                	and	a4,a4,a5
    91ac:	00055783          	lhu	a5,0(a0)
    91b0:	4501                	li	a0,0
    91b2:	07c2                	slli	a5,a5,0x10
    91b4:	83c1                	srli	a5,a5,0x10
    91b6:	cb01                	beqz	a4,91c6 <USART_GetITStatus+0x36>
    91b8:	4505                	li	a0,1
    91ba:	81a1                	srli	a1,a1,0x8
    91bc:	00b515b3          	sll	a1,a0,a1
    91c0:	8fed                	and	a5,a5,a1
    91c2:	00f03533          	snez	a0,a5
    91c6:	8082                	ret
    91c8:	01055783          	lhu	a5,16(a0)
    91cc:	8f7d                	and	a4,a4,a5
    91ce:	bff9                	j	91ac <USART_GetITStatus+0x1c>
    91d0:	00c55783          	lhu	a5,12(a0)
    91d4:	8f7d                	and	a4,a4,a5
    91d6:	bfd9                	j	91ac <USART_GetITStatus+0x1c>

000091d8 <USART_ClearITPendingBit>:
    91d8:	81a1                	srli	a1,a1,0x8
    91da:	4785                	li	a5,1
    91dc:	00b795b3          	sll	a1,a5,a1
    91e0:	fff5c593          	not	a1,a1
    91e4:	05c2                	slli	a1,a1,0x10
    91e6:	81c1                	srli	a1,a1,0x10
    91e8:	00b51023          	sh	a1,0(a0)
    91ec:	8082                	ret

000091ee <Delay_Init>:
    91ee:	8281a783          	lw	a5,-2008(gp) # 20003350 <SystemCoreClock>
    91f2:	007a1737          	lui	a4,0x7a1
    91f6:	20070713          	addi	a4,a4,512 # 7a1200 <__rt_init_end+0x78f8c0>
    91fa:	02e7d7b3          	divu	a5,a5,a4
    91fe:	3e800713          	li	a4,1000
    9202:	0ff7f793          	andi	a5,a5,255
    9206:	02e78733          	mul	a4,a5,a4
    920a:	92f18f23          	sb	a5,-1730(gp) # 20003466 <p_us>
    920e:	92e19e23          	sh	a4,-1732(gp) # 20003464 <p_ms>
    9212:	8082                	ret

00009214 <Delay_Ms>:
    9214:	e000f7b7          	lui	a5,0xe000f
    9218:	43d8                	lw	a4,4(a5)
    921a:	4681                	li	a3,0
    921c:	9b79                	andi	a4,a4,-2
    921e:	c3d8                	sw	a4,4(a5)
    9220:	93c1d583          	lhu	a1,-1732(gp) # 20003464 <p_ms>
    9224:	e000f737          	lui	a4,0xe000f
    9228:	02a58633          	mul	a2,a1,a0
    922c:	cb90                	sw	a2,16(a5)
    922e:	cbd4                	sw	a3,20(a5)
    9230:	4394                	lw	a3,0(a5)
    9232:	0106e693          	ori	a3,a3,16
    9236:	c394                	sw	a3,0(a5)
    9238:	4394                	lw	a3,0(a5)
    923a:	0216e693          	ori	a3,a3,33
    923e:	c394                	sw	a3,0(a5)
    9240:	435c                	lw	a5,4(a4)
    9242:	8b85                	andi	a5,a5,1
    9244:	dff5                	beqz	a5,9240 <Delay_Ms+0x2c>
    9246:	431c                	lw	a5,0(a4)
    9248:	9bf9                	andi	a5,a5,-2
    924a:	c31c                	sw	a5,0(a4)
    924c:	8082                	ret

0000924e <_write>:
    924e:	97af72ef          	jal	t0,3c8 <__riscv_save_4>
    9252:	89b2                	mv	s3,a2
    9254:	02c05963          	blez	a2,9286 <_write+0x38>
    9258:	40014437          	lui	s0,0x40014
    925c:	84ae                	mv	s1,a1
    925e:	00c58933          	add	s2,a1,a2
    9262:	80040413          	addi	s0,s0,-2048 # 40013800 <_eusrstack+0x20003800>
    9266:	04000593          	li	a1,64
    926a:	8522                	mv	a0,s0
    926c:	f19ff0ef          	jal	ra,9184 <USART_GetFlagStatus>
    9270:	d97d                	beqz	a0,9266 <_write+0x18>
    9272:	0485                	addi	s1,s1,1
    9274:	fff48583          	lb	a1,-1(s1)
    9278:	8522                	mv	a0,s0
    927a:	05c2                	slli	a1,a1,0x10
    927c:	81c1                	srli	a1,a1,0x10
    927e:	efdff0ef          	jal	ra,917a <USART_SendData>
    9282:	fe9912e3          	bne	s2,s1,9266 <_write+0x18>
    9286:	854e                	mv	a0,s3
    9288:	974f706f          	j	3fc <__riscv_restore_4>

0000928c <_sbrk>:
    928c:	83418793          	addi	a5,gp,-1996 # 2000335c <curbrk.5242>
    9290:	4394                	lw	a3,0(a5)
    9292:	20005737          	lui	a4,0x20005
    9296:	42870713          	addi	a4,a4,1064 # 20005428 <_ebss>
    929a:	9536                	add	a0,a0,a3
    929c:	00e56b63          	bltu	a0,a4,92b2 <_sbrk+0x26>
    92a0:	20010737          	lui	a4,0x20010
    92a4:	80070713          	addi	a4,a4,-2048 # 2000f800 <_heap_end>
    92a8:	00a76563          	bltu	a4,a0,92b2 <_sbrk+0x26>
    92ac:	c388                	sw	a0,0(a5)
    92ae:	8536                	mv	a0,a3
    92b0:	8082                	ret
    92b2:	56fd                	li	a3,-1
    92b4:	8536                	mv	a0,a3
    92b6:	8082                	ret

000092b8 <__adddf3>:
    92b8:	00100837          	lui	a6,0x100
    92bc:	1101                	addi	sp,sp,-32
    92be:	187d                	addi	a6,a6,-1
    92c0:	00b87733          	and	a4,a6,a1
    92c4:	ca26                	sw	s1,20(sp)
    92c6:	00d87833          	and	a6,a6,a3
    92ca:	0145d493          	srli	s1,a1,0x14
    92ce:	0146d313          	srli	t1,a3,0x14
    92d2:	00371e13          	slli	t3,a4,0x3
    92d6:	c64e                	sw	s3,12(sp)
    92d8:	01d55713          	srli	a4,a0,0x1d
    92dc:	080e                	slli	a6,a6,0x3
    92de:	01d65793          	srli	a5,a2,0x1d
    92e2:	7ff4f493          	andi	s1,s1,2047
    92e6:	7ff37313          	andi	t1,t1,2047
    92ea:	ce06                	sw	ra,28(sp)
    92ec:	cc22                	sw	s0,24(sp)
    92ee:	c84a                	sw	s2,16(sp)
    92f0:	01f5d993          	srli	s3,a1,0x1f
    92f4:	01f6de93          	srli	t4,a3,0x1f
    92f8:	01c76733          	or	a4,a4,t3
    92fc:	00351f13          	slli	t5,a0,0x3
    9300:	0107e833          	or	a6,a5,a6
    9304:	00361f93          	slli	t6,a2,0x3
    9308:	40648e33          	sub	t3,s1,t1
    930c:	19d98063          	beq	s3,t4,948c <__adddf3+0x1d4>
    9310:	13c05663          	blez	t3,943c <__adddf3+0x184>
    9314:	1c030463          	beqz	t1,94dc <__adddf3+0x224>
    9318:	008006b7          	lui	a3,0x800
    931c:	7ff00793          	li	a5,2047
    9320:	00d86833          	or	a6,a6,a3
    9324:	36f48f63          	beq	s1,a5,96a2 <__adddf3+0x3ea>
    9328:	03800793          	li	a5,56
    932c:	35c7c063          	blt	a5,t3,966c <__adddf3+0x3b4>
    9330:	47fd                	li	a5,31
    9332:	47c7cd63          	blt	a5,t3,97ac <__adddf3+0x4f4>
    9336:	02000513          	li	a0,32
    933a:	41c50533          	sub	a0,a0,t3
    933e:	01cfd7b3          	srl	a5,t6,t3
    9342:	00a816b3          	sll	a3,a6,a0
    9346:	00af9933          	sll	s2,t6,a0
    934a:	8edd                	or	a3,a3,a5
    934c:	01203933          	snez	s2,s2
    9350:	01c857b3          	srl	a5,a6,t3
    9354:	0126e933          	or	s2,a3,s2
    9358:	8f1d                	sub	a4,a4,a5
    935a:	412f0933          	sub	s2,t5,s2
    935e:	012f37b3          	sltu	a5,t5,s2
    9362:	40f70633          	sub	a2,a4,a5
    9366:	00861793          	slli	a5,a2,0x8
    936a:	2407d463          	bgez	a5,95b2 <__adddf3+0x2fa>
    936e:	00800737          	lui	a4,0x800
    9372:	177d                	addi	a4,a4,-1
    9374:	00e67433          	and	s0,a2,a4
    9378:	2c040c63          	beqz	s0,9650 <__adddf3+0x398>
    937c:	8522                	mv	a0,s0
    937e:	705010ef          	jal	ra,b282 <__clzsi2>
    9382:	ff850713          	addi	a4,a0,-8
    9386:	02000793          	li	a5,32
    938a:	8f99                	sub	a5,a5,a4
    938c:	00f957b3          	srl	a5,s2,a5
    9390:	00e41633          	sll	a2,s0,a4
    9394:	8fd1                	or	a5,a5,a2
    9396:	00e91933          	sll	s2,s2,a4
    939a:	2a974163          	blt	a4,s1,963c <__adddf3+0x384>
    939e:	40970533          	sub	a0,a4,s1
    93a2:	00150613          	addi	a2,a0,1
    93a6:	477d                	li	a4,31
    93a8:	38c74d63          	blt	a4,a2,9742 <__adddf3+0x48a>
    93ac:	02000713          	li	a4,32
    93b0:	8f11                	sub	a4,a4,a2
    93b2:	00c956b3          	srl	a3,s2,a2
    93b6:	00e91933          	sll	s2,s2,a4
    93ba:	00e79733          	sll	a4,a5,a4
    93be:	8f55                	or	a4,a4,a3
    93c0:	01203933          	snez	s2,s2
    93c4:	01276933          	or	s2,a4,s2
    93c8:	00c7d633          	srl	a2,a5,a2
    93cc:	4481                	li	s1,0
    93ce:	00797793          	andi	a5,s2,7
    93d2:	cf81                	beqz	a5,93ea <__adddf3+0x132>
    93d4:	00f97713          	andi	a4,s2,15
    93d8:	4791                	li	a5,4
    93da:	00f70863          	beq	a4,a5,93ea <__adddf3+0x132>
    93de:	00490713          	addi	a4,s2,4
    93e2:	01273933          	sltu	s2,a4,s2
    93e6:	964a                	add	a2,a2,s2
    93e8:	893a                	mv	s2,a4
    93ea:	00861793          	slli	a5,a2,0x8
    93ee:	1c07d663          	bgez	a5,95ba <__adddf3+0x302>
    93f2:	00148513          	addi	a0,s1,1
    93f6:	7ff00793          	li	a5,2047
    93fa:	85ce                	mv	a1,s3
    93fc:	20f50463          	beq	a0,a5,9604 <__adddf3+0x34c>
    9400:	ff8007b7          	lui	a5,0xff800
    9404:	17fd                	addi	a5,a5,-1
    9406:	8ff1                	and	a5,a5,a2
    9408:	01d79893          	slli	a7,a5,0x1d
    940c:	00395913          	srli	s2,s2,0x3
    9410:	07a6                	slli	a5,a5,0x9
    9412:	0128e8b3          	or	a7,a7,s2
    9416:	83b1                	srli	a5,a5,0xc
    9418:	7ff57513          	andi	a0,a0,2047
    941c:	00c79693          	slli	a3,a5,0xc
    9420:	0552                	slli	a0,a0,0x14
    9422:	40f2                	lw	ra,28(sp)
    9424:	4462                	lw	s0,24(sp)
    9426:	82b1                	srli	a3,a3,0xc
    9428:	05fe                	slli	a1,a1,0x1f
    942a:	8ec9                	or	a3,a3,a0
    942c:	8ecd                	or	a3,a3,a1
    942e:	44d2                	lw	s1,20(sp)
    9430:	4942                	lw	s2,16(sp)
    9432:	49b2                	lw	s3,12(sp)
    9434:	8546                	mv	a0,a7
    9436:	85b6                	mv	a1,a3
    9438:	6105                	addi	sp,sp,32
    943a:	8082                	ret
    943c:	0a0e1e63          	bnez	t3,94f8 <__adddf3+0x240>
    9440:	00148313          	addi	t1,s1,1
    9444:	7fe37313          	andi	t1,t1,2046
    9448:	22031763          	bnez	t1,9676 <__adddf3+0x3be>
    944c:	01e767b3          	or	a5,a4,t5
    9450:	01f868b3          	or	a7,a6,t6
    9454:	1a049d63          	bnez	s1,960e <__adddf3+0x356>
    9458:	40078763          	beqz	a5,9866 <__adddf3+0x5ae>
    945c:	44088663          	beqz	a7,98a8 <__adddf3+0x5f0>
    9460:	41ff0933          	sub	s2,t5,t6
    9464:	410707b3          	sub	a5,a4,a6
    9468:	012f3633          	sltu	a2,t5,s2
    946c:	40c78633          	sub	a2,a5,a2
    9470:	00861793          	slli	a5,a2,0x8
    9474:	4c07d663          	bgez	a5,9940 <__adddf3+0x688>
    9478:	41ef8933          	sub	s2,t6,t5
    947c:	40e807b3          	sub	a5,a6,a4
    9480:	012fb633          	sltu	a2,t6,s2
    9484:	40c78633          	sub	a2,a5,a2
    9488:	89f6                	mv	s3,t4
    948a:	b791                	j	93ce <__adddf3+0x116>
    948c:	0fc05063          	blez	t3,956c <__adddf3+0x2b4>
    9490:	0c030063          	beqz	t1,9550 <__adddf3+0x298>
    9494:	008006b7          	lui	a3,0x800
    9498:	7ff00793          	li	a5,2047
    949c:	00d86833          	or	a6,a6,a3
    94a0:	3af48a63          	beq	s1,a5,9854 <__adddf3+0x59c>
    94a4:	03800793          	li	a5,56
    94a8:	13c7cb63          	blt	a5,t3,95de <__adddf3+0x326>
    94ac:	47fd                	li	a5,31
    94ae:	35c7df63          	bge	a5,t3,980c <__adddf3+0x554>
    94b2:	fe0e0913          	addi	s2,t3,-32
    94b6:	02000793          	li	a5,32
    94ba:	012856b3          	srl	a3,a6,s2
    94be:	00fe0a63          	beq	t3,a5,94d2 <__adddf3+0x21a>
    94c2:	04000913          	li	s2,64
    94c6:	41c90933          	sub	s2,s2,t3
    94ca:	01281933          	sll	s2,a6,s2
    94ce:	012fefb3          	or	t6,t6,s2
    94d2:	01f03933          	snez	s2,t6
    94d6:	00d96933          	or	s2,s2,a3
    94da:	a231                	j	95e6 <__adddf3+0x32e>
    94dc:	01f867b3          	or	a5,a6,t6
    94e0:	1c078a63          	beqz	a5,96b4 <__adddf3+0x3fc>
    94e4:	fffe0793          	addi	a5,t3,-1
    94e8:	38078c63          	beqz	a5,9880 <__adddf3+0x5c8>
    94ec:	7ff00693          	li	a3,2047
    94f0:	1ade0963          	beq	t3,a3,96a2 <__adddf3+0x3ea>
    94f4:	8e3e                	mv	t3,a5
    94f6:	bd0d                	j	9328 <__adddf3+0x70>
    94f8:	409305b3          	sub	a1,t1,s1
    94fc:	22049163          	bnez	s1,971e <__adddf3+0x466>
    9500:	01e767b3          	or	a5,a4,t5
    9504:	32078763          	beqz	a5,9832 <__adddf3+0x57a>
    9508:	fff58793          	addi	a5,a1,-1
    950c:	44078163          	beqz	a5,994e <__adddf3+0x696>
    9510:	7ff00693          	li	a3,2047
    9514:	20d58c63          	beq	a1,a3,972c <__adddf3+0x474>
    9518:	85be                	mv	a1,a5
    951a:	03800793          	li	a5,56
    951e:	2ab7cc63          	blt	a5,a1,97d6 <__adddf3+0x51e>
    9522:	47fd                	li	a5,31
    9524:	3cb7cf63          	blt	a5,a1,9902 <__adddf3+0x64a>
    9528:	02000793          	li	a5,32
    952c:	8f8d                	sub	a5,a5,a1
    952e:	00f71933          	sll	s2,a4,a5
    9532:	00bf56b3          	srl	a3,t5,a1
    9536:	00ff17b3          	sll	a5,t5,a5
    953a:	00d96933          	or	s2,s2,a3
    953e:	00f037b3          	snez	a5,a5
    9542:	00b75733          	srl	a4,a4,a1
    9546:	00f96933          	or	s2,s2,a5
    954a:	40e80833          	sub	a6,a6,a4
    954e:	ac41                	j	97de <__adddf3+0x526>
    9550:	01f867b3          	or	a5,a6,t6
    9554:	34078063          	beqz	a5,9894 <__adddf3+0x5dc>
    9558:	fffe0793          	addi	a5,t3,-1
    955c:	20078a63          	beqz	a5,9770 <__adddf3+0x4b8>
    9560:	7ff00693          	li	a3,2047
    9564:	2ede0863          	beq	t3,a3,9854 <__adddf3+0x59c>
    9568:	8e3e                	mv	t3,a5
    956a:	bf2d                	j	94a4 <__adddf3+0x1ec>
    956c:	140e1e63          	bnez	t3,96c8 <__adddf3+0x410>
    9570:	00148693          	addi	a3,s1,1
    9574:	7fe6f793          	andi	a5,a3,2046
    9578:	34079163          	bnez	a5,98ba <__adddf3+0x602>
    957c:	01e767b3          	or	a5,a4,t5
    9580:	2c049563          	bnez	s1,984a <__adddf3+0x592>
    9584:	3e078063          	beqz	a5,9964 <__adddf3+0x6ac>
    9588:	01f867b3          	or	a5,a6,t6
    958c:	30078e63          	beqz	a5,98a8 <__adddf3+0x5f0>
    9590:	01ff0933          	add	s2,t5,t6
    9594:	010707b3          	add	a5,a4,a6
    9598:	01e93f33          	sltu	t5,s2,t5
    959c:	01e78633          	add	a2,a5,t5
    95a0:	00861793          	slli	a5,a2,0x8
    95a4:	0007d763          	bgez	a5,95b2 <__adddf3+0x2fa>
    95a8:	ff8007b7          	lui	a5,0xff800
    95ac:	17fd                	addi	a5,a5,-1
    95ae:	8e7d                	and	a2,a2,a5
    95b0:	4485                	li	s1,1
    95b2:	00797793          	andi	a5,s2,7
    95b6:	e0079fe3          	bnez	a5,93d4 <__adddf3+0x11c>
    95ba:	01d61793          	slli	a5,a2,0x1d
    95be:	00395893          	srli	a7,s2,0x3
    95c2:	00f8e8b3          	or	a7,a7,a5
    95c6:	00365793          	srli	a5,a2,0x3
    95ca:	7ff00713          	li	a4,2047
    95ce:	04e48d63          	beq	s1,a4,9628 <__adddf3+0x370>
    95d2:	07b2                	slli	a5,a5,0xc
    95d4:	83b1                	srli	a5,a5,0xc
    95d6:	7ff4f513          	andi	a0,s1,2047
    95da:	85ce                	mv	a1,s3
    95dc:	b581                	j	941c <__adddf3+0x164>
    95de:	01f86933          	or	s2,a6,t6
    95e2:	01203933          	snez	s2,s2
    95e6:	997a                	add	s2,s2,t5
    95e8:	01e937b3          	sltu	a5,s2,t5
    95ec:	00e78633          	add	a2,a5,a4
    95f0:	00861793          	slli	a5,a2,0x8
    95f4:	fa07dfe3          	bgez	a5,95b2 <__adddf3+0x2fa>
    95f8:	0485                	addi	s1,s1,1
    95fa:	7ff00793          	li	a5,2047
    95fe:	18f49663          	bne	s1,a5,978a <__adddf3+0x4d2>
    9602:	85ce                	mv	a1,s3
    9604:	7ff00513          	li	a0,2047
    9608:	4781                	li	a5,0
    960a:	4881                	li	a7,0
    960c:	bd01                	j	941c <__adddf3+0x164>
    960e:	ebc1                	bnez	a5,969e <__adddf3+0x3e6>
    9610:	3a088463          	beqz	a7,99b8 <__adddf3+0x700>
    9614:	00361693          	slli	a3,a2,0x3
    9618:	01d81793          	slli	a5,a6,0x1d
    961c:	828d                	srli	a3,a3,0x3
    961e:	00d7e8b3          	or	a7,a5,a3
    9622:	89f6                	mv	s3,t4
    9624:	00385793          	srli	a5,a6,0x3
    9628:	00f8e7b3          	or	a5,a7,a5
    962c:	dbf9                	beqz	a5,9602 <__adddf3+0x34a>
    962e:	4581                	li	a1,0
    9630:	7ff00513          	li	a0,2047
    9634:	000807b7          	lui	a5,0x80
    9638:	4881                	li	a7,0
    963a:	b3cd                	j	941c <__adddf3+0x164>
    963c:	ff800637          	lui	a2,0xff800
    9640:	167d                	addi	a2,a2,-1
    9642:	8e7d                	and	a2,a2,a5
    9644:	00797793          	andi	a5,s2,7
    9648:	8c99                	sub	s1,s1,a4
    964a:	d80795e3          	bnez	a5,93d4 <__adddf3+0x11c>
    964e:	b7b5                	j	95ba <__adddf3+0x302>
    9650:	854a                	mv	a0,s2
    9652:	431010ef          	jal	ra,b282 <__clzsi2>
    9656:	01850713          	addi	a4,a0,24
    965a:	47fd                	li	a5,31
    965c:	d2e7d5e3          	bge	a5,a4,9386 <__adddf3+0xce>
    9660:	ff850613          	addi	a2,a0,-8
    9664:	00c917b3          	sll	a5,s2,a2
    9668:	4901                	li	s2,0
    966a:	bb05                	j	939a <__adddf3+0xe2>
    966c:	01f86933          	or	s2,a6,t6
    9670:	01203933          	snez	s2,s2
    9674:	b1dd                	j	935a <__adddf3+0xa2>
    9676:	41ff0933          	sub	s2,t5,t6
    967a:	41070633          	sub	a2,a4,a6
    967e:	012f3433          	sltu	s0,t5,s2
    9682:	40860433          	sub	s0,a2,s0
    9686:	00841793          	slli	a5,s0,0x8
    968a:	2407cd63          	bltz	a5,98e4 <__adddf3+0x62c>
    968e:	008968b3          	or	a7,s2,s0
    9692:	ce0893e3          	bnez	a7,9378 <__adddf3+0xc0>
    9696:	4781                	li	a5,0
    9698:	4981                	li	s3,0
    969a:	4481                	li	s1,0
    969c:	bf1d                	j	95d2 <__adddf3+0x31a>
    969e:	f80898e3          	bnez	a7,962e <__adddf3+0x376>
    96a2:	050e                	slli	a0,a0,0x3
    96a4:	01d71793          	slli	a5,a4,0x1d
    96a8:	810d                	srli	a0,a0,0x3
    96aa:	00a7e8b3          	or	a7,a5,a0
    96ae:	00375793          	srli	a5,a4,0x3
    96b2:	bf9d                	j	9628 <__adddf3+0x370>
    96b4:	050e                	slli	a0,a0,0x3
    96b6:	01d71793          	slli	a5,a4,0x1d
    96ba:	810d                	srli	a0,a0,0x3
    96bc:	00a7e8b3          	or	a7,a5,a0
    96c0:	84f2                	mv	s1,t3
    96c2:	00375793          	srli	a5,a4,0x3
    96c6:	b711                	j	95ca <__adddf3+0x312>
    96c8:	40930533          	sub	a0,t1,s1
    96cc:	12048263          	beqz	s1,97f0 <__adddf3+0x538>
    96d0:	008006b7          	lui	a3,0x800
    96d4:	7ff00793          	li	a5,2047
    96d8:	8f55                	or	a4,a4,a3
    96da:	2ef30d63          	beq	t1,a5,99d4 <__adddf3+0x71c>
    96de:	03800793          	li	a5,56
    96e2:	20a7cb63          	blt	a5,a0,98f8 <__adddf3+0x640>
    96e6:	47fd                	li	a5,31
    96e8:	2aa7c363          	blt	a5,a0,998e <__adddf3+0x6d6>
    96ec:	02000793          	li	a5,32
    96f0:	8f89                	sub	a5,a5,a0
    96f2:	00f71933          	sll	s2,a4,a5
    96f6:	00af56b3          	srl	a3,t5,a0
    96fa:	00ff17b3          	sll	a5,t5,a5
    96fe:	00d96933          	or	s2,s2,a3
    9702:	00f037b3          	snez	a5,a5
    9706:	00a75733          	srl	a4,a4,a0
    970a:	00f96933          	or	s2,s2,a5
    970e:	983a                	add	a6,a6,a4
    9710:	997e                	add	s2,s2,t6
    9712:	01f937b3          	sltu	a5,s2,t6
    9716:	01078633          	add	a2,a5,a6
    971a:	849a                	mv	s1,t1
    971c:	bdd1                	j	95f0 <__adddf3+0x338>
    971e:	008006b7          	lui	a3,0x800
    9722:	7ff00793          	li	a5,2047
    9726:	8f55                	or	a4,a4,a3
    9728:	def319e3          	bne	t1,a5,951a <__adddf3+0x262>
    972c:	00361793          	slli	a5,a2,0x3
    9730:	838d                	srli	a5,a5,0x3
    9732:	01d81893          	slli	a7,a6,0x1d
    9736:	0117e8b3          	or	a7,a5,a7
    973a:	89f6                	mv	s3,t4
    973c:	00385793          	srli	a5,a6,0x3
    9740:	b5e5                	j	9628 <__adddf3+0x370>
    9742:	fe150713          	addi	a4,a0,-31
    9746:	02000693          	li	a3,32
    974a:	00e7d733          	srl	a4,a5,a4
    974e:	00d60a63          	beq	a2,a3,9762 <__adddf3+0x4aa>
    9752:	04000693          	li	a3,64
    9756:	40c68633          	sub	a2,a3,a2
    975a:	00c79633          	sll	a2,a5,a2
    975e:	00c96933          	or	s2,s2,a2
    9762:	01203933          	snez	s2,s2
    9766:	00e96933          	or	s2,s2,a4
    976a:	4601                	li	a2,0
    976c:	4481                	li	s1,0
    976e:	b591                	j	95b2 <__adddf3+0x2fa>
    9770:	01ff0933          	add	s2,t5,t6
    9774:	010707b3          	add	a5,a4,a6
    9778:	01e93633          	sltu	a2,s2,t5
    977c:	963e                	add	a2,a2,a5
    977e:	00861793          	slli	a5,a2,0x8
    9782:	4485                	li	s1,1
    9784:	e207d7e3          	bgez	a5,95b2 <__adddf3+0x2fa>
    9788:	4489                	li	s1,2
    978a:	ff8007b7          	lui	a5,0xff800
    978e:	17fd                	addi	a5,a5,-1
    9790:	8ff1                	and	a5,a5,a2
    9792:	00195713          	srli	a4,s2,0x1
    9796:	00197913          	andi	s2,s2,1
    979a:	01276933          	or	s2,a4,s2
    979e:	01f79893          	slli	a7,a5,0x1f
    97a2:	0128e933          	or	s2,a7,s2
    97a6:	0017d613          	srli	a2,a5,0x1
    97aa:	b115                	j	93ce <__adddf3+0x116>
    97ac:	fe0e0913          	addi	s2,t3,-32
    97b0:	02000793          	li	a5,32
    97b4:	012856b3          	srl	a3,a6,s2
    97b8:	00fe0a63          	beq	t3,a5,97cc <__adddf3+0x514>
    97bc:	04000913          	li	s2,64
    97c0:	41c90933          	sub	s2,s2,t3
    97c4:	01281933          	sll	s2,a6,s2
    97c8:	012fefb3          	or	t6,t6,s2
    97cc:	01f03933          	snez	s2,t6
    97d0:	00d96933          	or	s2,s2,a3
    97d4:	b659                	j	935a <__adddf3+0xa2>
    97d6:	01e76933          	or	s2,a4,t5
    97da:	01203933          	snez	s2,s2
    97de:	412f8933          	sub	s2,t6,s2
    97e2:	012fb7b3          	sltu	a5,t6,s2
    97e6:	40f80633          	sub	a2,a6,a5
    97ea:	849a                	mv	s1,t1
    97ec:	89f6                	mv	s3,t4
    97ee:	bea5                	j	9366 <__adddf3+0xae>
    97f0:	01e767b3          	or	a5,a4,t5
    97f4:	18078263          	beqz	a5,9978 <__adddf3+0x6c0>
    97f8:	fff50793          	addi	a5,a0,-1
    97fc:	1c078463          	beqz	a5,99c4 <__adddf3+0x70c>
    9800:	7ff00693          	li	a3,2047
    9804:	12d50463          	beq	a0,a3,992c <__adddf3+0x674>
    9808:	853e                	mv	a0,a5
    980a:	bdd1                	j	96de <__adddf3+0x426>
    980c:	02000793          	li	a5,32
    9810:	41c787b3          	sub	a5,a5,t3
    9814:	00f816b3          	sll	a3,a6,a5
    9818:	00ff9933          	sll	s2,t6,a5
    981c:	01cfd633          	srl	a2,t6,t3
    9820:	8ed1                	or	a3,a3,a2
    9822:	01203933          	snez	s2,s2
    9826:	01c857b3          	srl	a5,a6,t3
    982a:	0126e933          	or	s2,a3,s2
    982e:	973e                	add	a4,a4,a5
    9830:	bb5d                	j	95e6 <__adddf3+0x32e>
    9832:	00361793          	slli	a5,a2,0x3
    9836:	838d                	srli	a5,a5,0x3
    9838:	01d81893          	slli	a7,a6,0x1d
    983c:	0117e8b3          	or	a7,a5,a7
    9840:	84ae                	mv	s1,a1
    9842:	00385793          	srli	a5,a6,0x3
    9846:	89f6                	mv	s3,t4
    9848:	b349                	j	95ca <__adddf3+0x312>
    984a:	c3ed                	beqz	a5,992c <__adddf3+0x674>
    984c:	01f86933          	or	s2,a6,t6
    9850:	dc091fe3          	bnez	s2,962e <__adddf3+0x376>
    9854:	050e                	slli	a0,a0,0x3
    9856:	01d71793          	slli	a5,a4,0x1d
    985a:	810d                	srli	a0,a0,0x3
    985c:	00f568b3          	or	a7,a0,a5
    9860:	00375793          	srli	a5,a4,0x3
    9864:	b3d1                	j	9628 <__adddf3+0x370>
    9866:	0e088163          	beqz	a7,9948 <__adddf3+0x690>
    986a:	00361693          	slli	a3,a2,0x3
    986e:	01d81793          	slli	a5,a6,0x1d
    9872:	828d                	srli	a3,a3,0x3
    9874:	00d7e8b3          	or	a7,a5,a3
    9878:	89f6                	mv	s3,t4
    987a:	00385793          	srli	a5,a6,0x3
    987e:	bb91                	j	95d2 <__adddf3+0x31a>
    9880:	41ff0933          	sub	s2,t5,t6
    9884:	410707b3          	sub	a5,a4,a6
    9888:	012f3f33          	sltu	t5,t5,s2
    988c:	41e78633          	sub	a2,a5,t5
    9890:	4485                	li	s1,1
    9892:	bcd1                	j	9366 <__adddf3+0xae>
    9894:	050e                	slli	a0,a0,0x3
    9896:	01d71793          	slli	a5,a4,0x1d
    989a:	810d                	srli	a0,a0,0x3
    989c:	00f568b3          	or	a7,a0,a5
    98a0:	84f2                	mv	s1,t3
    98a2:	00375793          	srli	a5,a4,0x3
    98a6:	b315                	j	95ca <__adddf3+0x312>
    98a8:	050e                	slli	a0,a0,0x3
    98aa:	01d71793          	slli	a5,a4,0x1d
    98ae:	810d                	srli	a0,a0,0x3
    98b0:	00a7e8b3          	or	a7,a5,a0
    98b4:	00375793          	srli	a5,a4,0x3
    98b8:	bb29                	j	95d2 <__adddf3+0x31a>
    98ba:	7ff00793          	li	a5,2047
    98be:	d4f682e3          	beq	a3,a5,9602 <__adddf3+0x34a>
    98c2:	01ff0933          	add	s2,t5,t6
    98c6:	01e93633          	sltu	a2,s2,t5
    98ca:	010707b3          	add	a5,a4,a6
    98ce:	97b2                	add	a5,a5,a2
    98d0:	01f79893          	slli	a7,a5,0x1f
    98d4:	00195913          	srli	s2,s2,0x1
    98d8:	0128e933          	or	s2,a7,s2
    98dc:	0017d613          	srli	a2,a5,0x1
    98e0:	84b6                	mv	s1,a3
    98e2:	b9c1                	j	95b2 <__adddf3+0x2fa>
    98e4:	41ef8933          	sub	s2,t6,t5
    98e8:	40e80733          	sub	a4,a6,a4
    98ec:	012fb633          	sltu	a2,t6,s2
    98f0:	40c70433          	sub	s0,a4,a2
    98f4:	89f6                	mv	s3,t4
    98f6:	b449                	j	9378 <__adddf3+0xc0>
    98f8:	01e76933          	or	s2,a4,t5
    98fc:	01203933          	snez	s2,s2
    9900:	bd01                	j	9710 <__adddf3+0x458>
    9902:	fe058793          	addi	a5,a1,-32
    9906:	02000693          	li	a3,32
    990a:	00f757b3          	srl	a5,a4,a5
    990e:	00d58a63          	beq	a1,a3,9922 <__adddf3+0x66a>
    9912:	04000693          	li	a3,64
    9916:	40b685b3          	sub	a1,a3,a1
    991a:	00b71733          	sll	a4,a4,a1
    991e:	00ef6f33          	or	t5,t5,a4
    9922:	01e03933          	snez	s2,t5
    9926:	00f96933          	or	s2,s2,a5
    992a:	bd55                	j	97de <__adddf3+0x526>
    992c:	00361793          	slli	a5,a2,0x3
    9930:	838d                	srli	a5,a5,0x3
    9932:	01d81893          	slli	a7,a6,0x1d
    9936:	0117e8b3          	or	a7,a5,a7
    993a:	00385793          	srli	a5,a6,0x3
    993e:	b1ed                	j	9628 <__adddf3+0x370>
    9940:	00c968b3          	or	a7,s2,a2
    9944:	c60897e3          	bnez	a7,95b2 <__adddf3+0x2fa>
    9948:	4781                	li	a5,0
    994a:	4981                	li	s3,0
    994c:	b159                	j	95d2 <__adddf3+0x31a>
    994e:	41ef8933          	sub	s2,t6,t5
    9952:	40e807b3          	sub	a5,a6,a4
    9956:	012fb633          	sltu	a2,t6,s2
    995a:	40c78633          	sub	a2,a5,a2
    995e:	89f6                	mv	s3,t4
    9960:	4485                	li	s1,1
    9962:	b411                	j	9366 <__adddf3+0xae>
    9964:	00361693          	slli	a3,a2,0x3
    9968:	01d81793          	slli	a5,a6,0x1d
    996c:	828d                	srli	a3,a3,0x3
    996e:	00d7e8b3          	or	a7,a5,a3
    9972:	00385793          	srli	a5,a6,0x3
    9976:	b9b1                	j	95d2 <__adddf3+0x31a>
    9978:	00361693          	slli	a3,a2,0x3
    997c:	01d81793          	slli	a5,a6,0x1d
    9980:	828d                	srli	a3,a3,0x3
    9982:	00d7e8b3          	or	a7,a5,a3
    9986:	84aa                	mv	s1,a0
    9988:	00385793          	srli	a5,a6,0x3
    998c:	b93d                	j	95ca <__adddf3+0x312>
    998e:	fe050793          	addi	a5,a0,-32
    9992:	02000693          	li	a3,32
    9996:	00f757b3          	srl	a5,a4,a5
    999a:	00d50a63          	beq	a0,a3,99ae <__adddf3+0x6f6>
    999e:	04000693          	li	a3,64
    99a2:	40a68533          	sub	a0,a3,a0
    99a6:	00a71733          	sll	a4,a4,a0
    99aa:	00ef6f33          	or	t5,t5,a4
    99ae:	01e03933          	snez	s2,t5
    99b2:	00f96933          	or	s2,s2,a5
    99b6:	bba9                	j	9710 <__adddf3+0x458>
    99b8:	4581                	li	a1,0
    99ba:	7ff00513          	li	a0,2047
    99be:	000807b7          	lui	a5,0x80
    99c2:	bca9                	j	941c <__adddf3+0x164>
    99c4:	01ff0933          	add	s2,t5,t6
    99c8:	010707b3          	add	a5,a4,a6
    99cc:	01f93633          	sltu	a2,s2,t6
    99d0:	963e                	add	a2,a2,a5
    99d2:	b375                	j	977e <__adddf3+0x4c6>
    99d4:	00361693          	slli	a3,a2,0x3
    99d8:	01d81793          	slli	a5,a6,0x1d
    99dc:	828d                	srli	a3,a3,0x3
    99de:	00d7e8b3          	or	a7,a5,a3
    99e2:	00385793          	srli	a5,a6,0x3
    99e6:	b189                	j	9628 <__adddf3+0x370>

000099e8 <__gedf2>:
    99e8:	0145d713          	srli	a4,a1,0x14
    99ec:	001007b7          	lui	a5,0x100
    99f0:	17fd                	addi	a5,a5,-1
    99f2:	0146d813          	srli	a6,a3,0x14
    99f6:	7ff77713          	andi	a4,a4,2047
    99fa:	7ff00893          	li	a7,2047
    99fe:	00b7f333          	and	t1,a5,a1
    9a02:	8e2a                	mv	t3,a0
    9a04:	8ff5                	and	a5,a5,a3
    9a06:	81fd                	srli	a1,a1,0x1f
    9a08:	8eb2                	mv	t4,a2
    9a0a:	7ff87813          	andi	a6,a6,2047
    9a0e:	82fd                	srli	a3,a3,0x1f
    9a10:	03170863          	beq	a4,a7,9a40 <__gedf2+0x58>
    9a14:	03180063          	beq	a6,a7,9a34 <__gedf2+0x4c>
    9a18:	eb0d                	bnez	a4,9a4a <__gedf2+0x62>
    9a1a:	00a368b3          	or	a7,t1,a0
    9a1e:	00081463          	bnez	a6,9a26 <__gedf2+0x3e>
    9a22:	8e5d                	or	a2,a2,a5
    9a24:	ca29                	beqz	a2,9a76 <__gedf2+0x8e>
    9a26:	04088563          	beqz	a7,9a70 <__gedf2+0x88>
    9a2a:	02d58863          	beq	a1,a3,9a5a <__gedf2+0x72>
    9a2e:	4505                	li	a0,1
    9a30:	ed95                	bnez	a1,9a6c <__gedf2+0x84>
    9a32:	8082                	ret
    9a34:	00c7e8b3          	or	a7,a5,a2
    9a38:	fe0880e3          	beqz	a7,9a18 <__gedf2+0x30>
    9a3c:	5579                	li	a0,-2
    9a3e:	8082                	ret
    9a40:	00a36533          	or	a0,t1,a0
    9a44:	fd65                	bnez	a0,9a3c <__gedf2+0x54>
    9a46:	02e80c63          	beq	a6,a4,9a7e <__gedf2+0x96>
    9a4a:	00081463          	bnez	a6,9a52 <__gedf2+0x6a>
    9a4e:	8e5d                	or	a2,a2,a5
    9a50:	de79                	beqz	a2,9a2e <__gedf2+0x46>
    9a52:	fcd59ee3          	bne	a1,a3,9a2e <__gedf2+0x46>
    9a56:	fce84ce3          	blt	a6,a4,9a2e <__gedf2+0x46>
    9a5a:	01074863          	blt	a4,a6,9a6a <__gedf2+0x82>
    9a5e:	fc67e8e3          	bltu	a5,t1,9a2e <__gedf2+0x46>
    9a62:	02f30363          	beq	t1,a5,9a88 <__gedf2+0xa0>
    9a66:	00f37f63          	bgeu	t1,a5,9a84 <__gedf2+0x9c>
    9a6a:	e581                	bnez	a1,9a72 <__gedf2+0x8a>
    9a6c:	557d                	li	a0,-1
    9a6e:	8082                	ret
    9a70:	def5                	beqz	a3,9a6c <__gedf2+0x84>
    9a72:	4505                	li	a0,1
    9a74:	8082                	ret
    9a76:	4501                	li	a0,0
    9a78:	fa089be3          	bnez	a7,9a2e <__gedf2+0x46>
    9a7c:	8082                	ret
    9a7e:	8e5d                	or	a2,a2,a5
    9a80:	da69                	beqz	a2,9a52 <__gedf2+0x6a>
    9a82:	bf6d                	j	9a3c <__gedf2+0x54>
    9a84:	4501                	li	a0,0
    9a86:	8082                	ret
    9a88:	fbcee3e3          	bltu	t4,t3,9a2e <__gedf2+0x46>
    9a8c:	4501                	li	a0,0
    9a8e:	fbde72e3          	bgeu	t3,t4,9a32 <__gedf2+0x4a>
    9a92:	f1e5                	bnez	a1,9a72 <__gedf2+0x8a>
    9a94:	bfe1                	j	9a6c <__gedf2+0x84>

00009a96 <__ledf2>:
    9a96:	0145d713          	srli	a4,a1,0x14
    9a9a:	001007b7          	lui	a5,0x100
    9a9e:	17fd                	addi	a5,a5,-1
    9aa0:	0146d813          	srli	a6,a3,0x14
    9aa4:	7ff77713          	andi	a4,a4,2047
    9aa8:	7ff00893          	li	a7,2047
    9aac:	00b7fe33          	and	t3,a5,a1
    9ab0:	8eaa                	mv	t4,a0
    9ab2:	8ff5                	and	a5,a5,a3
    9ab4:	81fd                	srli	a1,a1,0x1f
    9ab6:	8f32                	mv	t5,a2
    9ab8:	7ff87813          	andi	a6,a6,2047
    9abc:	82fd                	srli	a3,a3,0x1f
    9abe:	03170e63          	beq	a4,a7,9afa <__ledf2+0x64>
    9ac2:	01180d63          	beq	a6,a7,9adc <__ledf2+0x46>
    9ac6:	e329                	bnez	a4,9b08 <__ledf2+0x72>
    9ac8:	00ae68b3          	or	a7,t3,a0
    9acc:	00081f63          	bnez	a6,9aea <__ledf2+0x54>
    9ad0:	8e5d                	or	a2,a2,a5
    9ad2:	ee01                	bnez	a2,9aea <__ledf2+0x54>
    9ad4:	4301                	li	t1,0
    9ad6:	04088c63          	beqz	a7,9b2e <__ledf2+0x98>
    9ada:	a821                	j	9af2 <__ledf2+0x5c>
    9adc:	00c7e8b3          	or	a7,a5,a2
    9ae0:	4309                	li	t1,2
    9ae2:	04089663          	bnez	a7,9b2e <__ledf2+0x98>
    9ae6:	d36d                	beqz	a4,9ac8 <__ledf2+0x32>
    9ae8:	a005                	j	9b08 <__ledf2+0x72>
    9aea:	04088463          	beqz	a7,9b32 <__ledf2+0x9c>
    9aee:	02d58563          	beq	a1,a3,9b18 <__ledf2+0x82>
    9af2:	4305                	li	t1,1
    9af4:	cd8d                	beqz	a1,9b2e <__ledf2+0x98>
    9af6:	537d                	li	t1,-1
    9af8:	a81d                	j	9b2e <__ledf2+0x98>
    9afa:	00ae68b3          	or	a7,t3,a0
    9afe:	4309                	li	t1,2
    9b00:	02089763          	bnez	a7,9b2e <__ledf2+0x98>
    9b04:	02e80a63          	beq	a6,a4,9b38 <__ledf2+0xa2>
    9b08:	00081463          	bnez	a6,9b10 <__ledf2+0x7a>
    9b0c:	8e5d                	or	a2,a2,a5
    9b0e:	d275                	beqz	a2,9af2 <__ledf2+0x5c>
    9b10:	fed591e3          	bne	a1,a3,9af2 <__ledf2+0x5c>
    9b14:	fce84fe3          	blt	a6,a4,9af2 <__ledf2+0x5c>
    9b18:	01074963          	blt	a4,a6,9b2a <__ledf2+0x94>
    9b1c:	fdc7ebe3          	bltu	a5,t3,9af2 <__ledf2+0x5c>
    9b20:	00fe0f63          	beq	t3,a5,9b3e <__ledf2+0xa8>
    9b24:	4301                	li	t1,0
    9b26:	00fe7463          	bgeu	t3,a5,9b2e <__ledf2+0x98>
    9b2a:	d5f1                	beqz	a1,9af6 <__ledf2+0x60>
    9b2c:	4305                	li	t1,1
    9b2e:	851a                	mv	a0,t1
    9b30:	8082                	ret
    9b32:	feed                	bnez	a3,9b2c <__ledf2+0x96>
    9b34:	537d                	li	t1,-1
    9b36:	bfe5                	j	9b2e <__ledf2+0x98>
    9b38:	8e5d                	or	a2,a2,a5
    9b3a:	da79                	beqz	a2,9b10 <__ledf2+0x7a>
    9b3c:	bfcd                	j	9b2e <__ledf2+0x98>
    9b3e:	fbdf6ae3          	bltu	t5,t4,9af2 <__ledf2+0x5c>
    9b42:	4301                	li	t1,0
    9b44:	ffeef5e3          	bgeu	t4,t5,9b2e <__ledf2+0x98>
    9b48:	f1f5                	bnez	a1,9b2c <__ledf2+0x96>
    9b4a:	b775                	j	9af6 <__ledf2+0x60>

00009b4c <__subdf3>:
    9b4c:	00100737          	lui	a4,0x100
    9b50:	177d                	addi	a4,a4,-1
    9b52:	1101                	addi	sp,sp,-32
    9b54:	00b77333          	and	t1,a4,a1
    9b58:	0146d893          	srli	a7,a3,0x14
    9b5c:	8f75                	and	a4,a4,a3
    9b5e:	01d65e93          	srli	t4,a2,0x1d
    9b62:	cc22                	sw	s0,24(sp)
    9b64:	ca26                	sw	s1,20(sp)
    9b66:	030e                	slli	t1,t1,0x3
    9b68:	0145d493          	srli	s1,a1,0x14
    9b6c:	01d55793          	srli	a5,a0,0x1d
    9b70:	070e                	slli	a4,a4,0x3
    9b72:	ce06                	sw	ra,28(sp)
    9b74:	c84a                	sw	s2,16(sp)
    9b76:	c64e                	sw	s3,12(sp)
    9b78:	7ff8f893          	andi	a7,a7,2047
    9b7c:	7ff00e13          	li	t3,2047
    9b80:	00eee733          	or	a4,t4,a4
    9b84:	7ff4f493          	andi	s1,s1,2047
    9b88:	01f5d413          	srli	s0,a1,0x1f
    9b8c:	0067e333          	or	t1,a5,t1
    9b90:	00351f13          	slli	t5,a0,0x3
    9b94:	82fd                	srli	a3,a3,0x1f
    9b96:	00361e93          	slli	t4,a2,0x3
    9b9a:	19c88063          	beq	a7,t3,9d1a <__subdf3+0x1ce>
    9b9e:	0016c693          	xori	a3,a3,1
    9ba2:	411485b3          	sub	a1,s1,a7
    9ba6:	12d40563          	beq	s0,a3,9cd0 <__subdf3+0x184>
    9baa:	18b05163          	blez	a1,9d2c <__subdf3+0x1e0>
    9bae:	1a088b63          	beqz	a7,9d64 <__subdf3+0x218>
    9bb2:	008007b7          	lui	a5,0x800
    9bb6:	8f5d                	or	a4,a4,a5
    9bb8:	59c48163          	beq	s1,t3,a13a <__subdf3+0x5ee>
    9bbc:	03800793          	li	a5,56
    9bc0:	34b7c463          	blt	a5,a1,9f08 <__subdf3+0x3bc>
    9bc4:	47fd                	li	a5,31
    9bc6:	48b7c563          	blt	a5,a1,a050 <__subdf3+0x504>
    9bca:	02000793          	li	a5,32
    9bce:	8f8d                	sub	a5,a5,a1
    9bd0:	00bed9b3          	srl	s3,t4,a1
    9bd4:	00f71833          	sll	a6,a4,a5
    9bd8:	00fe9eb3          	sll	t4,t4,a5
    9bdc:	01386833          	or	a6,a6,s3
    9be0:	00b75733          	srl	a4,a4,a1
    9be4:	01d039b3          	snez	s3,t4
    9be8:	01386833          	or	a6,a6,s3
    9bec:	40e30333          	sub	t1,t1,a4
    9bf0:	410f09b3          	sub	s3,t5,a6
    9bf4:	013f37b3          	sltu	a5,t5,s3
    9bf8:	40f30633          	sub	a2,t1,a5
    9bfc:	00861793          	slli	a5,a2,0x8
    9c00:	2407d363          	bgez	a5,9e46 <__subdf3+0x2fa>
    9c04:	00800937          	lui	s2,0x800
    9c08:	197d                	addi	s2,s2,-1
    9c0a:	01267933          	and	s2,a2,s2
    9c0e:	2c090f63          	beqz	s2,9eec <__subdf3+0x3a0>
    9c12:	854a                	mv	a0,s2
    9c14:	66e010ef          	jal	ra,b282 <__clzsi2>
    9c18:	ff850713          	addi	a4,a0,-8
    9c1c:	02000793          	li	a5,32
    9c20:	8f99                	sub	a5,a5,a4
    9c22:	00f9d7b3          	srl	a5,s3,a5
    9c26:	00e91633          	sll	a2,s2,a4
    9c2a:	8fd1                	or	a5,a5,a2
    9c2c:	00e999b3          	sll	s3,s3,a4
    9c30:	2a974463          	blt	a4,s1,9ed8 <__subdf3+0x38c>
    9c34:	8f05                	sub	a4,a4,s1
    9c36:	00170613          	addi	a2,a4,1 # 100001 <__rt_init_end+0xee6c1>
    9c3a:	46fd                	li	a3,31
    9c3c:	3ac6c563          	blt	a3,a2,9fe6 <__subdf3+0x49a>
    9c40:	02000713          	li	a4,32
    9c44:	8f11                	sub	a4,a4,a2
    9c46:	00c9d6b3          	srl	a3,s3,a2
    9c4a:	00e99833          	sll	a6,s3,a4
    9c4e:	00e79733          	sll	a4,a5,a4
    9c52:	8f55                	or	a4,a4,a3
    9c54:	01003833          	snez	a6,a6
    9c58:	010769b3          	or	s3,a4,a6
    9c5c:	00c7d633          	srl	a2,a5,a2
    9c60:	4481                	li	s1,0
    9c62:	0079f793          	andi	a5,s3,7
    9c66:	cf81                	beqz	a5,9c7e <__subdf3+0x132>
    9c68:	00f9f693          	andi	a3,s3,15
    9c6c:	4791                	li	a5,4
    9c6e:	00f68863          	beq	a3,a5,9c7e <__subdf3+0x132>
    9c72:	00498693          	addi	a3,s3,4
    9c76:	0136b833          	sltu	a6,a3,s3
    9c7a:	9642                	add	a2,a2,a6
    9c7c:	89b6                	mv	s3,a3
    9c7e:	00861793          	slli	a5,a2,0x8
    9c82:	1c07d663          	bgez	a5,9e4e <__subdf3+0x302>
    9c86:	00148713          	addi	a4,s1,1
    9c8a:	7ff00793          	li	a5,2047
    9c8e:	8805                	andi	s0,s0,1
    9c90:	20f70663          	beq	a4,a5,9e9c <__subdf3+0x350>
    9c94:	ff8007b7          	lui	a5,0xff800
    9c98:	17fd                	addi	a5,a5,-1
    9c9a:	8ff1                	and	a5,a5,a2
    9c9c:	01d79813          	slli	a6,a5,0x1d
    9ca0:	0039d993          	srli	s3,s3,0x3
    9ca4:	07a6                	slli	a5,a5,0x9
    9ca6:	01386833          	or	a6,a6,s3
    9caa:	83b1                	srli	a5,a5,0xc
    9cac:	7ff77713          	andi	a4,a4,2047
    9cb0:	00c79693          	slli	a3,a5,0xc
    9cb4:	0752                	slli	a4,a4,0x14
    9cb6:	82b1                	srli	a3,a3,0xc
    9cb8:	047e                	slli	s0,s0,0x1f
    9cba:	8ed9                	or	a3,a3,a4
    9cbc:	8ec1                	or	a3,a3,s0
    9cbe:	40f2                	lw	ra,28(sp)
    9cc0:	4462                	lw	s0,24(sp)
    9cc2:	44d2                	lw	s1,20(sp)
    9cc4:	4942                	lw	s2,16(sp)
    9cc6:	49b2                	lw	s3,12(sp)
    9cc8:	8542                	mv	a0,a6
    9cca:	85b6                	mv	a1,a3
    9ccc:	6105                	addi	sp,sp,32
    9cce:	8082                	ret
    9cd0:	0ab05663          	blez	a1,9d7c <__subdf3+0x230>
    9cd4:	12088a63          	beqz	a7,9e08 <__subdf3+0x2bc>
    9cd8:	008007b7          	lui	a5,0x800
    9cdc:	8f5d                	or	a4,a4,a5
    9cde:	2dc48763          	beq	s1,t3,9fac <__subdf3+0x460>
    9ce2:	03800793          	li	a5,56
    9ce6:	18b7c763          	blt	a5,a1,9e74 <__subdf3+0x328>
    9cea:	47fd                	li	a5,31
    9cec:	3cb7d263          	bge	a5,a1,a0b0 <__subdf3+0x564>
    9cf0:	fe058813          	addi	a6,a1,-32
    9cf4:	02000793          	li	a5,32
    9cf8:	010759b3          	srl	s3,a4,a6
    9cfc:	00f58a63          	beq	a1,a5,9d10 <__subdf3+0x1c4>
    9d00:	04000793          	li	a5,64
    9d04:	40b785b3          	sub	a1,a5,a1
    9d08:	00b71733          	sll	a4,a4,a1
    9d0c:	00eeeeb3          	or	t4,t4,a4
    9d10:	01d03833          	snez	a6,t4
    9d14:	01386833          	or	a6,a6,s3
    9d18:	a295                	j	9e7c <__subdf3+0x330>
    9d1a:	01d767b3          	or	a5,a4,t4
    9d1e:	80148593          	addi	a1,s1,-2047
    9d22:	e399                	bnez	a5,9d28 <__subdf3+0x1dc>
    9d24:	0016c693          	xori	a3,a3,1
    9d28:	04d40a63          	beq	s0,a3,9d7c <__subdf3+0x230>
    9d2c:	e1d1                	bnez	a1,9db0 <__subdf3+0x264>
    9d2e:	00148793          	addi	a5,s1,1
    9d32:	7fe7f793          	andi	a5,a5,2046
    9d36:	1e079963          	bnez	a5,9f28 <__subdf3+0x3dc>
    9d3a:	01e367b3          	or	a5,t1,t5
    9d3e:	01d76833          	or	a6,a4,t4
    9d42:	16049263          	bnez	s1,9ea6 <__subdf3+0x35a>
    9d46:	3c078263          	beqz	a5,a10a <__subdf3+0x5be>
    9d4a:	42081663          	bnez	a6,a176 <__subdf3+0x62a>
    9d4e:	00351813          	slli	a6,a0,0x3
    9d52:	01d31693          	slli	a3,t1,0x1d
    9d56:	00385813          	srli	a6,a6,0x3
    9d5a:	0106e833          	or	a6,a3,a6
    9d5e:	00335793          	srli	a5,t1,0x3
    9d62:	a219                	j	9e68 <__subdf3+0x31c>
    9d64:	01d767b3          	or	a5,a4,t4
    9d68:	1a078563          	beqz	a5,9f12 <__subdf3+0x3c6>
    9d6c:	fff58793          	addi	a5,a1,-1
    9d70:	3a078b63          	beqz	a5,a126 <__subdf3+0x5da>
    9d74:	23c58c63          	beq	a1,t3,9fac <__subdf3+0x460>
    9d78:	85be                	mv	a1,a5
    9d7a:	b589                	j	9bbc <__subdf3+0x70>
    9d7c:	1c059963          	bnez	a1,9f4e <__subdf3+0x402>
    9d80:	00148693          	addi	a3,s1,1
    9d84:	7fe6f793          	andi	a5,a3,2046
    9d88:	efc1                	bnez	a5,9e20 <__subdf3+0x2d4>
    9d8a:	01e367b3          	or	a5,t1,t5
    9d8e:	36049063          	bnez	s1,a0ee <__subdf3+0x5a2>
    9d92:	44078d63          	beqz	a5,a1ec <__subdf3+0x6a0>
    9d96:	01d767b3          	or	a5,a4,t4
    9d9a:	46079463          	bnez	a5,a202 <__subdf3+0x6b6>
    9d9e:	050e                	slli	a0,a0,0x3
    9da0:	01d31813          	slli	a6,t1,0x1d
    9da4:	810d                	srli	a0,a0,0x3
    9da6:	00a86833          	or	a6,a6,a0
    9daa:	00335793          	srli	a5,t1,0x3
    9dae:	a86d                	j	9e68 <__subdf3+0x31c>
    9db0:	409885b3          	sub	a1,a7,s1
    9db4:	20049763          	bnez	s1,9fc2 <__subdf3+0x476>
    9db8:	01e367b3          	or	a5,t1,t5
    9dbc:	30078d63          	beqz	a5,a0d6 <__subdf3+0x58a>
    9dc0:	fff58793          	addi	a5,a1,-1
    9dc4:	40078963          	beqz	a5,a1d6 <__subdf3+0x68a>
    9dc8:	7ff00513          	li	a0,2047
    9dcc:	20a58363          	beq	a1,a0,9fd2 <__subdf3+0x486>
    9dd0:	85be                	mv	a1,a5
    9dd2:	03800793          	li	a5,56
    9dd6:	2ab7c263          	blt	a5,a1,a07a <__subdf3+0x52e>
    9dda:	47fd                	li	a5,31
    9ddc:	3cb7c863          	blt	a5,a1,a1ac <__subdf3+0x660>
    9de0:	02000793          	li	a5,32
    9de4:	8f8d                	sub	a5,a5,a1
    9de6:	00f31833          	sll	a6,t1,a5
    9dea:	00bf5633          	srl	a2,t5,a1
    9dee:	00ff17b3          	sll	a5,t5,a5
    9df2:	00c86833          	or	a6,a6,a2
    9df6:	00f039b3          	snez	s3,a5
    9dfa:	00b35333          	srl	t1,t1,a1
    9dfe:	01386833          	or	a6,a6,s3
    9e02:	40670733          	sub	a4,a4,t1
    9e06:	acb5                	j	a082 <__subdf3+0x536>
    9e08:	01d767b3          	or	a5,a4,t4
    9e0c:	10078363          	beqz	a5,9f12 <__subdf3+0x3c6>
    9e10:	fff58793          	addi	a5,a1,-1
    9e14:	1e078f63          	beqz	a5,a012 <__subdf3+0x4c6>
    9e18:	2fc58063          	beq	a1,t3,a0f8 <__subdf3+0x5ac>
    9e1c:	85be                	mv	a1,a5
    9e1e:	b5d1                	j	9ce2 <__subdf3+0x196>
    9e20:	7ff00793          	li	a5,2047
    9e24:	06f68b63          	beq	a3,a5,9e9a <__subdf3+0x34e>
    9e28:	9efa                	add	t4,t4,t5
    9e2a:	01eeb633          	sltu	a2,t4,t5
    9e2e:	00e307b3          	add	a5,t1,a4
    9e32:	97b2                	add	a5,a5,a2
    9e34:	01f79813          	slli	a6,a5,0x1f
    9e38:	001ede93          	srli	t4,t4,0x1
    9e3c:	01d869b3          	or	s3,a6,t4
    9e40:	0017d613          	srli	a2,a5,0x1
    9e44:	84b6                	mv	s1,a3
    9e46:	0079f793          	andi	a5,s3,7
    9e4a:	e0079fe3          	bnez	a5,9c68 <__subdf3+0x11c>
    9e4e:	01d61793          	slli	a5,a2,0x1d
    9e52:	0039d813          	srli	a6,s3,0x3
    9e56:	00f86833          	or	a6,a6,a5
    9e5a:	85a6                	mv	a1,s1
    9e5c:	00365793          	srli	a5,a2,0x3
    9e60:	7ff00713          	li	a4,2047
    9e64:	06e58063          	beq	a1,a4,9ec4 <__subdf3+0x378>
    9e68:	07b2                	slli	a5,a5,0xc
    9e6a:	83b1                	srli	a5,a5,0xc
    9e6c:	7ff5f713          	andi	a4,a1,2047
    9e70:	8805                	andi	s0,s0,1
    9e72:	bd3d                	j	9cb0 <__subdf3+0x164>
    9e74:	01d76733          	or	a4,a4,t4
    9e78:	00e03833          	snez	a6,a4
    9e7c:	01e809b3          	add	s3,a6,t5
    9e80:	01e9b7b3          	sltu	a5,s3,t5
    9e84:	00678633          	add	a2,a5,t1
    9e88:	00861793          	slli	a5,a2,0x8
    9e8c:	fa07dde3          	bgez	a5,9e46 <__subdf3+0x2fa>
    9e90:	0485                	addi	s1,s1,1
    9e92:	7ff00793          	li	a5,2047
    9e96:	18f49c63          	bne	s1,a5,a02e <__subdf3+0x4e2>
    9e9a:	8805                	andi	s0,s0,1
    9e9c:	7ff00713          	li	a4,2047
    9ea0:	4781                	li	a5,0
    9ea2:	4801                	li	a6,0
    9ea4:	b531                	j	9cb0 <__subdf3+0x164>
    9ea6:	10079163          	bnez	a5,9fa8 <__subdf3+0x45c>
    9eaa:	3c080163          	beqz	a6,a26c <__subdf3+0x720>
    9eae:	00361813          	slli	a6,a2,0x3
    9eb2:	01d71793          	slli	a5,a4,0x1d
    9eb6:	00385813          	srli	a6,a6,0x3
    9eba:	00f86833          	or	a6,a6,a5
    9ebe:	8436                	mv	s0,a3
    9ec0:	00375793          	srli	a5,a4,0x3
    9ec4:	00f867b3          	or	a5,a6,a5
    9ec8:	dbe9                	beqz	a5,9e9a <__subdf3+0x34e>
    9eca:	4401                	li	s0,0
    9ecc:	7ff00713          	li	a4,2047
    9ed0:	000807b7          	lui	a5,0x80
    9ed4:	4801                	li	a6,0
    9ed6:	bbe9                	j	9cb0 <__subdf3+0x164>
    9ed8:	ff800637          	lui	a2,0xff800
    9edc:	167d                	addi	a2,a2,-1
    9ede:	8e7d                	and	a2,a2,a5
    9ee0:	0079f793          	andi	a5,s3,7
    9ee4:	8c99                	sub	s1,s1,a4
    9ee6:	d80791e3          	bnez	a5,9c68 <__subdf3+0x11c>
    9eea:	b795                	j	9e4e <__subdf3+0x302>
    9eec:	854e                	mv	a0,s3
    9eee:	394010ef          	jal	ra,b282 <__clzsi2>
    9ef2:	01850713          	addi	a4,a0,24
    9ef6:	47fd                	li	a5,31
    9ef8:	d2e7d2e3          	bge	a5,a4,9c1c <__subdf3+0xd0>
    9efc:	ff850613          	addi	a2,a0,-8
    9f00:	00c997b3          	sll	a5,s3,a2
    9f04:	4981                	li	s3,0
    9f06:	b32d                	j	9c30 <__subdf3+0xe4>
    9f08:	01d76833          	or	a6,a4,t4
    9f0c:	01003833          	snez	a6,a6
    9f10:	b1c5                	j	9bf0 <__subdf3+0xa4>
    9f12:	00351813          	slli	a6,a0,0x3
    9f16:	01d31793          	slli	a5,t1,0x1d
    9f1a:	00385813          	srli	a6,a6,0x3
    9f1e:	00f86833          	or	a6,a6,a5
    9f22:	00335793          	srli	a5,t1,0x3
    9f26:	bf2d                	j	9e60 <__subdf3+0x314>
    9f28:	41df09b3          	sub	s3,t5,t4
    9f2c:	40e30933          	sub	s2,t1,a4
    9f30:	013f3633          	sltu	a2,t5,s3
    9f34:	40c90933          	sub	s2,s2,a2
    9f38:	00891793          	slli	a5,s2,0x8
    9f3c:	2007ca63          	bltz	a5,a150 <__subdf3+0x604>
    9f40:	0129e833          	or	a6,s3,s2
    9f44:	cc0815e3          	bnez	a6,9c0e <__subdf3+0xc2>
    9f48:	4781                	li	a5,0
    9f4a:	4401                	li	s0,0
    9f4c:	bf31                	j	9e68 <__subdf3+0x31c>
    9f4e:	409885b3          	sub	a1,a7,s1
    9f52:	14048163          	beqz	s1,a094 <__subdf3+0x548>
    9f56:	008006b7          	lui	a3,0x800
    9f5a:	7ff00793          	li	a5,2047
    9f5e:	00d36333          	or	t1,t1,a3
    9f62:	20f88163          	beq	a7,a5,a164 <__subdf3+0x618>
    9f66:	03800793          	li	a5,56
    9f6a:	22b7cc63          	blt	a5,a1,a1a2 <__subdf3+0x656>
    9f6e:	47fd                	li	a5,31
    9f70:	2cb7c963          	blt	a5,a1,a242 <__subdf3+0x6f6>
    9f74:	02000793          	li	a5,32
    9f78:	8f8d                	sub	a5,a5,a1
    9f7a:	00f31833          	sll	a6,t1,a5
    9f7e:	00bf56b3          	srl	a3,t5,a1
    9f82:	00ff17b3          	sll	a5,t5,a5
    9f86:	00d86833          	or	a6,a6,a3
    9f8a:	00f039b3          	snez	s3,a5
    9f8e:	00b35333          	srl	t1,t1,a1
    9f92:	01386833          	or	a6,a6,s3
    9f96:	971a                	add	a4,a4,t1
    9f98:	01d809b3          	add	s3,a6,t4
    9f9c:	01d9b7b3          	sltu	a5,s3,t4
    9fa0:	00e78633          	add	a2,a5,a4
    9fa4:	84c6                	mv	s1,a7
    9fa6:	b5cd                	j	9e88 <__subdf3+0x33c>
    9fa8:	f20811e3          	bnez	a6,9eca <__subdf3+0x37e>
    9fac:	00351813          	slli	a6,a0,0x3
    9fb0:	01d31793          	slli	a5,t1,0x1d
    9fb4:	00385813          	srli	a6,a6,0x3
    9fb8:	00f86833          	or	a6,a6,a5
    9fbc:	00335793          	srli	a5,t1,0x3
    9fc0:	b711                	j	9ec4 <__subdf3+0x378>
    9fc2:	00800537          	lui	a0,0x800
    9fc6:	7ff00793          	li	a5,2047
    9fca:	00a36333          	or	t1,t1,a0
    9fce:	e0f892e3          	bne	a7,a5,9dd2 <__subdf3+0x286>
    9fd2:	060e                	slli	a2,a2,0x3
    9fd4:	01d71813          	slli	a6,a4,0x1d
    9fd8:	820d                	srli	a2,a2,0x3
    9fda:	00c86833          	or	a6,a6,a2
    9fde:	00375793          	srli	a5,a4,0x3
    9fe2:	8436                	mv	s0,a3
    9fe4:	b5c5                	j	9ec4 <__subdf3+0x378>
    9fe6:	1705                	addi	a4,a4,-31
    9fe8:	02000693          	li	a3,32
    9fec:	00e7d733          	srl	a4,a5,a4
    9ff0:	00d60a63          	beq	a2,a3,a004 <__subdf3+0x4b8>
    9ff4:	04000693          	li	a3,64
    9ff8:	40c68633          	sub	a2,a3,a2
    9ffc:	00c79633          	sll	a2,a5,a2
    a000:	00c9e9b3          	or	s3,s3,a2
    a004:	01303833          	snez	a6,s3
    a008:	00e869b3          	or	s3,a6,a4
    a00c:	4601                	li	a2,0
    a00e:	4481                	li	s1,0
    a010:	bd1d                	j	9e46 <__subdf3+0x2fa>
    a012:	01df09b3          	add	s3,t5,t4
    a016:	00e307b3          	add	a5,t1,a4
    a01a:	01e9bf33          	sltu	t5,s3,t5
    a01e:	01e78633          	add	a2,a5,t5
    a022:	00861793          	slli	a5,a2,0x8
    a026:	4485                	li	s1,1
    a028:	e007dfe3          	bgez	a5,9e46 <__subdf3+0x2fa>
    a02c:	4489                	li	s1,2
    a02e:	ff8007b7          	lui	a5,0xff800
    a032:	17fd                	addi	a5,a5,-1
    a034:	8ff1                	and	a5,a5,a2
    a036:	0019d713          	srli	a4,s3,0x1
    a03a:	0019f813          	andi	a6,s3,1
    a03e:	01076833          	or	a6,a4,a6
    a042:	01f79993          	slli	s3,a5,0x1f
    a046:	0109e9b3          	or	s3,s3,a6
    a04a:	0017d613          	srli	a2,a5,0x1
    a04e:	b911                	j	9c62 <__subdf3+0x116>
    a050:	fe058813          	addi	a6,a1,-32
    a054:	02000793          	li	a5,32
    a058:	010759b3          	srl	s3,a4,a6
    a05c:	00f58a63          	beq	a1,a5,a070 <__subdf3+0x524>
    a060:	04000793          	li	a5,64
    a064:	40b785b3          	sub	a1,a5,a1
    a068:	00b71733          	sll	a4,a4,a1
    a06c:	00eeeeb3          	or	t4,t4,a4
    a070:	01d03833          	snez	a6,t4
    a074:	01386833          	or	a6,a6,s3
    a078:	bea5                	j	9bf0 <__subdf3+0xa4>
    a07a:	01e36333          	or	t1,t1,t5
    a07e:	00603833          	snez	a6,t1
    a082:	410e89b3          	sub	s3,t4,a6
    a086:	013eb7b3          	sltu	a5,t4,s3
    a08a:	40f70633          	sub	a2,a4,a5
    a08e:	84c6                	mv	s1,a7
    a090:	8436                	mv	s0,a3
    a092:	b6ad                	j	9bfc <__subdf3+0xb0>
    a094:	01e367b3          	or	a5,t1,t5
    a098:	18078763          	beqz	a5,a226 <__subdf3+0x6da>
    a09c:	fff58793          	addi	a5,a1,-1
    a0a0:	1c078c63          	beqz	a5,a278 <__subdf3+0x72c>
    a0a4:	7ff00693          	li	a3,2047
    a0a8:	0ad58e63          	beq	a1,a3,a164 <__subdf3+0x618>
    a0ac:	85be                	mv	a1,a5
    a0ae:	bd65                	j	9f66 <__subdf3+0x41a>
    a0b0:	02000793          	li	a5,32
    a0b4:	8f8d                	sub	a5,a5,a1
    a0b6:	00bed9b3          	srl	s3,t4,a1
    a0ba:	00f71833          	sll	a6,a4,a5
    a0be:	00fe9eb3          	sll	t4,t4,a5
    a0c2:	01386833          	or	a6,a6,s3
    a0c6:	00b75733          	srl	a4,a4,a1
    a0ca:	01d039b3          	snez	s3,t4
    a0ce:	01386833          	or	a6,a6,s3
    a0d2:	933a                	add	t1,t1,a4
    a0d4:	b365                	j	9e7c <__subdf3+0x330>
    a0d6:	00361813          	slli	a6,a2,0x3
    a0da:	01d71793          	slli	a5,a4,0x1d
    a0de:	00385813          	srli	a6,a6,0x3
    a0e2:	0107e833          	or	a6,a5,a6
    a0e6:	8436                	mv	s0,a3
    a0e8:	00375793          	srli	a5,a4,0x3
    a0ec:	bb95                	j	9e60 <__subdf3+0x314>
    a0ee:	cbbd                	beqz	a5,a164 <__subdf3+0x618>
    a0f0:	01d76733          	or	a4,a4,t4
    a0f4:	dc071be3          	bnez	a4,9eca <__subdf3+0x37e>
    a0f8:	050e                	slli	a0,a0,0x3
    a0fa:	01d31813          	slli	a6,t1,0x1d
    a0fe:	810d                	srli	a0,a0,0x3
    a100:	00a86833          	or	a6,a6,a0
    a104:	00335793          	srli	a5,t1,0x3
    a108:	bb75                	j	9ec4 <__subdf3+0x378>
    a10a:	e2080fe3          	beqz	a6,9f48 <__subdf3+0x3fc>
    a10e:	00361813          	slli	a6,a2,0x3
    a112:	01d71793          	slli	a5,a4,0x1d
    a116:	00385813          	srli	a6,a6,0x3
    a11a:	00f86833          	or	a6,a6,a5
    a11e:	8436                	mv	s0,a3
    a120:	00375793          	srli	a5,a4,0x3
    a124:	b391                	j	9e68 <__subdf3+0x31c>
    a126:	41df09b3          	sub	s3,t5,t4
    a12a:	40e307b3          	sub	a5,t1,a4
    a12e:	013f3f33          	sltu	t5,t5,s3
    a132:	41e78633          	sub	a2,a5,t5
    a136:	4485                	li	s1,1
    a138:	b4d1                	j	9bfc <__subdf3+0xb0>
    a13a:	00351813          	slli	a6,a0,0x3
    a13e:	01d31693          	slli	a3,t1,0x1d
    a142:	00385813          	srli	a6,a6,0x3
    a146:	0106e833          	or	a6,a3,a6
    a14a:	00335793          	srli	a5,t1,0x3
    a14e:	bb9d                	j	9ec4 <__subdf3+0x378>
    a150:	41ee89b3          	sub	s3,t4,t5
    a154:	40670633          	sub	a2,a4,t1
    a158:	013eb933          	sltu	s2,t4,s3
    a15c:	41260933          	sub	s2,a2,s2
    a160:	8436                	mv	s0,a3
    a162:	b475                	j	9c0e <__subdf3+0xc2>
    a164:	060e                	slli	a2,a2,0x3
    a166:	01d71813          	slli	a6,a4,0x1d
    a16a:	820d                	srli	a2,a2,0x3
    a16c:	00c86833          	or	a6,a6,a2
    a170:	00375793          	srli	a5,a4,0x3
    a174:	bb81                	j	9ec4 <__subdf3+0x378>
    a176:	41df09b3          	sub	s3,t5,t4
    a17a:	40e307b3          	sub	a5,t1,a4
    a17e:	013f3633          	sltu	a2,t5,s3
    a182:	40c78633          	sub	a2,a5,a2
    a186:	00861793          	slli	a5,a2,0x8
    a18a:	0a07d763          	bgez	a5,a238 <__subdf3+0x6ec>
    a18e:	41ee89b3          	sub	s3,t4,t5
    a192:	406707b3          	sub	a5,a4,t1
    a196:	013ebeb3          	sltu	t4,t4,s3
    a19a:	41d78633          	sub	a2,a5,t4
    a19e:	8436                	mv	s0,a3
    a1a0:	b4c9                	j	9c62 <__subdf3+0x116>
    a1a2:	01e36333          	or	t1,t1,t5
    a1a6:	00603833          	snez	a6,t1
    a1aa:	b3fd                	j	9f98 <__subdf3+0x44c>
    a1ac:	fe058813          	addi	a6,a1,-32
    a1b0:	02000793          	li	a5,32
    a1b4:	010359b3          	srl	s3,t1,a6
    a1b8:	00f58a63          	beq	a1,a5,a1cc <__subdf3+0x680>
    a1bc:	04000793          	li	a5,64
    a1c0:	40b785b3          	sub	a1,a5,a1
    a1c4:	00b31333          	sll	t1,t1,a1
    a1c8:	006f6f33          	or	t5,t5,t1
    a1cc:	01e03833          	snez	a6,t5
    a1d0:	01386833          	or	a6,a6,s3
    a1d4:	b57d                	j	a082 <__subdf3+0x536>
    a1d6:	41ee89b3          	sub	s3,t4,t5
    a1da:	406707b3          	sub	a5,a4,t1
    a1de:	013ebeb3          	sltu	t4,t4,s3
    a1e2:	41d78633          	sub	a2,a5,t4
    a1e6:	8436                	mv	s0,a3
    a1e8:	4485                	li	s1,1
    a1ea:	bc09                	j	9bfc <__subdf3+0xb0>
    a1ec:	00361813          	slli	a6,a2,0x3
    a1f0:	01d71793          	slli	a5,a4,0x1d
    a1f4:	00385813          	srli	a6,a6,0x3
    a1f8:	00f86833          	or	a6,a6,a5
    a1fc:	00375793          	srli	a5,a4,0x3
    a200:	b1a5                	j	9e68 <__subdf3+0x31c>
    a202:	01df09b3          	add	s3,t5,t4
    a206:	00e307b3          	add	a5,t1,a4
    a20a:	01e9bf33          	sltu	t5,s3,t5
    a20e:	01e78633          	add	a2,a5,t5
    a212:	00861793          	slli	a5,a2,0x8
    a216:	c207d8e3          	bgez	a5,9e46 <__subdf3+0x2fa>
    a21a:	ff8007b7          	lui	a5,0xff800
    a21e:	17fd                	addi	a5,a5,-1
    a220:	8e7d                	and	a2,a2,a5
    a222:	4485                	li	s1,1
    a224:	b10d                	j	9e46 <__subdf3+0x2fa>
    a226:	060e                	slli	a2,a2,0x3
    a228:	01d71813          	slli	a6,a4,0x1d
    a22c:	820d                	srli	a2,a2,0x3
    a22e:	00c86833          	or	a6,a6,a2
    a232:	00375793          	srli	a5,a4,0x3
    a236:	b12d                	j	9e60 <__subdf3+0x314>
    a238:	00c9e833          	or	a6,s3,a2
    a23c:	d00806e3          	beqz	a6,9f48 <__subdf3+0x3fc>
    a240:	b119                	j	9e46 <__subdf3+0x2fa>
    a242:	fe058813          	addi	a6,a1,-32
    a246:	02000793          	li	a5,32
    a24a:	010359b3          	srl	s3,t1,a6
    a24e:	00f58a63          	beq	a1,a5,a262 <__subdf3+0x716>
    a252:	04000793          	li	a5,64
    a256:	40b785b3          	sub	a1,a5,a1
    a25a:	00b31333          	sll	t1,t1,a1
    a25e:	006f6f33          	or	t5,t5,t1
    a262:	01e03833          	snez	a6,t5
    a266:	01386833          	or	a6,a6,s3
    a26a:	b33d                	j	9f98 <__subdf3+0x44c>
    a26c:	4401                	li	s0,0
    a26e:	7ff00713          	li	a4,2047
    a272:	000807b7          	lui	a5,0x80
    a276:	bc2d                	j	9cb0 <__subdf3+0x164>
    a278:	01df09b3          	add	s3,t5,t4
    a27c:	00e307b3          	add	a5,t1,a4
    a280:	01d9beb3          	sltu	t4,s3,t4
    a284:	01d78633          	add	a2,a5,t4
    a288:	bb69                	j	a022 <__subdf3+0x4d6>

0000a28a <__addsf3>:
    a28a:	1141                	addi	sp,sp,-16
    a28c:	00800737          	lui	a4,0x800
    a290:	177d                	addi	a4,a4,-1
    a292:	0175d813          	srli	a6,a1,0x17
    a296:	c226                	sw	s1,4(sp)
    a298:	01755493          	srli	s1,a0,0x17
    a29c:	00a77333          	and	t1,a4,a0
    a2a0:	0ff4f493          	andi	s1,s1,255
    a2a4:	00b776b3          	and	a3,a4,a1
    a2a8:	c04a                	sw	s2,0(sp)
    a2aa:	0ff87813          	andi	a6,a6,255
    a2ae:	01f55913          	srli	s2,a0,0x1f
    a2b2:	c606                	sw	ra,12(sp)
    a2b4:	c422                	sw	s0,8(sp)
    a2b6:	81fd                	srli	a1,a1,0x1f
    a2b8:	879a                	mv	a5,t1
    a2ba:	8526                	mv	a0,s1
    a2bc:	864a                	mv	a2,s2
    a2be:	00331e13          	slli	t3,t1,0x3
    a2c2:	00369e93          	slli	t4,a3,0x3
    a2c6:	410488b3          	sub	a7,s1,a6
    a2ca:	0eb90a63          	beq	s2,a1,a3be <__addsf3+0x134>
    a2ce:	0d105063          	blez	a7,a38e <__addsf3+0x104>
    a2d2:	14080463          	beqz	a6,a41a <__addsf3+0x190>
    a2d6:	0ff00793          	li	a5,255
    a2da:	14f48b63          	beq	s1,a5,a430 <__addsf3+0x1a6>
    a2de:	040007b7          	lui	a5,0x4000
    a2e2:	00feeeb3          	or	t4,t4,a5
    a2e6:	47ed                	li	a5,27
    a2e8:	2917c163          	blt	a5,a7,a56a <__addsf3+0x2e0>
    a2ec:	02000793          	li	a5,32
    a2f0:	411787b3          	sub	a5,a5,a7
    a2f4:	00fe97b3          	sll	a5,t4,a5
    a2f8:	011ed8b3          	srl	a7,t4,a7
    a2fc:	00f037b3          	snez	a5,a5
    a300:	00f8e7b3          	or	a5,a7,a5
    a304:	40fe07b3          	sub	a5,t3,a5
    a308:	00579713          	slli	a4,a5,0x5
    a30c:	18075e63          	bgez	a4,a4a8 <__addsf3+0x21e>
    a310:	04000437          	lui	s0,0x4000
    a314:	147d                	addi	s0,s0,-1
    a316:	8c7d                	and	s0,s0,a5
    a318:	8522                	mv	a0,s0
    a31a:	769000ef          	jal	ra,b282 <__clzsi2>
    a31e:	156d                	addi	a0,a0,-5
    a320:	00a417b3          	sll	a5,s0,a0
    a324:	1a954863          	blt	a0,s1,a4d4 <__addsf3+0x24a>
    a328:	8d05                	sub	a0,a0,s1
    a32a:	00150413          	addi	s0,a0,1 # 800001 <__rt_init_end+0x7ee6c1>
    a32e:	02000713          	li	a4,32
    a332:	8f01                	sub	a4,a4,s0
    a334:	00e79733          	sll	a4,a5,a4
    a338:	00e03733          	snez	a4,a4
    a33c:	0087d7b3          	srl	a5,a5,s0
    a340:	8fd9                	or	a5,a5,a4
    a342:	4481                	li	s1,0
    a344:	0077f713          	andi	a4,a5,7
    a348:	c719                	beqz	a4,a356 <__addsf3+0xcc>
    a34a:	00f7f713          	andi	a4,a5,15
    a34e:	4691                	li	a3,4
    a350:	00d70363          	beq	a4,a3,a356 <__addsf3+0xcc>
    a354:	0791                	addi	a5,a5,4
    a356:	00579713          	slli	a4,a5,0x5
    a35a:	14075b63          	bgez	a4,a4b0 <__addsf3+0x226>
    a35e:	0485                	addi	s1,s1,1
    a360:	0ff00713          	li	a4,255
    a364:	864a                	mv	a2,s2
    a366:	16e48363          	beq	s1,a4,a4cc <__addsf3+0x242>
    a36a:	079a                	slli	a5,a5,0x6
    a36c:	83a5                	srli	a5,a5,0x9
    a36e:	0ff4f513          	andi	a0,s1,255
    a372:	40b2                	lw	ra,12(sp)
    a374:	4422                	lw	s0,8(sp)
    a376:	07a6                	slli	a5,a5,0x9
    a378:	01751493          	slli	s1,a0,0x17
    a37c:	0097d513          	srli	a0,a5,0x9
    a380:	8d45                	or	a0,a0,s1
    a382:	067e                	slli	a2,a2,0x1f
    a384:	4492                	lw	s1,4(sp)
    a386:	4902                	lw	s2,0(sp)
    a388:	8d51                	or	a0,a0,a2
    a38a:	0141                	addi	sp,sp,16
    a38c:	8082                	ret
    a38e:	0a089963          	bnez	a7,a440 <__addsf3+0x1b6>
    a392:	00148713          	addi	a4,s1,1
    a396:	0fe77713          	andi	a4,a4,254
    a39a:	14071763          	bnez	a4,a4e8 <__addsf3+0x25e>
    a39e:	22049063          	bnez	s1,a5be <__addsf3+0x334>
    a3a2:	1e0e0d63          	beqz	t3,a59c <__addsf3+0x312>
    a3a6:	fc0e86e3          	beqz	t4,a372 <__addsf3+0xe8>
    a3aa:	41de07b3          	sub	a5,t3,t4
    a3ae:	00579713          	slli	a4,a5,0x5
    a3b2:	22075063          	bgez	a4,a5d2 <__addsf3+0x348>
    a3b6:	41ce87b3          	sub	a5,t4,t3
    a3ba:	892e                	mv	s2,a1
    a3bc:	b761                	j	a344 <__addsf3+0xba>
    a3be:	0b105c63          	blez	a7,a476 <__addsf3+0x1ec>
    a3c2:	08080e63          	beqz	a6,a45e <__addsf3+0x1d4>
    a3c6:	0ff00793          	li	a5,255
    a3ca:	06f48363          	beq	s1,a5,a430 <__addsf3+0x1a6>
    a3ce:	040007b7          	lui	a5,0x4000
    a3d2:	00feeeb3          	or	t4,t4,a5
    a3d6:	47ed                	li	a5,27
    a3d8:	1f17c963          	blt	a5,a7,a5ca <__addsf3+0x340>
    a3dc:	02000793          	li	a5,32
    a3e0:	411787b3          	sub	a5,a5,a7
    a3e4:	00fe97b3          	sll	a5,t4,a5
    a3e8:	011ed8b3          	srl	a7,t4,a7
    a3ec:	00f037b3          	snez	a5,a5
    a3f0:	00f8e7b3          	or	a5,a7,a5
    a3f4:	97f2                	add	a5,a5,t3
    a3f6:	00579713          	slli	a4,a5,0x5
    a3fa:	0a075763          	bgez	a4,a4a8 <__addsf3+0x21e>
    a3fe:	0485                	addi	s1,s1,1
    a400:	0ff00713          	li	a4,255
    a404:	0ce48463          	beq	s1,a4,a4cc <__addsf3+0x242>
    a408:	7e0006b7          	lui	a3,0x7e000
    a40c:	0017d713          	srli	a4,a5,0x1
    a410:	16fd                	addi	a3,a3,-1
    a412:	8b85                	andi	a5,a5,1
    a414:	8f75                	and	a4,a4,a3
    a416:	8fd9                	or	a5,a5,a4
    a418:	b735                	j	a344 <__addsf3+0xba>
    a41a:	080e8d63          	beqz	t4,a4b4 <__addsf3+0x22a>
    a41e:	18fd                	addi	a7,a7,-1
    a420:	41de07b3          	sub	a5,t3,t4
    a424:	ee0882e3          	beqz	a7,a308 <__addsf3+0x7e>
    a428:	0ff00793          	li	a5,255
    a42c:	eaf49de3          	bne	s1,a5,a2e6 <__addsf3+0x5c>
    a430:	08030d63          	beqz	t1,a4ca <__addsf3+0x240>
    a434:	4601                	li	a2,0
    a436:	0ff00513          	li	a0,255
    a43a:	004007b7          	lui	a5,0x400
    a43e:	bf15                	j	a372 <__addsf3+0xe8>
    a440:	40980733          	sub	a4,a6,s1
    a444:	e8ed                	bnez	s1,a536 <__addsf3+0x2ac>
    a446:	140e0263          	beqz	t3,a58a <__addsf3+0x300>
    a44a:	177d                	addi	a4,a4,-1
    a44c:	18070863          	beqz	a4,a5dc <__addsf3+0x352>
    a450:	0ff00793          	li	a5,255
    a454:	0ef81963          	bne	a6,a5,a546 <__addsf3+0x2bc>
    a458:	892e                	mv	s2,a1
    a45a:	8336                	mv	t1,a3
    a45c:	bfd1                	j	a430 <__addsf3+0x1a6>
    a45e:	040e8b63          	beqz	t4,a4b4 <__addsf3+0x22a>
    a462:	18fd                	addi	a7,a7,-1
    a464:	01de07b3          	add	a5,t3,t4
    a468:	f80887e3          	beqz	a7,a3f6 <__addsf3+0x16c>
    a46c:	0ff00793          	li	a5,255
    a470:	f6f493e3          	bne	s1,a5,a3d6 <__addsf3+0x14c>
    a474:	bf75                	j	a430 <__addsf3+0x1a6>
    a476:	08089563          	bnez	a7,a500 <__addsf3+0x276>
    a47a:	0485                	addi	s1,s1,1
    a47c:	0fe4f713          	andi	a4,s1,254
    a480:	12071363          	bnez	a4,a5a6 <__addsf3+0x31c>
    a484:	10051763          	bnez	a0,a592 <__addsf3+0x308>
    a488:	140e0f63          	beqz	t3,a5e6 <__addsf3+0x35c>
    a48c:	ee0e83e3          	beqz	t4,a372 <__addsf3+0xe8>
    a490:	01de07b3          	add	a5,t3,t4
    a494:	00579713          	slli	a4,a5,0x5
    a498:	4481                	li	s1,0
    a49a:	00075763          	bgez	a4,a4a8 <__addsf3+0x21e>
    a49e:	fc000737          	lui	a4,0xfc000
    a4a2:	177d                	addi	a4,a4,-1
    a4a4:	8ff9                	and	a5,a5,a4
    a4a6:	4485                	li	s1,1
    a4a8:	0077f713          	andi	a4,a5,7
    a4ac:	e8071fe3          	bnez	a4,a34a <__addsf3+0xc0>
    a4b0:	0037d313          	srli	t1,a5,0x3
    a4b4:	0ff00793          	li	a5,255
    a4b8:	f6f48ce3          	beq	s1,a5,a430 <__addsf3+0x1a6>
    a4bc:	00931793          	slli	a5,t1,0x9
    a4c0:	83a5                	srli	a5,a5,0x9
    a4c2:	0ff4f513          	andi	a0,s1,255
    a4c6:	864a                	mv	a2,s2
    a4c8:	b56d                	j	a372 <__addsf3+0xe8>
    a4ca:	864a                	mv	a2,s2
    a4cc:	0ff00513          	li	a0,255
    a4d0:	4781                	li	a5,0
    a4d2:	b545                	j	a372 <__addsf3+0xe8>
    a4d4:	fc000737          	lui	a4,0xfc000
    a4d8:	177d                	addi	a4,a4,-1
    a4da:	8ff9                	and	a5,a5,a4
    a4dc:	0077f713          	andi	a4,a5,7
    a4e0:	8c89                	sub	s1,s1,a0
    a4e2:	e60714e3          	bnez	a4,a34a <__addsf3+0xc0>
    a4e6:	b7e9                	j	a4b0 <__addsf3+0x226>
    a4e8:	41de0433          	sub	s0,t3,t4
    a4ec:	00541793          	slli	a5,s0,0x5
    a4f0:	0c07c363          	bltz	a5,a5b6 <__addsf3+0x32c>
    a4f4:	e20412e3          	bnez	s0,a318 <__addsf3+0x8e>
    a4f8:	4601                	li	a2,0
    a4fa:	4501                	li	a0,0
    a4fc:	4781                	li	a5,0
    a4fe:	bd95                	j	a372 <__addsf3+0xe8>
    a500:	40980733          	sub	a4,a6,s1
    a504:	c4ad                	beqz	s1,a56e <__addsf3+0x2e4>
    a506:	0ff00793          	li	a5,255
    a50a:	f4f808e3          	beq	a6,a5,a45a <__addsf3+0x1d0>
    a50e:	040007b7          	lui	a5,0x4000
    a512:	00fe6e33          	or	t3,t3,a5
    a516:	47ed                	li	a5,27
    a518:	0ce7cc63          	blt	a5,a4,a5f0 <__addsf3+0x366>
    a51c:	02000793          	li	a5,32
    a520:	8f99                	sub	a5,a5,a4
    a522:	00fe17b3          	sll	a5,t3,a5
    a526:	00ee5733          	srl	a4,t3,a4
    a52a:	00f037b3          	snez	a5,a5
    a52e:	8fd9                	or	a5,a5,a4
    a530:	97f6                	add	a5,a5,t4
    a532:	84c2                	mv	s1,a6
    a534:	b5c9                	j	a3f6 <__addsf3+0x16c>
    a536:	0ff00793          	li	a5,255
    a53a:	f0f80fe3          	beq	a6,a5,a458 <__addsf3+0x1ce>
    a53e:	040007b7          	lui	a5,0x4000
    a542:	00fe6e33          	or	t3,t3,a5
    a546:	47ed                	li	a5,27
    a548:	08e7c363          	blt	a5,a4,a5ce <__addsf3+0x344>
    a54c:	02000693          	li	a3,32
    a550:	8e99                	sub	a3,a3,a4
    a552:	00de16b3          	sll	a3,t3,a3
    a556:	00ee57b3          	srl	a5,t3,a4
    a55a:	00d03733          	snez	a4,a3
    a55e:	8fd9                	or	a5,a5,a4
    a560:	40fe87b3          	sub	a5,t4,a5
    a564:	84c2                	mv	s1,a6
    a566:	892e                	mv	s2,a1
    a568:	b345                	j	a308 <__addsf3+0x7e>
    a56a:	4785                	li	a5,1
    a56c:	bb61                	j	a304 <__addsf3+0x7a>
    a56e:	060e0e63          	beqz	t3,a5ea <__addsf3+0x360>
    a572:	177d                	addi	a4,a4,-1
    a574:	01de07b3          	add	a5,t3,t4
    a578:	84c2                	mv	s1,a6
    a57a:	e6070ee3          	beqz	a4,a3f6 <__addsf3+0x16c>
    a57e:	0ff00793          	li	a5,255
    a582:	f8f81ae3          	bne	a6,a5,a516 <__addsf3+0x28c>
    a586:	8336                	mv	t1,a3
    a588:	b565                	j	a430 <__addsf3+0x1a6>
    a58a:	8336                	mv	t1,a3
    a58c:	84c2                	mv	s1,a6
    a58e:	892e                	mv	s2,a1
    a590:	b715                	j	a4b4 <__addsf3+0x22a>
    a592:	ec0e04e3          	beqz	t3,a45a <__addsf3+0x1d0>
    a596:	e80e8de3          	beqz	t4,a430 <__addsf3+0x1a6>
    a59a:	bd69                	j	a434 <__addsf3+0x1aa>
    a59c:	020e8d63          	beqz	t4,a5d6 <__addsf3+0x34c>
    a5a0:	862e                	mv	a2,a1
    a5a2:	87b6                	mv	a5,a3
    a5a4:	b3f9                	j	a372 <__addsf3+0xe8>
    a5a6:	0ff00793          	li	a5,255
    a5aa:	f2f481e3          	beq	s1,a5,a4cc <__addsf3+0x242>
    a5ae:	01de07b3          	add	a5,t3,t4
    a5b2:	8385                	srli	a5,a5,0x1
    a5b4:	bdd5                	j	a4a8 <__addsf3+0x21e>
    a5b6:	41ce8433          	sub	s0,t4,t3
    a5ba:	892e                	mv	s2,a1
    a5bc:	bbb1                	j	a318 <__addsf3+0x8e>
    a5be:	fc0e1ce3          	bnez	t3,a596 <__addsf3+0x30c>
    a5c2:	e60e89e3          	beqz	t4,a434 <__addsf3+0x1aa>
    a5c6:	892e                	mv	s2,a1
    a5c8:	bd49                	j	a45a <__addsf3+0x1d0>
    a5ca:	4785                	li	a5,1
    a5cc:	b525                	j	a3f4 <__addsf3+0x16a>
    a5ce:	4785                	li	a5,1
    a5d0:	bf41                	j	a560 <__addsf3+0x2d6>
    a5d2:	ec079be3          	bnez	a5,a4a8 <__addsf3+0x21e>
    a5d6:	4601                	li	a2,0
    a5d8:	4781                	li	a5,0
    a5da:	bb61                	j	a372 <__addsf3+0xe8>
    a5dc:	41ce87b3          	sub	a5,t4,t3
    a5e0:	84c2                	mv	s1,a6
    a5e2:	892e                	mv	s2,a1
    a5e4:	b315                	j	a308 <__addsf3+0x7e>
    a5e6:	87b6                	mv	a5,a3
    a5e8:	b369                	j	a372 <__addsf3+0xe8>
    a5ea:	8336                	mv	t1,a3
    a5ec:	84c2                	mv	s1,a6
    a5ee:	b5d9                	j	a4b4 <__addsf3+0x22a>
    a5f0:	4785                	li	a5,1
    a5f2:	bf3d                	j	a530 <__addsf3+0x2a6>

0000a5f4 <__divsf3>:
    a5f4:	7139                	addi	sp,sp,-64
    a5f6:	01755793          	srli	a5,a0,0x17
    a5fa:	d84a                	sw	s2,48(sp)
    a5fc:	d256                	sw	s5,36(sp)
    a5fe:	ce5e                	sw	s7,28(sp)
    a600:	00951a93          	slli	s5,a0,0x9
    a604:	01f55913          	srli	s2,a0,0x1f
    a608:	de06                	sw	ra,60(sp)
    a60a:	dc22                	sw	s0,56(sp)
    a60c:	da26                	sw	s1,52(sp)
    a60e:	d64e                	sw	s3,44(sp)
    a610:	d452                	sw	s4,40(sp)
    a612:	d05a                	sw	s6,32(sp)
    a614:	0ff7f793          	andi	a5,a5,255
    a618:	009ada93          	srli	s5,s5,0x9
    a61c:	8bca                	mv	s7,s2
    a61e:	12078263          	beqz	a5,a742 <__divsf3+0x14e>
    a622:	0ff00713          	li	a4,255
    a626:	12e78463          	beq	a5,a4,a74e <__divsf3+0x15a>
    a62a:	0a8e                	slli	s5,s5,0x3
    a62c:	04000737          	lui	a4,0x4000
    a630:	00eaeab3          	or	s5,s5,a4
    a634:	f8178a13          	addi	s4,a5,-127 # 3ffff81 <__rt_init_end+0x3fee641>
    a638:	4401                	li	s0,0
    a63a:	4b01                	li	s6,0
    a63c:	0175d793          	srli	a5,a1,0x17
    a640:	00959493          	slli	s1,a1,0x9
    a644:	0ff7f793          	andi	a5,a5,255
    a648:	80a5                	srli	s1,s1,0x9
    a64a:	01f5d993          	srli	s3,a1,0x1f
    a64e:	c7fd                	beqz	a5,a73c <__divsf3+0x148>
    a650:	0ff00713          	li	a4,255
    a654:	02e78763          	beq	a5,a4,a682 <__divsf3+0x8e>
    a658:	048e                	slli	s1,s1,0x3
    a65a:	f8178793          	addi	a5,a5,-127
    a65e:	04000737          	lui	a4,0x4000
    a662:	8cd9                	or	s1,s1,a4
    a664:	40fa0a33          	sub	s4,s4,a5
    a668:	4681                	li	a3,0
    a66a:	8c55                	or	s0,s0,a3
    a66c:	00007717          	auipc	a4,0x7
    a670:	f0870713          	addi	a4,a4,-248 # 11574 <asc2_3216+0x1a98>
    a674:	040a                	slli	s0,s0,0x2
    a676:	943a                	add	s0,s0,a4
    a678:	401c                	lw	a5,0(s0)
    a67a:	01394933          	xor	s2,s2,s3
    a67e:	97ba                	add	a5,a5,a4
    a680:	8782                	jr	a5
    a682:	f01a0a13          	addi	s4,s4,-255
    a686:	e8f9                	bnez	s1,a75c <__divsf3+0x168>
    a688:	4689                	li	a3,2
    a68a:	8c55                	or	s0,s0,a3
    a68c:	00007717          	auipc	a4,0x7
    a690:	f2870713          	addi	a4,a4,-216 # 115b4 <asc2_3216+0x1ad8>
    a694:	040a                	slli	s0,s0,0x2
    a696:	943a                	add	s0,s0,a4
    a698:	401c                	lw	a5,0(s0)
    a69a:	01394933          	xor	s2,s2,s3
    a69e:	97ba                	add	a5,a5,a4
    a6a0:	8782                	jr	a5
    a6a2:	4901                	li	s2,0
    a6a4:	0ff00713          	li	a4,255
    a6a8:	004007b7          	lui	a5,0x400
    a6ac:	00979513          	slli	a0,a5,0x9
    a6b0:	50f2                	lw	ra,60(sp)
    a6b2:	5462                	lw	s0,56(sp)
    a6b4:	01771793          	slli	a5,a4,0x17
    a6b8:	8125                	srli	a0,a0,0x9
    a6ba:	097e                	slli	s2,s2,0x1f
    a6bc:	8d5d                	or	a0,a0,a5
    a6be:	01256533          	or	a0,a0,s2
    a6c2:	54d2                	lw	s1,52(sp)
    a6c4:	5942                	lw	s2,48(sp)
    a6c6:	59b2                	lw	s3,44(sp)
    a6c8:	5a22                	lw	s4,40(sp)
    a6ca:	5a92                	lw	s5,36(sp)
    a6cc:	5b02                	lw	s6,32(sp)
    a6ce:	4bf2                	lw	s7,28(sp)
    a6d0:	6121                	addi	sp,sp,64
    a6d2:	8082                	ret
    a6d4:	0ff00713          	li	a4,255
    a6d8:	4781                	li	a5,0
    a6da:	bfc9                	j	a6ac <__divsf3+0xb8>
    a6dc:	8aa6                	mv	s5,s1
    a6de:	8bce                	mv	s7,s3
    a6e0:	8b36                	mv	s6,a3
    a6e2:	4789                	li	a5,2
    a6e4:	1afb0b63          	beq	s6,a5,a89a <__divsf3+0x2a6>
    a6e8:	478d                	li	a5,3
    a6ea:	fafb0ce3          	beq	s6,a5,a6a2 <__divsf3+0xae>
    a6ee:	4785                	li	a5,1
    a6f0:	0afb0a63          	beq	s6,a5,a7a4 <__divsf3+0x1b0>
    a6f4:	07fa0713          	addi	a4,s4,127
    a6f8:	001bf913          	andi	s2,s7,1
    a6fc:	12e05763          	blez	a4,a82a <__divsf3+0x236>
    a700:	007af793          	andi	a5,s5,7
    a704:	c799                	beqz	a5,a712 <__divsf3+0x11e>
    a706:	00faf793          	andi	a5,s5,15
    a70a:	4691                	li	a3,4
    a70c:	00d78363          	beq	a5,a3,a712 <__divsf3+0x11e>
    a710:	0a91                	addi	s5,s5,4
    a712:	004a9793          	slli	a5,s5,0x4
    a716:	0007d963          	bgez	a5,a728 <__divsf3+0x134>
    a71a:	f80007b7          	lui	a5,0xf8000
    a71e:	17fd                	addi	a5,a5,-1
    a720:	00fafab3          	and	s5,s5,a5
    a724:	080a0713          	addi	a4,s4,128
    a728:	0fe00793          	li	a5,254
    a72c:	fae7c4e3          	blt	a5,a4,a6d4 <__divsf3+0xe0>
    a730:	006a9793          	slli	a5,s5,0x6
    a734:	83a5                	srli	a5,a5,0x9
    a736:	0ff77713          	andi	a4,a4,255
    a73a:	bf8d                	j	a6ac <__divsf3+0xb8>
    a73c:	e4b9                	bnez	s1,a78a <__divsf3+0x196>
    a73e:	4685                	li	a3,1
    a740:	b7a9                	j	a68a <__divsf3+0x96>
    a742:	020a9463          	bnez	s5,a76a <__divsf3+0x176>
    a746:	4411                	li	s0,4
    a748:	4a01                	li	s4,0
    a74a:	4b05                	li	s6,1
    a74c:	bdc5                	j	a63c <__divsf3+0x48>
    a74e:	000a9963          	bnez	s5,a760 <__divsf3+0x16c>
    a752:	4421                	li	s0,8
    a754:	0ff00a13          	li	s4,255
    a758:	4b09                	li	s6,2
    a75a:	b5cd                	j	a63c <__divsf3+0x48>
    a75c:	468d                	li	a3,3
    a75e:	b731                	j	a66a <__divsf3+0x76>
    a760:	4431                	li	s0,12
    a762:	0ff00a13          	li	s4,255
    a766:	4b0d                	li	s6,3
    a768:	bdd1                	j	a63c <__divsf3+0x48>
    a76a:	8556                	mv	a0,s5
    a76c:	c62e                	sw	a1,12(sp)
    a76e:	315000ef          	jal	ra,b282 <__clzsi2>
    a772:	ffb50793          	addi	a5,a0,-5
    a776:	00fa9ab3          	sll	s5,s5,a5
    a77a:	f8a00793          	li	a5,-118
    a77e:	40a78a33          	sub	s4,a5,a0
    a782:	4401                	li	s0,0
    a784:	4b01                	li	s6,0
    a786:	45b2                	lw	a1,12(sp)
    a788:	bd55                	j	a63c <__divsf3+0x48>
    a78a:	8526                	mv	a0,s1
    a78c:	2f7000ef          	jal	ra,b282 <__clzsi2>
    a790:	ffb50713          	addi	a4,a0,-5
    a794:	00aa07b3          	add	a5,s4,a0
    a798:	00e494b3          	sll	s1,s1,a4
    a79c:	07678a13          	addi	s4,a5,118 # f8000076 <_eusrstack+0xd7ff0076>
    a7a0:	4681                	li	a3,0
    a7a2:	b5e1                	j	a66a <__divsf3+0x76>
    a7a4:	001bf913          	andi	s2,s7,1
    a7a8:	4701                	li	a4,0
    a7aa:	4781                	li	a5,0
    a7ac:	b701                	j	a6ac <__divsf3+0xb8>
    a7ae:	6641                	lui	a2,0x10
    a7b0:	00549513          	slli	a0,s1,0x5
    a7b4:	167d                	addi	a2,a2,-1
    a7b6:	01055793          	srli	a5,a0,0x10
    a7ba:	8e69                	and	a2,a2,a0
    a7bc:	0a9afa63          	bgeu	s5,s1,a870 <__divsf3+0x27c>
    a7c0:	02fad5b3          	divu	a1,s5,a5
    a7c4:	1a7d                	addi	s4,s4,-1
    a7c6:	86d6                	mv	a3,s5
    a7c8:	4701                	li	a4,0
    a7ca:	02c58833          	mul	a6,a1,a2
    a7ce:	02f6f6b3          	remu	a3,a3,a5
    a7d2:	06c2                	slli	a3,a3,0x10
    a7d4:	8f55                	or	a4,a4,a3
    a7d6:	01077b63          	bgeu	a4,a6,a7ec <__divsf3+0x1f8>
    a7da:	972a                	add	a4,a4,a0
    a7dc:	fff58693          	addi	a3,a1,-1
    a7e0:	0aa76863          	bltu	a4,a0,a890 <__divsf3+0x29c>
    a7e4:	0b077663          	bgeu	a4,a6,a890 <__divsf3+0x29c>
    a7e8:	15f9                	addi	a1,a1,-2
    a7ea:	972a                	add	a4,a4,a0
    a7ec:	41070733          	sub	a4,a4,a6
    a7f0:	02f756b3          	divu	a3,a4,a5
    a7f4:	02f77733          	remu	a4,a4,a5
    a7f8:	02c68ab3          	mul	s5,a3,a2
    a7fc:	01071793          	slli	a5,a4,0x10
    a800:	0157fb63          	bgeu	a5,s5,a816 <__divsf3+0x222>
    a804:	97aa                	add	a5,a5,a0
    a806:	fff68713          	addi	a4,a3,-1 # 7dffffff <_eusrstack+0x5dfeffff>
    a80a:	08a7e163          	bltu	a5,a0,a88c <__divsf3+0x298>
    a80e:	0757ff63          	bgeu	a5,s5,a88c <__divsf3+0x298>
    a812:	16f9                	addi	a3,a3,-2
    a814:	97aa                	add	a5,a5,a0
    a816:	05c2                	slli	a1,a1,0x10
    a818:	41578ab3          	sub	s5,a5,s5
    a81c:	8dd5                	or	a1,a1,a3
    a81e:	01503ab3          	snez	s5,s5
    a822:	0155eab3          	or	s5,a1,s5
    a826:	8bca                	mv	s7,s2
    a828:	b5f1                	j	a6f4 <__divsf3+0x100>
    a82a:	4685                	li	a3,1
    a82c:	8e99                	sub	a3,a3,a4
    a82e:	c711                	beqz	a4,a83a <__divsf3+0x246>
    a830:	466d                	li	a2,27
    a832:	4701                	li	a4,0
    a834:	4781                	li	a5,0
    a836:	e6d64be3          	blt	a2,a3,a6ac <__divsf3+0xb8>
    a83a:	09ea0a13          	addi	s4,s4,158
    a83e:	014a9a33          	sll	s4,s5,s4
    a842:	00dad7b3          	srl	a5,s5,a3
    a846:	01403ab3          	snez	s5,s4
    a84a:	0157e7b3          	or	a5,a5,s5
    a84e:	0077f713          	andi	a4,a5,7
    a852:	c719                	beqz	a4,a860 <__divsf3+0x26c>
    a854:	00f7f713          	andi	a4,a5,15
    a858:	4691                	li	a3,4
    a85a:	00d70363          	beq	a4,a3,a860 <__divsf3+0x26c>
    a85e:	0791                	addi	a5,a5,4
    a860:	00579713          	slli	a4,a5,0x5
    a864:	02074863          	bltz	a4,a894 <__divsf3+0x2a0>
    a868:	079a                	slli	a5,a5,0x6
    a86a:	83a5                	srli	a5,a5,0x9
    a86c:	4701                	li	a4,0
    a86e:	bd3d                	j	a6ac <__divsf3+0xb8>
    a870:	001ad693          	srli	a3,s5,0x1
    a874:	02f6d5b3          	divu	a1,a3,a5
    a878:	01fa9713          	slli	a4,s5,0x1f
    a87c:	8341                	srli	a4,a4,0x10
    a87e:	02c58833          	mul	a6,a1,a2
    a882:	b7b1                	j	a7ce <__divsf3+0x1da>
    a884:	8bce                	mv	s7,s3
    a886:	8b36                	mv	s6,a3
    a888:	4a81                	li	s5,0
    a88a:	bda1                	j	a6e2 <__divsf3+0xee>
    a88c:	86ba                	mv	a3,a4
    a88e:	b761                	j	a816 <__divsf3+0x222>
    a890:	85b6                	mv	a1,a3
    a892:	bfa9                	j	a7ec <__divsf3+0x1f8>
    a894:	4705                	li	a4,1
    a896:	4781                	li	a5,0
    a898:	bd11                	j	a6ac <__divsf3+0xb8>
    a89a:	001bf913          	andi	s2,s7,1
    a89e:	0ff00713          	li	a4,255
    a8a2:	4781                	li	a5,0
    a8a4:	b521                	j	a6ac <__divsf3+0xb8>

0000a8a6 <__gesf2>:
    a8a6:	01755693          	srli	a3,a0,0x17
    a8aa:	008007b7          	lui	a5,0x800
    a8ae:	17fd                	addi	a5,a5,-1
    a8b0:	0175d613          	srli	a2,a1,0x17
    a8b4:	0ff6f693          	andi	a3,a3,255
    a8b8:	0ff00813          	li	a6,255
    a8bc:	00a7f8b3          	and	a7,a5,a0
    a8c0:	01f55713          	srli	a4,a0,0x1f
    a8c4:	8fed                	and	a5,a5,a1
    a8c6:	0ff67613          	andi	a2,a2,255
    a8ca:	81fd                	srli	a1,a1,0x1f
    a8cc:	03068163          	beq	a3,a6,a8ee <__gesf2+0x48>
    a8d0:	01060c63          	beq	a2,a6,a8e8 <__gesf2+0x42>
    a8d4:	e28d                	bnez	a3,a8f6 <__gesf2+0x50>
    a8d6:	e211                	bnez	a2,a8da <__gesf2+0x34>
    a8d8:	c3b1                	beqz	a5,a91c <__gesf2+0x76>
    a8da:	02088e63          	beqz	a7,a916 <__gesf2+0x70>
    a8de:	04b70563          	beq	a4,a1,a928 <__gesf2+0x82>
    a8e2:	4505                	li	a0,1
    a8e4:	e71d                	bnez	a4,a912 <__gesf2+0x6c>
    a8e6:	8082                	ret
    a8e8:	d7f5                	beqz	a5,a8d4 <__gesf2+0x2e>
    a8ea:	5579                	li	a0,-2
    a8ec:	8082                	ret
    a8ee:	fe089ee3          	bnez	a7,a8ea <__gesf2+0x44>
    a8f2:	02d60963          	beq	a2,a3,a924 <__gesf2+0x7e>
    a8f6:	e211                	bnez	a2,a8fa <__gesf2+0x54>
    a8f8:	d7ed                	beqz	a5,a8e2 <__gesf2+0x3c>
    a8fa:	feb714e3          	bne	a4,a1,a8e2 <__gesf2+0x3c>
    a8fe:	fed642e3          	blt	a2,a3,a8e2 <__gesf2+0x3c>
    a902:	00c6c763          	blt	a3,a2,a910 <__gesf2+0x6a>
    a906:	fd17eee3          	bltu	a5,a7,a8e2 <__gesf2+0x3c>
    a90a:	4501                	li	a0,0
    a90c:	fcf8fde3          	bgeu	a7,a5,a8e6 <__gesf2+0x40>
    a910:	e701                	bnez	a4,a918 <__gesf2+0x72>
    a912:	557d                	li	a0,-1
    a914:	8082                	ret
    a916:	ddf5                	beqz	a1,a912 <__gesf2+0x6c>
    a918:	4505                	li	a0,1
    a91a:	8082                	ret
    a91c:	4501                	li	a0,0
    a91e:	fc0892e3          	bnez	a7,a8e2 <__gesf2+0x3c>
    a922:	8082                	ret
    a924:	dbf9                	beqz	a5,a8fa <__gesf2+0x54>
    a926:	b7d1                	j	a8ea <__gesf2+0x44>
    a928:	4681                	li	a3,0
    a92a:	bfe1                	j	a902 <__gesf2+0x5c>

0000a92c <__mulsf3>:
    a92c:	7179                	addi	sp,sp,-48
    a92e:	d422                	sw	s0,40(sp)
    a930:	01755413          	srli	s0,a0,0x17
    a934:	ce4e                	sw	s3,28(sp)
    a936:	cc52                	sw	s4,24(sp)
    a938:	00951993          	slli	s3,a0,0x9
    a93c:	d606                	sw	ra,44(sp)
    a93e:	d226                	sw	s1,36(sp)
    a940:	d04a                	sw	s2,32(sp)
    a942:	ca56                	sw	s5,20(sp)
    a944:	c85a                	sw	s6,16(sp)
    a946:	0ff47413          	andi	s0,s0,255
    a94a:	0099d993          	srli	s3,s3,0x9
    a94e:	01f55a13          	srli	s4,a0,0x1f
    a952:	c469                	beqz	s0,aa1c <__mulsf3+0xf0>
    a954:	0ff00793          	li	a5,255
    a958:	0ef40863          	beq	s0,a5,aa48 <__mulsf3+0x11c>
    a95c:	00399793          	slli	a5,s3,0x3
    a960:	04000737          	lui	a4,0x4000
    a964:	00e7e9b3          	or	s3,a5,a4
    a968:	f8140413          	addi	s0,s0,-127 # 3ffff81 <__rt_init_end+0x3fee641>
    a96c:	4481                	li	s1,0
    a96e:	4b01                	li	s6,0
    a970:	0175d713          	srli	a4,a1,0x17
    a974:	00959a93          	slli	s5,a1,0x9
    a978:	0ff77713          	andi	a4,a4,255
    a97c:	009ada93          	srli	s5,s5,0x9
    a980:	01f5d913          	srli	s2,a1,0x1f
    a984:	cf45                	beqz	a4,aa3c <__mulsf3+0x110>
    a986:	0ff00793          	li	a5,255
    a98a:	02f70c63          	beq	a4,a5,a9c2 <__mulsf3+0x96>
    a98e:	0a8e                	slli	s5,s5,0x3
    a990:	f8170713          	addi	a4,a4,-127 # 3ffff81 <__rt_init_end+0x3fee641>
    a994:	040007b7          	lui	a5,0x4000
    a998:	00faeab3          	or	s5,s5,a5
    a99c:	943a                	add	s0,s0,a4
    a99e:	4601                	li	a2,0
    a9a0:	012a4533          	xor	a0,s4,s2
    a9a4:	47bd                	li	a5,15
    a9a6:	86aa                	mv	a3,a0
    a9a8:	00140593          	addi	a1,s0,1
    a9ac:	1097e263          	bltu	a5,s1,aab0 <__mulsf3+0x184>
    a9b0:	00007717          	auipc	a4,0x7
    a9b4:	c4470713          	addi	a4,a4,-956 # 115f4 <asc2_3216+0x1b18>
    a9b8:	048a                	slli	s1,s1,0x2
    a9ba:	94ba                	add	s1,s1,a4
    a9bc:	409c                	lw	a5,0(s1)
    a9be:	97ba                	add	a5,a5,a4
    a9c0:	8782                	jr	a5
    a9c2:	0ff40413          	addi	s0,s0,255
    a9c6:	0c0a9863          	bnez	s5,aa96 <__mulsf3+0x16a>
    a9ca:	0024e493          	ori	s1,s1,2
    a9ce:	4609                	li	a2,2
    a9d0:	bfc1                	j	a9a0 <__mulsf3+0x74>
    a9d2:	4501                	li	a0,0
    a9d4:	0ff00713          	li	a4,255
    a9d8:	004007b7          	lui	a5,0x400
    a9dc:	50b2                	lw	ra,44(sp)
    a9de:	5422                	lw	s0,40(sp)
    a9e0:	07a6                	slli	a5,a5,0x9
    a9e2:	075e                	slli	a4,a4,0x17
    a9e4:	83a5                	srli	a5,a5,0x9
    a9e6:	057e                	slli	a0,a0,0x1f
    a9e8:	8fd9                	or	a5,a5,a4
    a9ea:	5492                	lw	s1,36(sp)
    a9ec:	5902                	lw	s2,32(sp)
    a9ee:	49f2                	lw	s3,28(sp)
    a9f0:	4a62                	lw	s4,24(sp)
    a9f2:	4ad2                	lw	s5,20(sp)
    a9f4:	4b42                	lw	s6,16(sp)
    a9f6:	8d5d                	or	a0,a0,a5
    a9f8:	6145                	addi	sp,sp,48
    a9fa:	8082                	ret
    a9fc:	86ca                	mv	a3,s2
    a9fe:	89d6                	mv	s3,s5
    aa00:	8b32                	mv	s6,a2
    aa02:	4789                	li	a5,2
    aa04:	0afb0163          	beq	s6,a5,aaa6 <__mulsf3+0x17a>
    aa08:	478d                	li	a5,3
    aa0a:	fcfb04e3          	beq	s6,a5,a9d2 <__mulsf3+0xa6>
    aa0e:	4785                	li	a5,1
    aa10:	8536                	mv	a0,a3
    aa12:	1afb1263          	bne	s6,a5,abb6 <__mulsf3+0x28a>
    aa16:	4701                	li	a4,0
    aa18:	4781                	li	a5,0
    aa1a:	b7c9                	j	a9dc <__mulsf3+0xb0>
    aa1c:	04099e63          	bnez	s3,aa78 <__mulsf3+0x14c>
    aa20:	0175d713          	srli	a4,a1,0x17
    aa24:	00959a93          	slli	s5,a1,0x9
    aa28:	0ff77713          	andi	a4,a4,255
    aa2c:	4491                	li	s1,4
    aa2e:	4401                	li	s0,0
    aa30:	4b05                	li	s6,1
    aa32:	009ada93          	srli	s5,s5,0x9
    aa36:	01f5d913          	srli	s2,a1,0x1f
    aa3a:	f731                	bnez	a4,a986 <__mulsf3+0x5a>
    aa3c:	000a9d63          	bnez	s5,aa56 <__mulsf3+0x12a>
    aa40:	0014e493          	ori	s1,s1,1
    aa44:	4605                	li	a2,1
    aa46:	bfa9                	j	a9a0 <__mulsf3+0x74>
    aa48:	02099363          	bnez	s3,aa6e <__mulsf3+0x142>
    aa4c:	44a1                	li	s1,8
    aa4e:	0ff00413          	li	s0,255
    aa52:	4b09                	li	s6,2
    aa54:	bf31                	j	a970 <__mulsf3+0x44>
    aa56:	8556                	mv	a0,s5
    aa58:	02b000ef          	jal	ra,b282 <__clzsi2>
    aa5c:	ffb50793          	addi	a5,a0,-5
    aa60:	8c09                	sub	s0,s0,a0
    aa62:	00fa9ab3          	sll	s5,s5,a5
    aa66:	f8a40413          	addi	s0,s0,-118
    aa6a:	4601                	li	a2,0
    aa6c:	bf15                	j	a9a0 <__mulsf3+0x74>
    aa6e:	44b1                	li	s1,12
    aa70:	0ff00413          	li	s0,255
    aa74:	4b0d                	li	s6,3
    aa76:	bded                	j	a970 <__mulsf3+0x44>
    aa78:	854e                	mv	a0,s3
    aa7a:	c62e                	sw	a1,12(sp)
    aa7c:	007000ef          	jal	ra,b282 <__clzsi2>
    aa80:	ffb50793          	addi	a5,a0,-5
    aa84:	f8a00413          	li	s0,-118
    aa88:	00f999b3          	sll	s3,s3,a5
    aa8c:	8c09                	sub	s0,s0,a0
    aa8e:	4481                	li	s1,0
    aa90:	4b01                	li	s6,0
    aa92:	45b2                	lw	a1,12(sp)
    aa94:	bdf1                	j	a970 <__mulsf3+0x44>
    aa96:	0034e493          	ori	s1,s1,3
    aa9a:	460d                	li	a2,3
    aa9c:	b711                	j	a9a0 <__mulsf3+0x74>
    aa9e:	4789                	li	a5,2
    aaa0:	86d2                	mv	a3,s4
    aaa2:	f6fb13e3          	bne	s6,a5,aa08 <__mulsf3+0xdc>
    aaa6:	8536                	mv	a0,a3
    aaa8:	0ff00713          	li	a4,255
    aaac:	4781                	li	a5,0
    aaae:	b73d                	j	a9dc <__mulsf3+0xb0>
    aab0:	6341                	lui	t1,0x10
    aab2:	fff30693          	addi	a3,t1,-1 # ffff <asc2_3216+0x523>
    aab6:	0109d613          	srli	a2,s3,0x10
    aaba:	010ad893          	srli	a7,s5,0x10
    aabe:	00d9f7b3          	and	a5,s3,a3
    aac2:	00dafab3          	and	s5,s5,a3
    aac6:	03578833          	mul	a6,a5,s5
    aaca:	02f889b3          	mul	s3,a7,a5
    aace:	01085713          	srli	a4,a6,0x10
    aad2:	03560ab3          	mul	s5,a2,s5
    aad6:	99d6                	add	s3,s3,s5
    aad8:	974e                	add	a4,a4,s3
    aada:	03160633          	mul	a2,a2,a7
    aade:	01577363          	bgeu	a4,s5,aae4 <__mulsf3+0x1b8>
    aae2:	961a                	add	a2,a2,t1
    aae4:	67c1                	lui	a5,0x10
    aae6:	17fd                	addi	a5,a5,-1
    aae8:	00f776b3          	and	a3,a4,a5
    aaec:	00f87833          	and	a6,a6,a5
    aaf0:	06c2                	slli	a3,a3,0x10
    aaf2:	96c2                	add	a3,a3,a6
    aaf4:	00669993          	slli	s3,a3,0x6
    aaf8:	01075793          	srli	a5,a4,0x10
    aafc:	013039b3          	snez	s3,s3
    ab00:	82e9                	srli	a3,a3,0x1a
    ab02:	97b2                	add	a5,a5,a2
    ab04:	079a                	slli	a5,a5,0x6
    ab06:	00d9e6b3          	or	a3,s3,a3
    ab0a:	00d7e9b3          	or	s3,a5,a3
    ab0e:	00499793          	slli	a5,s3,0x4
    ab12:	0007d963          	bgez	a5,ab24 <__mulsf3+0x1f8>
    ab16:	0019d713          	srli	a4,s3,0x1
    ab1a:	0019f793          	andi	a5,s3,1
    ab1e:	00f769b3          	or	s3,a4,a5
    ab22:	842e                	mv	s0,a1
    ab24:	07f40713          	addi	a4,s0,127
    ab28:	04e05063          	blez	a4,ab68 <__mulsf3+0x23c>
    ab2c:	0079f793          	andi	a5,s3,7
    ab30:	c799                	beqz	a5,ab3e <__mulsf3+0x212>
    ab32:	00f9f793          	andi	a5,s3,15
    ab36:	4691                	li	a3,4
    ab38:	00d78363          	beq	a5,a3,ab3e <__mulsf3+0x212>
    ab3c:	0991                	addi	s3,s3,4
    ab3e:	00499793          	slli	a5,s3,0x4
    ab42:	0007d963          	bgez	a5,ab54 <__mulsf3+0x228>
    ab46:	f80007b7          	lui	a5,0xf8000
    ab4a:	17fd                	addi	a5,a5,-1
    ab4c:	00f9f9b3          	and	s3,s3,a5
    ab50:	08040713          	addi	a4,s0,128
    ab54:	0fe00793          	li	a5,254
    ab58:	04e7cb63          	blt	a5,a4,abae <__mulsf3+0x282>
    ab5c:	00699793          	slli	a5,s3,0x6
    ab60:	83a5                	srli	a5,a5,0x9
    ab62:	0ff77713          	andi	a4,a4,255
    ab66:	bd9d                	j	a9dc <__mulsf3+0xb0>
    ab68:	4785                	li	a5,1
    ab6a:	40e786b3          	sub	a3,a5,a4
    ab6e:	c711                	beqz	a4,ab7a <__mulsf3+0x24e>
    ab70:	466d                	li	a2,27
    ab72:	4701                	li	a4,0
    ab74:	4781                	li	a5,0
    ab76:	e6d643e3          	blt	a2,a3,a9dc <__mulsf3+0xb0>
    ab7a:	09e40713          	addi	a4,s0,158
    ab7e:	00e99733          	sll	a4,s3,a4
    ab82:	00e03733          	snez	a4,a4
    ab86:	00d9d7b3          	srl	a5,s3,a3
    ab8a:	8fd9                	or	a5,a5,a4
    ab8c:	0077f713          	andi	a4,a5,7
    ab90:	c719                	beqz	a4,ab9e <__mulsf3+0x272>
    ab92:	00f7f713          	andi	a4,a5,15
    ab96:	4691                	li	a3,4
    ab98:	00d70363          	beq	a4,a3,ab9e <__mulsf3+0x272>
    ab9c:	0791                	addi	a5,a5,4
    ab9e:	00579713          	slli	a4,a5,0x5
    aba2:	00074c63          	bltz	a4,abba <__mulsf3+0x28e>
    aba6:	079a                	slli	a5,a5,0x6
    aba8:	83a5                	srli	a5,a5,0x9
    abaa:	4701                	li	a4,0
    abac:	bd05                	j	a9dc <__mulsf3+0xb0>
    abae:	0ff00713          	li	a4,255
    abb2:	4781                	li	a5,0
    abb4:	b525                	j	a9dc <__mulsf3+0xb0>
    abb6:	842e                	mv	s0,a1
    abb8:	b7b5                	j	ab24 <__mulsf3+0x1f8>
    abba:	4705                	li	a4,1
    abbc:	4781                	li	a5,0
    abbe:	bd39                	j	a9dc <__mulsf3+0xb0>

0000abc0 <__subsf3>:
    abc0:	00800737          	lui	a4,0x800
    abc4:	1141                	addi	sp,sp,-16
    abc6:	177d                	addi	a4,a4,-1
    abc8:	01755693          	srli	a3,a0,0x17
    abcc:	0175d813          	srli	a6,a1,0x17
    abd0:	00a777b3          	and	a5,a4,a0
    abd4:	0ff6f693          	andi	a3,a3,255
    abd8:	01f55e93          	srli	t4,a0,0x1f
    abdc:	00b77633          	and	a2,a4,a1
    abe0:	c226                	sw	s1,4(sp)
    abe2:	c04a                	sw	s2,0(sp)
    abe4:	0ff87813          	andi	a6,a6,255
    abe8:	c606                	sw	ra,12(sp)
    abea:	c422                	sw	s0,8(sp)
    abec:	0ff00313          	li	t1,255
    abf0:	8e3e                	mv	t3,a5
    abf2:	8936                	mv	s2,a3
    abf4:	84f6                	mv	s1,t4
    abf6:	00379f13          	slli	t5,a5,0x3
    abfa:	81fd                	srli	a1,a1,0x1f
    abfc:	00361513          	slli	a0,a2,0x3
    ac00:	410688b3          	sub	a7,a3,a6
    ac04:	10680263          	beq	a6,t1,ad08 <__subsf3+0x148>
    ac08:	0015c593          	xori	a1,a1,1
    ac0c:	10be8c63          	beq	t4,a1,ad24 <__subsf3+0x164>
    ac10:	0d105463          	blez	a7,acd8 <__subsf3+0x118>
    ac14:	10081063          	bnez	a6,ad14 <__subsf3+0x154>
    ac18:	1e050463          	beqz	a0,ae00 <__subsf3+0x240>
    ac1c:	18fd                	addi	a7,a7,-1
    ac1e:	40af07b3          	sub	a5,t5,a0
    ac22:	02088663          	beqz	a7,ac4e <__subsf3+0x8e>
    ac26:	0ff00793          	li	a5,255
    ac2a:	16f68863          	beq	a3,a5,ad9a <__subsf3+0x1da>
    ac2e:	47ed                	li	a5,27
    ac30:	2917c763          	blt	a5,a7,aebe <__subsf3+0x2fe>
    ac34:	02000713          	li	a4,32
    ac38:	41170733          	sub	a4,a4,a7
    ac3c:	00e51733          	sll	a4,a0,a4
    ac40:	011557b3          	srl	a5,a0,a7
    ac44:	00e03733          	snez	a4,a4
    ac48:	8fd9                	or	a5,a5,a4
    ac4a:	40ff07b3          	sub	a5,t5,a5
    ac4e:	00579713          	slli	a4,a5,0x5
    ac52:	1a075163          	bgez	a4,adf4 <__subsf3+0x234>
    ac56:	04000437          	lui	s0,0x4000
    ac5a:	147d                	addi	s0,s0,-1
    ac5c:	8c7d                	and	s0,s0,a5
    ac5e:	8522                	mv	a0,s0
    ac60:	250d                	jal	b282 <__clzsi2>
    ac62:	156d                	addi	a0,a0,-5
    ac64:	00a417b3          	sll	a5,s0,a0
    ac68:	1b254e63          	blt	a0,s2,ae24 <__subsf3+0x264>
    ac6c:	41250533          	sub	a0,a0,s2
    ac70:	00150413          	addi	s0,a0,1
    ac74:	02000713          	li	a4,32
    ac78:	8f01                	sub	a4,a4,s0
    ac7a:	00e79733          	sll	a4,a5,a4
    ac7e:	00e03733          	snez	a4,a4
    ac82:	0087d7b3          	srl	a5,a5,s0
    ac86:	8fd9                	or	a5,a5,a4
    ac88:	4901                	li	s2,0
    ac8a:	0077f713          	andi	a4,a5,7
    ac8e:	c719                	beqz	a4,ac9c <__subsf3+0xdc>
    ac90:	00f7f713          	andi	a4,a5,15
    ac94:	4691                	li	a3,4
    ac96:	00d70363          	beq	a4,a3,ac9c <__subsf3+0xdc>
    ac9a:	0791                	addi	a5,a5,4
    ac9c:	00579713          	slli	a4,a5,0x5
    aca0:	14075e63          	bgez	a4,adfc <__subsf3+0x23c>
    aca4:	00190693          	addi	a3,s2,1 # 800001 <__rt_init_end+0x7ee6c1>
    aca8:	0ff00713          	li	a4,255
    acac:	0014fe93          	andi	t4,s1,1
    acb0:	16e68663          	beq	a3,a4,ae1c <__subsf3+0x25c>
    acb4:	079a                	slli	a5,a5,0x6
    acb6:	83a5                	srli	a5,a5,0x9
    acb8:	0ff6f693          	andi	a3,a3,255
    acbc:	07a6                	slli	a5,a5,0x9
    acbe:	40b2                	lw	ra,12(sp)
    acc0:	4422                	lw	s0,8(sp)
    acc2:	0097d513          	srli	a0,a5,0x9
    acc6:	06de                	slli	a3,a3,0x17
    acc8:	01fe9793          	slli	a5,t4,0x1f
    accc:	8d55                	or	a0,a0,a3
    acce:	4492                	lw	s1,4(sp)
    acd0:	4902                	lw	s2,0(sp)
    acd2:	8d5d                	or	a0,a0,a5
    acd4:	0141                	addi	sp,sp,16
    acd6:	8082                	ret
    acd8:	0a089263          	bnez	a7,ad7c <__subsf3+0x1bc>
    acdc:	00168713          	addi	a4,a3,1
    ace0:	0fe77713          	andi	a4,a4,254
    ace4:	14071b63          	bnez	a4,ae3a <__subsf3+0x27a>
    ace8:	22069463          	bnez	a3,af10 <__subsf3+0x350>
    acec:	200f0263          	beqz	t5,aef0 <__subsf3+0x330>
    acf0:	d571                	beqz	a0,acbc <__subsf3+0xfc>
    acf2:	40af07b3          	sub	a5,t5,a0
    acf6:	00579713          	slli	a4,a5,0x5
    acfa:	22075563          	bgez	a4,af24 <__subsf3+0x364>
    acfe:	41e507b3          	sub	a5,a0,t5
    ad02:	4901                	li	s2,0
    ad04:	84ae                	mv	s1,a1
    ad06:	b751                	j	ac8a <__subsf3+0xca>
    ad08:	f00500e3          	beqz	a0,ac08 <__subsf3+0x48>
    ad0c:	0abe8a63          	beq	t4,a1,adc0 <__subsf3+0x200>
    ad10:	fd1054e3          	blez	a7,acd8 <__subsf3+0x118>
    ad14:	0ff00793          	li	a5,255
    ad18:	08f68163          	beq	a3,a5,ad9a <__subsf3+0x1da>
    ad1c:	040007b7          	lui	a5,0x4000
    ad20:	8d5d                	or	a0,a0,a5
    ad22:	b731                	j	ac2e <__subsf3+0x6e>
    ad24:	09105e63          	blez	a7,adc0 <__subsf3+0x200>
    ad28:	08080163          	beqz	a6,adaa <__subsf3+0x1ea>
    ad2c:	0ff00793          	li	a5,255
    ad30:	06f68563          	beq	a3,a5,ad9a <__subsf3+0x1da>
    ad34:	040007b7          	lui	a5,0x4000
    ad38:	8d5d                	or	a0,a0,a5
    ad3a:	47ed                	li	a5,27
    ad3c:	1f17c063          	blt	a5,a7,af1c <__subsf3+0x35c>
    ad40:	02000713          	li	a4,32
    ad44:	41170733          	sub	a4,a4,a7
    ad48:	00e51733          	sll	a4,a0,a4
    ad4c:	011557b3          	srl	a5,a0,a7
    ad50:	00e03733          	snez	a4,a4
    ad54:	8fd9                	or	a5,a5,a4
    ad56:	97fa                	add	a5,a5,t5
    ad58:	00579713          	slli	a4,a5,0x5
    ad5c:	08075c63          	bgez	a4,adf4 <__subsf3+0x234>
    ad60:	0905                	addi	s2,s2,1
    ad62:	0ff00713          	li	a4,255
    ad66:	0ae90b63          	beq	s2,a4,ae1c <__subsf3+0x25c>
    ad6a:	7e0006b7          	lui	a3,0x7e000
    ad6e:	0017d713          	srli	a4,a5,0x1
    ad72:	16fd                	addi	a3,a3,-1
    ad74:	8b85                	andi	a5,a5,1
    ad76:	8f75                	and	a4,a4,a3
    ad78:	8fd9                	or	a5,a5,a4
    ad7a:	bf01                	j	ac8a <__subsf3+0xca>
    ad7c:	40d80733          	sub	a4,a6,a3
    ad80:	10069563          	bnez	a3,ae8a <__subsf3+0x2ca>
    ad84:	140f0d63          	beqz	t5,aede <__subsf3+0x31e>
    ad88:	177d                	addi	a4,a4,-1
    ad8a:	1a070363          	beqz	a4,af30 <__subsf3+0x370>
    ad8e:	0ff00793          	li	a5,255
    ad92:	10f81463          	bne	a6,a5,ae9a <__subsf3+0x2da>
    ad96:	84ae                	mv	s1,a1
    ad98:	8e32                	mv	t3,a2
    ad9a:	060e0f63          	beqz	t3,ae18 <__subsf3+0x258>
    ad9e:	4e81                	li	t4,0
    ada0:	0ff00693          	li	a3,255
    ada4:	004007b7          	lui	a5,0x400
    ada8:	bf11                	j	acbc <__subsf3+0xfc>
    adaa:	c939                	beqz	a0,ae00 <__subsf3+0x240>
    adac:	18fd                	addi	a7,a7,-1
    adae:	00af07b3          	add	a5,t5,a0
    adb2:	fa0883e3          	beqz	a7,ad58 <__subsf3+0x198>
    adb6:	0ff00793          	li	a5,255
    adba:	f8f690e3          	bne	a3,a5,ad3a <__subsf3+0x17a>
    adbe:	bff1                	j	ad9a <__subsf3+0x1da>
    adc0:	08089963          	bnez	a7,ae52 <__subsf3+0x292>
    adc4:	00168913          	addi	s2,a3,1 # 7e000001 <_eusrstack+0x5dff0001>
    adc8:	0fe97713          	andi	a4,s2,254
    adcc:	12071663          	bnez	a4,aef8 <__subsf3+0x338>
    add0:	10069b63          	bnez	a3,aee6 <__subsf3+0x326>
    add4:	160f0363          	beqz	t5,af3a <__subsf3+0x37a>
    add8:	ee0502e3          	beqz	a0,acbc <__subsf3+0xfc>
    addc:	00af07b3          	add	a5,t5,a0
    ade0:	00579713          	slli	a4,a5,0x5
    ade4:	4901                	li	s2,0
    ade6:	00075763          	bgez	a4,adf4 <__subsf3+0x234>
    adea:	fc000737          	lui	a4,0xfc000
    adee:	177d                	addi	a4,a4,-1
    adf0:	8ff9                	and	a5,a5,a4
    adf2:	4905                	li	s2,1
    adf4:	0077f713          	andi	a4,a5,7
    adf8:	e8071ce3          	bnez	a4,ac90 <__subsf3+0xd0>
    adfc:	0037de13          	srli	t3,a5,0x3
    ae00:	0ff00793          	li	a5,255
    ae04:	f8f90be3          	beq	s2,a5,ad9a <__subsf3+0x1da>
    ae08:	009e1793          	slli	a5,t3,0x9
    ae0c:	83a5                	srli	a5,a5,0x9
    ae0e:	0ff97693          	andi	a3,s2,255
    ae12:	0014fe93          	andi	t4,s1,1
    ae16:	b55d                	j	acbc <__subsf3+0xfc>
    ae18:	0014fe93          	andi	t4,s1,1
    ae1c:	0ff00693          	li	a3,255
    ae20:	4781                	li	a5,0
    ae22:	bd69                	j	acbc <__subsf3+0xfc>
    ae24:	fc000737          	lui	a4,0xfc000
    ae28:	177d                	addi	a4,a4,-1
    ae2a:	8ff9                	and	a5,a5,a4
    ae2c:	0077f713          	andi	a4,a5,7
    ae30:	40a90933          	sub	s2,s2,a0
    ae34:	e4071ee3          	bnez	a4,ac90 <__subsf3+0xd0>
    ae38:	b7d1                	j	adfc <__subsf3+0x23c>
    ae3a:	40af0433          	sub	s0,t5,a0
    ae3e:	00541793          	slli	a5,s0,0x5
    ae42:	0c07c363          	bltz	a5,af08 <__subsf3+0x348>
    ae46:	e0041ce3          	bnez	s0,ac5e <__subsf3+0x9e>
    ae4a:	4e81                	li	t4,0
    ae4c:	4681                	li	a3,0
    ae4e:	4781                	li	a5,0
    ae50:	b5b5                	j	acbc <__subsf3+0xfc>
    ae52:	40d80733          	sub	a4,a6,a3
    ae56:	c6b5                	beqz	a3,aec2 <__subsf3+0x302>
    ae58:	0ff00793          	li	a5,255
    ae5c:	f2f80ee3          	beq	a6,a5,ad98 <__subsf3+0x1d8>
    ae60:	040007b7          	lui	a5,0x4000
    ae64:	00ff6f33          	or	t5,t5,a5
    ae68:	47ed                	li	a5,27
    ae6a:	0ce7cd63          	blt	a5,a4,af44 <__subsf3+0x384>
    ae6e:	02000793          	li	a5,32
    ae72:	8f99                	sub	a5,a5,a4
    ae74:	00ff17b3          	sll	a5,t5,a5
    ae78:	00ef5733          	srl	a4,t5,a4
    ae7c:	00f037b3          	snez	a5,a5
    ae80:	8f5d                	or	a4,a4,a5
    ae82:	00a707b3          	add	a5,a4,a0
    ae86:	8942                	mv	s2,a6
    ae88:	bdc1                	j	ad58 <__subsf3+0x198>
    ae8a:	0ff00793          	li	a5,255
    ae8e:	f0f804e3          	beq	a6,a5,ad96 <__subsf3+0x1d6>
    ae92:	040007b7          	lui	a5,0x4000
    ae96:	00ff6f33          	or	t5,t5,a5
    ae9a:	47ed                	li	a5,27
    ae9c:	08e7c263          	blt	a5,a4,af20 <__subsf3+0x360>
    aea0:	02000793          	li	a5,32
    aea4:	8f99                	sub	a5,a5,a4
    aea6:	00ff17b3          	sll	a5,t5,a5
    aeaa:	00ef5733          	srl	a4,t5,a4
    aeae:	00f037b3          	snez	a5,a5
    aeb2:	8fd9                	or	a5,a5,a4
    aeb4:	40f507b3          	sub	a5,a0,a5
    aeb8:	8942                	mv	s2,a6
    aeba:	84ae                	mv	s1,a1
    aebc:	bb49                	j	ac4e <__subsf3+0x8e>
    aebe:	4785                	li	a5,1
    aec0:	b369                	j	ac4a <__subsf3+0x8a>
    aec2:	060f0e63          	beqz	t5,af3e <__subsf3+0x37e>
    aec6:	177d                	addi	a4,a4,-1
    aec8:	00af07b3          	add	a5,t5,a0
    aecc:	8942                	mv	s2,a6
    aece:	e80705e3          	beqz	a4,ad58 <__subsf3+0x198>
    aed2:	0ff00793          	li	a5,255
    aed6:	f8f819e3          	bne	a6,a5,ae68 <__subsf3+0x2a8>
    aeda:	8e32                	mv	t3,a2
    aedc:	bd7d                	j	ad9a <__subsf3+0x1da>
    aede:	8e32                	mv	t3,a2
    aee0:	8942                	mv	s2,a6
    aee2:	84ae                	mv	s1,a1
    aee4:	bf31                	j	ae00 <__subsf3+0x240>
    aee6:	ea0f09e3          	beqz	t5,ad98 <__subsf3+0x1d8>
    aeea:	ea0508e3          	beqz	a0,ad9a <__subsf3+0x1da>
    aeee:	bd45                	j	ad9e <__subsf3+0x1de>
    aef0:	cd0d                	beqz	a0,af2a <__subsf3+0x36a>
    aef2:	8eae                	mv	t4,a1
    aef4:	87b2                	mv	a5,a2
    aef6:	b3d9                	j	acbc <__subsf3+0xfc>
    aef8:	0ff00793          	li	a5,255
    aefc:	f2f900e3          	beq	s2,a5,ae1c <__subsf3+0x25c>
    af00:	00af07b3          	add	a5,t5,a0
    af04:	8385                	srli	a5,a5,0x1
    af06:	b5fd                	j	adf4 <__subsf3+0x234>
    af08:	41e50433          	sub	s0,a0,t5
    af0c:	84ae                	mv	s1,a1
    af0e:	bb81                	j	ac5e <__subsf3+0x9e>
    af10:	fc0f1de3          	bnez	t5,aeea <__subsf3+0x32a>
    af14:	e80505e3          	beqz	a0,ad9e <__subsf3+0x1de>
    af18:	84ae                	mv	s1,a1
    af1a:	bdbd                	j	ad98 <__subsf3+0x1d8>
    af1c:	4785                	li	a5,1
    af1e:	bd25                	j	ad56 <__subsf3+0x196>
    af20:	4785                	li	a5,1
    af22:	bf49                	j	aeb4 <__subsf3+0x2f4>
    af24:	4901                	li	s2,0
    af26:	ec0797e3          	bnez	a5,adf4 <__subsf3+0x234>
    af2a:	4e81                	li	t4,0
    af2c:	4781                	li	a5,0
    af2e:	b379                	j	acbc <__subsf3+0xfc>
    af30:	41e507b3          	sub	a5,a0,t5
    af34:	8942                	mv	s2,a6
    af36:	84ae                	mv	s1,a1
    af38:	bb19                	j	ac4e <__subsf3+0x8e>
    af3a:	87b2                	mv	a5,a2
    af3c:	b341                	j	acbc <__subsf3+0xfc>
    af3e:	8e32                	mv	t3,a2
    af40:	8942                	mv	s2,a6
    af42:	bd7d                	j	ae00 <__subsf3+0x240>
    af44:	4705                	li	a4,1
    af46:	bf35                	j	ae82 <__subsf3+0x2c2>

0000af48 <__fixunssfsi>:
    af48:	01755713          	srli	a4,a0,0x17
    af4c:	00800637          	lui	a2,0x800
    af50:	fff60793          	addi	a5,a2,-1 # 7fffff <__rt_init_end+0x7ee6bf>
    af54:	0ff77713          	andi	a4,a4,255
    af58:	07e00593          	li	a1,126
    af5c:	00a7f6b3          	and	a3,a5,a0
    af60:	01f55793          	srli	a5,a0,0x1f
    af64:	4501                	li	a0,0
    af66:	00e5f463          	bgeu	a1,a4,af6e <__fixunssfsi+0x26>
    af6a:	c399                	beqz	a5,af70 <__fixunssfsi+0x28>
    af6c:	8082                	ret
    af6e:	8082                	ret
    af70:	09e00793          	li	a5,158
    af74:	557d                	li	a0,-1
    af76:	fee7ebe3          	bltu	a5,a4,af6c <__fixunssfsi+0x24>
    af7a:	09500593          	li	a1,149
    af7e:	00c6e7b3          	or	a5,a3,a2
    af82:	00e5d763          	bge	a1,a4,af90 <__fixunssfsi+0x48>
    af86:	f6a70713          	addi	a4,a4,-150 # fbffff6a <_eusrstack+0xdbfeff6a>
    af8a:	00e79533          	sll	a0,a5,a4
    af8e:	8082                	ret
    af90:	09600513          	li	a0,150
    af94:	40e50733          	sub	a4,a0,a4
    af98:	00e7d533          	srl	a0,a5,a4
    af9c:	8082                	ret

0000af9e <__floatunsisf>:
    af9e:	1141                	addi	sp,sp,-16
    afa0:	c606                	sw	ra,12(sp)
    afa2:	c422                	sw	s0,8(sp)
    afa4:	cd15                	beqz	a0,afe0 <__floatunsisf+0x42>
    afa6:	842a                	mv	s0,a0
    afa8:	2ce9                	jal	b282 <__clzsi2>
    afaa:	09e00793          	li	a5,158
    afae:	40a78733          	sub	a4,a5,a0
    afb2:	09600793          	li	a5,150
    afb6:	04e7c063          	blt	a5,a4,aff6 <__floatunsisf+0x58>
    afba:	46a1                	li	a3,8
    afbc:	0ff77793          	andi	a5,a4,255
    afc0:	00a6d563          	bge	a3,a0,afca <__floatunsisf+0x2c>
    afc4:	1561                	addi	a0,a0,-8
    afc6:	00a41433          	sll	s0,s0,a0
    afca:	0426                	slli	s0,s0,0x9
    afcc:	8025                	srli	s0,s0,0x9
    afce:	0426                	slli	s0,s0,0x9
    afd0:	00945513          	srli	a0,s0,0x9
    afd4:	40b2                	lw	ra,12(sp)
    afd6:	4422                	lw	s0,8(sp)
    afd8:	07de                	slli	a5,a5,0x17
    afda:	8d5d                	or	a0,a0,a5
    afdc:	0141                	addi	sp,sp,16
    afde:	8082                	ret
    afe0:	4401                	li	s0,0
    afe2:	0426                	slli	s0,s0,0x9
    afe4:	00945513          	srli	a0,s0,0x9
    afe8:	40b2                	lw	ra,12(sp)
    afea:	4422                	lw	s0,8(sp)
    afec:	4781                	li	a5,0
    afee:	07de                	slli	a5,a5,0x17
    aff0:	8d5d                	or	a0,a0,a5
    aff2:	0141                	addi	sp,sp,16
    aff4:	8082                	ret
    aff6:	09900793          	li	a5,153
    affa:	00e7dd63          	bge	a5,a4,b014 <__floatunsisf+0x76>
    affe:	01b50793          	addi	a5,a0,27
    b002:	4695                	li	a3,5
    b004:	00f417b3          	sll	a5,s0,a5
    b008:	8e89                	sub	a3,a3,a0
    b00a:	00f037b3          	snez	a5,a5
    b00e:	00d45433          	srl	s0,s0,a3
    b012:	8c5d                	or	s0,s0,a5
    b014:	4795                	li	a5,5
    b016:	00a7d663          	bge	a5,a0,b022 <__floatunsisf+0x84>
    b01a:	ffb50793          	addi	a5,a0,-5
    b01e:	00f41433          	sll	s0,s0,a5
    b022:	fc0006b7          	lui	a3,0xfc000
    b026:	16fd                	addi	a3,a3,-1
    b028:	00747793          	andi	a5,s0,7
    b02c:	00d47633          	and	a2,s0,a3
    b030:	c385                	beqz	a5,b050 <__floatunsisf+0xb2>
    b032:	00f47793          	andi	a5,s0,15
    b036:	4591                	li	a1,4
    b038:	00b78c63          	beq	a5,a1,b050 <__floatunsisf+0xb2>
    b03c:	0611                	addi	a2,a2,4
    b03e:	00561793          	slli	a5,a2,0x5
    b042:	0007d763          	bgez	a5,b050 <__floatunsisf+0xb2>
    b046:	09f00793          	li	a5,159
    b04a:	8e75                	and	a2,a2,a3
    b04c:	40a78733          	sub	a4,a5,a0
    b050:	00661413          	slli	s0,a2,0x6
    b054:	8025                	srli	s0,s0,0x9
    b056:	0426                	slli	s0,s0,0x9
    b058:	00945513          	srli	a0,s0,0x9
    b05c:	40b2                	lw	ra,12(sp)
    b05e:	4422                	lw	s0,8(sp)
    b060:	0ff77793          	andi	a5,a4,255
    b064:	07de                	slli	a5,a5,0x17
    b066:	8d5d                	or	a0,a0,a5
    b068:	0141                	addi	sp,sp,16
    b06a:	8082                	ret

0000b06c <__extendsfdf2>:
    b06c:	01755713          	srli	a4,a0,0x17
    b070:	0ff77713          	andi	a4,a4,255
    b074:	1141                	addi	sp,sp,-16
    b076:	00170793          	addi	a5,a4,1
    b07a:	c422                	sw	s0,8(sp)
    b07c:	c226                	sw	s1,4(sp)
    b07e:	00951413          	slli	s0,a0,0x9
    b082:	c606                	sw	ra,12(sp)
    b084:	0fe7f793          	andi	a5,a5,254
    b088:	8025                	srli	s0,s0,0x9
    b08a:	01f55493          	srli	s1,a0,0x1f
    b08e:	c785                	beqz	a5,b0b6 <__extendsfdf2+0x4a>
    b090:	00345793          	srli	a5,s0,0x3
    b094:	38070713          	addi	a4,a4,896
    b098:	0476                	slli	s0,s0,0x1d
    b09a:	07b2                	slli	a5,a5,0xc
    b09c:	0752                	slli	a4,a4,0x14
    b09e:	83b1                	srli	a5,a5,0xc
    b0a0:	01f49513          	slli	a0,s1,0x1f
    b0a4:	8fd9                	or	a5,a5,a4
    b0a6:	8fc9                	or	a5,a5,a0
    b0a8:	40b2                	lw	ra,12(sp)
    b0aa:	8522                	mv	a0,s0
    b0ac:	4422                	lw	s0,8(sp)
    b0ae:	4492                	lw	s1,4(sp)
    b0b0:	85be                	mv	a1,a5
    b0b2:	0141                	addi	sp,sp,16
    b0b4:	8082                	ret
    b0b6:	eb05                	bnez	a4,b0e6 <__extendsfdf2+0x7a>
    b0b8:	c439                	beqz	s0,b106 <__extendsfdf2+0x9a>
    b0ba:	8522                	mv	a0,s0
    b0bc:	22d9                	jal	b282 <__clzsi2>
    b0be:	47a9                	li	a5,10
    b0c0:	04a7c663          	blt	a5,a0,b10c <__extendsfdf2+0xa0>
    b0c4:	472d                	li	a4,11
    b0c6:	8f09                	sub	a4,a4,a0
    b0c8:	01550793          	addi	a5,a0,21
    b0cc:	00e45733          	srl	a4,s0,a4
    b0d0:	00f41433          	sll	s0,s0,a5
    b0d4:	00c71793          	slli	a5,a4,0xc
    b0d8:	38900713          	li	a4,905
    b0dc:	8f09                	sub	a4,a4,a0
    b0de:	83b1                	srli	a5,a5,0xc
    b0e0:	7ff77713          	andi	a4,a4,2047
    b0e4:	bf5d                	j	b09a <__extendsfdf2+0x2e>
    b0e6:	cc01                	beqz	s0,b0fe <__extendsfdf2+0x92>
    b0e8:	00345713          	srli	a4,s0,0x3
    b0ec:	000807b7          	lui	a5,0x80
    b0f0:	8fd9                	or	a5,a5,a4
    b0f2:	07b2                	slli	a5,a5,0xc
    b0f4:	0476                	slli	s0,s0,0x1d
    b0f6:	83b1                	srli	a5,a5,0xc
    b0f8:	7ff00713          	li	a4,2047
    b0fc:	bf79                	j	b09a <__extendsfdf2+0x2e>
    b0fe:	7ff00713          	li	a4,2047
    b102:	4781                	li	a5,0
    b104:	bf59                	j	b09a <__extendsfdf2+0x2e>
    b106:	4701                	li	a4,0
    b108:	4781                	li	a5,0
    b10a:	bf41                	j	b09a <__extendsfdf2+0x2e>
    b10c:	ff550713          	addi	a4,a0,-11
    b110:	00e41733          	sll	a4,s0,a4
    b114:	4401                	li	s0,0
    b116:	bf7d                	j	b0d4 <__extendsfdf2+0x68>

0000b118 <__truncdfsf2>:
    b118:	0145d693          	srli	a3,a1,0x14
    b11c:	00c59793          	slli	a5,a1,0xc
    b120:	7ff6f693          	andi	a3,a3,2047
    b124:	83b1                	srli	a5,a5,0xc
    b126:	00168613          	addi	a2,a3,1 # fc000001 <_eusrstack+0xdbff0001>
    b12a:	078e                	slli	a5,a5,0x3
    b12c:	01d55713          	srli	a4,a0,0x1d
    b130:	7fe67613          	andi	a2,a2,2046
    b134:	81fd                	srli	a1,a1,0x1f
    b136:	8f5d                	or	a4,a4,a5
    b138:	00351893          	slli	a7,a0,0x3
    b13c:	ce35                	beqz	a2,b1b8 <__truncdfsf2+0xa0>
    b13e:	c8068813          	addi	a6,a3,-896
    b142:	0fe00793          	li	a5,254
    b146:	0107dd63          	bge	a5,a6,b160 <__truncdfsf2+0x48>
    b14a:	4781                	li	a5,0
    b14c:	00979513          	slli	a0,a5,0x9
    b150:	0ff00693          	li	a3,255
    b154:	06de                	slli	a3,a3,0x17
    b156:	8125                	srli	a0,a0,0x9
    b158:	05fe                	slli	a1,a1,0x1f
    b15a:	8d55                	or	a0,a0,a3
    b15c:	8d4d                	or	a0,a0,a1
    b15e:	8082                	ret
    b160:	0b005563          	blez	a6,b20a <__truncdfsf2+0xf2>
    b164:	00651793          	slli	a5,a0,0x6
    b168:	070e                	slli	a4,a4,0x3
    b16a:	00f037b3          	snez	a5,a5
    b16e:	8fd9                	or	a5,a5,a4
    b170:	01d8d893          	srli	a7,a7,0x1d
    b174:	0117e7b3          	or	a5,a5,a7
    b178:	0077f713          	andi	a4,a5,7
    b17c:	10070163          	beqz	a4,b27e <__truncdfsf2+0x166>
    b180:	00f7f713          	andi	a4,a5,15
    b184:	4691                	li	a3,4
    b186:	00d70363          	beq	a4,a3,b18c <__truncdfsf2+0x74>
    b18a:	0791                	addi	a5,a5,4
    b18c:	04000737          	lui	a4,0x4000
    b190:	8f7d                	and	a4,a4,a5
    b192:	c775                	beqz	a4,b27e <__truncdfsf2+0x166>
    b194:	00180713          	addi	a4,a6,1 # 100001 <__rt_init_end+0xee6c1>
    b198:	0ff00613          	li	a2,255
    b19c:	0ff77693          	andi	a3,a4,255
    b1a0:	fac705e3          	beq	a4,a2,b14a <__truncdfsf2+0x32>
    b1a4:	079a                	slli	a5,a5,0x6
    b1a6:	83a5                	srli	a5,a5,0x9
    b1a8:	00979513          	slli	a0,a5,0x9
    b1ac:	06de                	slli	a3,a3,0x17
    b1ae:	8125                	srli	a0,a0,0x9
    b1b0:	05fe                	slli	a1,a1,0x1f
    b1b2:	8d55                	or	a0,a0,a3
    b1b4:	8d4d                	or	a0,a0,a1
    b1b6:	8082                	ret
    b1b8:	011767b3          	or	a5,a4,a7
    b1bc:	ee99                	bnez	a3,b1da <__truncdfsf2+0xc2>
    b1be:	cf85                	beqz	a5,b1f6 <__truncdfsf2+0xde>
    b1c0:	4795                	li	a5,5
    b1c2:	079a                	slli	a5,a5,0x6
    b1c4:	83a5                	srli	a5,a5,0x9
    b1c6:	00979513          	slli	a0,a5,0x9
    b1ca:	0ff6f693          	andi	a3,a3,255
    b1ce:	06de                	slli	a3,a3,0x17
    b1d0:	8125                	srli	a0,a0,0x9
    b1d2:	05fe                	slli	a1,a1,0x1f
    b1d4:	8d55                	or	a0,a0,a3
    b1d6:	8d4d                	or	a0,a0,a1
    b1d8:	8082                	ret
    b1da:	dba5                	beqz	a5,b14a <__truncdfsf2+0x32>
    b1dc:	004007b7          	lui	a5,0x400
    b1e0:	00979513          	slli	a0,a5,0x9
    b1e4:	0ff00693          	li	a3,255
    b1e8:	06de                	slli	a3,a3,0x17
    b1ea:	4581                	li	a1,0
    b1ec:	8125                	srli	a0,a0,0x9
    b1ee:	05fe                	slli	a1,a1,0x1f
    b1f0:	8d55                	or	a0,a0,a3
    b1f2:	8d4d                	or	a0,a0,a1
    b1f4:	8082                	ret
    b1f6:	4781                	li	a5,0
    b1f8:	00979513          	slli	a0,a5,0x9
    b1fc:	4681                	li	a3,0
    b1fe:	06de                	slli	a3,a3,0x17
    b200:	8125                	srli	a0,a0,0x9
    b202:	05fe                	slli	a1,a1,0x1f
    b204:	8d55                	or	a0,a0,a3
    b206:	8d4d                	or	a0,a0,a1
    b208:	8082                	ret
    b20a:	57a5                	li	a5,-23
    b20c:	04f84863          	blt	a6,a5,b25c <__truncdfsf2+0x144>
    b210:	47f9                	li	a5,30
    b212:	00800637          	lui	a2,0x800
    b216:	410787b3          	sub	a5,a5,a6
    b21a:	457d                	li	a0,31
    b21c:	8e59                	or	a2,a2,a4
    b21e:	04f55163          	bge	a0,a5,b260 <__truncdfsf2+0x148>
    b222:	5779                	li	a4,-2
    b224:	41070733          	sub	a4,a4,a6
    b228:	02000513          	li	a0,32
    b22c:	00e65733          	srl	a4,a2,a4
    b230:	00a78863          	beq	a5,a0,b240 <__truncdfsf2+0x128>
    b234:	ca268693          	addi	a3,a3,-862
    b238:	00d616b3          	sll	a3,a2,a3
    b23c:	00d8e8b3          	or	a7,a7,a3
    b240:	011037b3          	snez	a5,a7
    b244:	8fd9                	or	a5,a5,a4
    b246:	0077f713          	andi	a4,a5,7
    b24a:	4801                	li	a6,0
    b24c:	fb15                	bnez	a4,b180 <__truncdfsf2+0x68>
    b24e:	00579713          	slli	a4,a5,0x5
    b252:	4685                	li	a3,1
    b254:	f40748e3          	bltz	a4,b1a4 <__truncdfsf2+0x8c>
    b258:	4681                	li	a3,0
    b25a:	b7a5                	j	b1c2 <__truncdfsf2+0xaa>
    b25c:	4681                	li	a3,0
    b25e:	b78d                	j	b1c0 <__truncdfsf2+0xa8>
    b260:	c8268693          	addi	a3,a3,-894
    b264:	00d89733          	sll	a4,a7,a3
    b268:	00e03733          	snez	a4,a4
    b26c:	00d616b3          	sll	a3,a2,a3
    b270:	00f8d8b3          	srl	a7,a7,a5
    b274:	00d767b3          	or	a5,a4,a3
    b278:	00f8e7b3          	or	a5,a7,a5
    b27c:	b7e9                	j	b246 <__truncdfsf2+0x12e>
    b27e:	86c2                	mv	a3,a6
    b280:	b789                	j	b1c2 <__truncdfsf2+0xaa>

0000b282 <__clzsi2>:
    b282:	67c1                	lui	a5,0x10
    b284:	02f57e63          	bgeu	a0,a5,b2c0 <__clzsi2+0x3e>
    b288:	0ff00793          	li	a5,255
    b28c:	02000713          	li	a4,32
    b290:	00a7ec63          	bltu	a5,a0,b2a8 <__clzsi2+0x26>
    b294:	00006797          	auipc	a5,0x6
    b298:	3a078793          	addi	a5,a5,928 # 11634 <__clz_tab>
    b29c:	97aa                	add	a5,a5,a0
    b29e:	0007c503          	lbu	a0,0(a5)
    b2a2:	40a70533          	sub	a0,a4,a0
    b2a6:	8082                	ret
    b2a8:	8121                	srli	a0,a0,0x8
    b2aa:	00006797          	auipc	a5,0x6
    b2ae:	38a78793          	addi	a5,a5,906 # 11634 <__clz_tab>
    b2b2:	97aa                	add	a5,a5,a0
    b2b4:	0007c503          	lbu	a0,0(a5)
    b2b8:	4761                	li	a4,24
    b2ba:	40a70533          	sub	a0,a4,a0
    b2be:	8082                	ret
    b2c0:	010007b7          	lui	a5,0x1000
    b2c4:	00f56e63          	bltu	a0,a5,b2e0 <__clzsi2+0x5e>
    b2c8:	8161                	srli	a0,a0,0x18
    b2ca:	00006797          	auipc	a5,0x6
    b2ce:	36a78793          	addi	a5,a5,874 # 11634 <__clz_tab>
    b2d2:	97aa                	add	a5,a5,a0
    b2d4:	0007c503          	lbu	a0,0(a5)
    b2d8:	4721                	li	a4,8
    b2da:	40a70533          	sub	a0,a4,a0
    b2de:	8082                	ret
    b2e0:	8141                	srli	a0,a0,0x10
    b2e2:	00006797          	auipc	a5,0x6
    b2e6:	35278793          	addi	a5,a5,850 # 11634 <__clz_tab>
    b2ea:	97aa                	add	a5,a5,a0
    b2ec:	0007c503          	lbu	a0,0(a5)
    b2f0:	4741                	li	a4,16
    b2f2:	40a70533          	sub	a0,a4,a0
    b2f6:	8082                	ret

0000b2f8 <malloc>:
    b2f8:	83818793          	addi	a5,gp,-1992 # 20003360 <_impure_ptr>
    b2fc:	85aa                	mv	a1,a0
    b2fe:	4388                	lw	a0,0(a5)
    b300:	a249                	j	b482 <_malloc_r>

0000b302 <memcmp>:
    b302:	4701                	li	a4,0
    b304:	00e61463          	bne	a2,a4,b30c <memcmp+0xa>
    b308:	4501                	li	a0,0
    b30a:	8082                	ret
    b30c:	00e507b3          	add	a5,a0,a4
    b310:	0705                	addi	a4,a4,1
    b312:	00e586b3          	add	a3,a1,a4
    b316:	0007c783          	lbu	a5,0(a5)
    b31a:	fff6c683          	lbu	a3,-1(a3)
    b31e:	fed783e3          	beq	a5,a3,b304 <memcmp+0x2>
    b322:	40d78533          	sub	a0,a5,a3
    b326:	8082                	ret

0000b328 <memcpy>:
    b328:	00a5c7b3          	xor	a5,a1,a0
    b32c:	8b8d                	andi	a5,a5,3
    b32e:	00c50733          	add	a4,a0,a2
    b332:	e781                	bnez	a5,b33a <memcpy+0x12>
    b334:	478d                	li	a5,3
    b336:	00c7ee63          	bltu	a5,a2,b352 <memcpy+0x2a>
    b33a:	87aa                	mv	a5,a0
    b33c:	0ae57063          	bgeu	a0,a4,b3dc <memcpy+0xb4>
    b340:	0005c683          	lbu	a3,0(a1)
    b344:	0785                	addi	a5,a5,1
    b346:	0585                	addi	a1,a1,1
    b348:	fed78fa3          	sb	a3,-1(a5)
    b34c:	fee7eae3          	bltu	a5,a4,b340 <memcpy+0x18>
    b350:	8082                	ret
    b352:	00357693          	andi	a3,a0,3
    b356:	87aa                	mv	a5,a0
    b358:	ca91                	beqz	a3,b36c <memcpy+0x44>
    b35a:	0005c683          	lbu	a3,0(a1)
    b35e:	0785                	addi	a5,a5,1
    b360:	0585                	addi	a1,a1,1
    b362:	fed78fa3          	sb	a3,-1(a5)
    b366:	0037f693          	andi	a3,a5,3
    b36a:	b7fd                	j	b358 <memcpy+0x30>
    b36c:	ffc77693          	andi	a3,a4,-4
    b370:	fe068613          	addi	a2,a3,-32
    b374:	06c7f063          	bgeu	a5,a2,b3d4 <memcpy+0xac>
    b378:	0005a383          	lw	t2,0(a1)
    b37c:	0045a283          	lw	t0,4(a1)
    b380:	0085af83          	lw	t6,8(a1)
    b384:	00c5af03          	lw	t5,12(a1)
    b388:	0105ae83          	lw	t4,16(a1)
    b38c:	0145ae03          	lw	t3,20(a1)
    b390:	0185a303          	lw	t1,24(a1)
    b394:	01c5a883          	lw	a7,28(a1)
    b398:	02458593          	addi	a1,a1,36
    b39c:	0077a023          	sw	t2,0(a5)
    b3a0:	ffc5a803          	lw	a6,-4(a1)
    b3a4:	0057a223          	sw	t0,4(a5)
    b3a8:	01f7a423          	sw	t6,8(a5)
    b3ac:	01e7a623          	sw	t5,12(a5)
    b3b0:	01d7a823          	sw	t4,16(a5)
    b3b4:	01c7aa23          	sw	t3,20(a5)
    b3b8:	0067ac23          	sw	t1,24(a5)
    b3bc:	0117ae23          	sw	a7,28(a5)
    b3c0:	02478793          	addi	a5,a5,36
    b3c4:	ff07ae23          	sw	a6,-4(a5)
    b3c8:	b775                	j	b374 <memcpy+0x4c>
    b3ca:	4190                	lw	a2,0(a1)
    b3cc:	0791                	addi	a5,a5,4
    b3ce:	0591                	addi	a1,a1,4
    b3d0:	fec7ae23          	sw	a2,-4(a5)
    b3d4:	fed7ebe3          	bltu	a5,a3,b3ca <memcpy+0xa2>
    b3d8:	f6e7e4e3          	bltu	a5,a4,b340 <memcpy+0x18>
    b3dc:	8082                	ret

0000b3de <_free_r>:
    b3de:	c1cd                	beqz	a1,b480 <_free_r+0xa2>
    b3e0:	ffc5a783          	lw	a5,-4(a1)
    b3e4:	1141                	addi	sp,sp,-16
    b3e6:	c422                	sw	s0,8(sp)
    b3e8:	c606                	sw	ra,12(sp)
    b3ea:	c226                	sw	s1,4(sp)
    b3ec:	ffc58413          	addi	s0,a1,-4
    b3f0:	0007d363          	bgez	a5,b3f6 <_free_r+0x18>
    b3f4:	943e                	add	s0,s0,a5
    b3f6:	84aa                	mv	s1,a0
    b3f8:	216d                	jal	b8a2 <__malloc_lock>
    b3fa:	94018793          	addi	a5,gp,-1728 # 20003468 <__malloc_free_list>
    b3fe:	439c                	lw	a5,0(a5)
    b400:	eb99                	bnez	a5,b416 <_free_r+0x38>
    b402:	00042223          	sw	zero,4(s0) # 4000004 <__rt_init_end+0x3fee6c4>
    b406:	9481a023          	sw	s0,-1728(gp) # 20003468 <__malloc_free_list>
    b40a:	4422                	lw	s0,8(sp)
    b40c:	40b2                	lw	ra,12(sp)
    b40e:	8526                	mv	a0,s1
    b410:	4492                	lw	s1,4(sp)
    b412:	0141                	addi	sp,sp,16
    b414:	a941                	j	b8a4 <__malloc_unlock>
    b416:	00f47e63          	bgeu	s0,a5,b432 <_free_r+0x54>
    b41a:	4014                	lw	a3,0(s0)
    b41c:	00d40733          	add	a4,s0,a3
    b420:	00e79663          	bne	a5,a4,b42c <_free_r+0x4e>
    b424:	4398                	lw	a4,0(a5)
    b426:	43dc                	lw	a5,4(a5)
    b428:	9736                	add	a4,a4,a3
    b42a:	c018                	sw	a4,0(s0)
    b42c:	c05c                	sw	a5,4(s0)
    b42e:	bfe1                	j	b406 <_free_r+0x28>
    b430:	87ba                	mv	a5,a4
    b432:	43d8                	lw	a4,4(a5)
    b434:	c319                	beqz	a4,b43a <_free_r+0x5c>
    b436:	fee47de3          	bgeu	s0,a4,b430 <_free_r+0x52>
    b43a:	4394                	lw	a3,0(a5)
    b43c:	00d78633          	add	a2,a5,a3
    b440:	00861f63          	bne	a2,s0,b45e <_free_r+0x80>
    b444:	4010                	lw	a2,0(s0)
    b446:	96b2                	add	a3,a3,a2
    b448:	c394                	sw	a3,0(a5)
    b44a:	00d78633          	add	a2,a5,a3
    b44e:	fac71ee3          	bne	a4,a2,b40a <_free_r+0x2c>
    b452:	4310                	lw	a2,0(a4)
    b454:	4358                	lw	a4,4(a4)
    b456:	96b2                	add	a3,a3,a2
    b458:	c394                	sw	a3,0(a5)
    b45a:	c3d8                	sw	a4,4(a5)
    b45c:	b77d                	j	b40a <_free_r+0x2c>
    b45e:	00c47563          	bgeu	s0,a2,b468 <_free_r+0x8a>
    b462:	47b1                	li	a5,12
    b464:	c09c                	sw	a5,0(s1)
    b466:	b755                	j	b40a <_free_r+0x2c>
    b468:	4010                	lw	a2,0(s0)
    b46a:	00c406b3          	add	a3,s0,a2
    b46e:	00d71663          	bne	a4,a3,b47a <_free_r+0x9c>
    b472:	4314                	lw	a3,0(a4)
    b474:	4358                	lw	a4,4(a4)
    b476:	96b2                	add	a3,a3,a2
    b478:	c014                	sw	a3,0(s0)
    b47a:	c058                	sw	a4,4(s0)
    b47c:	c3c0                	sw	s0,4(a5)
    b47e:	b771                	j	b40a <_free_r+0x2c>
    b480:	8082                	ret

0000b482 <_malloc_r>:
    b482:	1101                	addi	sp,sp,-32
    b484:	ca26                	sw	s1,20(sp)
    b486:	00358493          	addi	s1,a1,3
    b48a:	98f1                	andi	s1,s1,-4
    b48c:	ce06                	sw	ra,28(sp)
    b48e:	cc22                	sw	s0,24(sp)
    b490:	c84a                	sw	s2,16(sp)
    b492:	c64e                	sw	s3,12(sp)
    b494:	04a1                	addi	s1,s1,8
    b496:	47b1                	li	a5,12
    b498:	04f4f163          	bgeu	s1,a5,b4da <_malloc_r+0x58>
    b49c:	44b1                	li	s1,12
    b49e:	04b4e063          	bltu	s1,a1,b4de <_malloc_r+0x5c>
    b4a2:	892a                	mv	s2,a0
    b4a4:	2efd                	jal	b8a2 <__malloc_lock>
    b4a6:	94018793          	addi	a5,gp,-1728 # 20003468 <__malloc_free_list>
    b4aa:	4398                	lw	a4,0(a5)
    b4ac:	843a                	mv	s0,a4
    b4ae:	e031                	bnez	s0,b4f2 <_malloc_r+0x70>
    b4b0:	94418793          	addi	a5,gp,-1724 # 2000346c <__malloc_sbrk_start>
    b4b4:	439c                	lw	a5,0(a5)
    b4b6:	e791                	bnez	a5,b4c2 <_malloc_r+0x40>
    b4b8:	4581                	li	a1,0
    b4ba:	854a                	mv	a0,s2
    b4bc:	28c9                	jal	b58e <_sbrk_r>
    b4be:	94a1a223          	sw	a0,-1724(gp) # 2000346c <__malloc_sbrk_start>
    b4c2:	85a6                	mv	a1,s1
    b4c4:	854a                	mv	a0,s2
    b4c6:	20e1                	jal	b58e <_sbrk_r>
    b4c8:	59fd                	li	s3,-1
    b4ca:	07351763          	bne	a0,s3,b538 <_malloc_r+0xb6>
    b4ce:	47b1                	li	a5,12
    b4d0:	00f92023          	sw	a5,0(s2)
    b4d4:	854a                	mv	a0,s2
    b4d6:	26f9                	jal	b8a4 <__malloc_unlock>
    b4d8:	a029                	j	b4e2 <_malloc_r+0x60>
    b4da:	fc04d2e3          	bgez	s1,b49e <_malloc_r+0x1c>
    b4de:	47b1                	li	a5,12
    b4e0:	c11c                	sw	a5,0(a0)
    b4e2:	4501                	li	a0,0
    b4e4:	40f2                	lw	ra,28(sp)
    b4e6:	4462                	lw	s0,24(sp)
    b4e8:	44d2                	lw	s1,20(sp)
    b4ea:	4942                	lw	s2,16(sp)
    b4ec:	49b2                	lw	s3,12(sp)
    b4ee:	6105                	addi	sp,sp,32
    b4f0:	8082                	ret
    b4f2:	401c                	lw	a5,0(s0)
    b4f4:	8f85                	sub	a5,a5,s1
    b4f6:	0207ce63          	bltz	a5,b532 <_malloc_r+0xb0>
    b4fa:	46ad                	li	a3,11
    b4fc:	00f6f663          	bgeu	a3,a5,b508 <_malloc_r+0x86>
    b500:	c01c                	sw	a5,0(s0)
    b502:	943e                	add	s0,s0,a5
    b504:	c004                	sw	s1,0(s0)
    b506:	a031                	j	b512 <_malloc_r+0x90>
    b508:	405c                	lw	a5,4(s0)
    b50a:	02871263          	bne	a4,s0,b52e <_malloc_r+0xac>
    b50e:	94f1a023          	sw	a5,-1728(gp) # 20003468 <__malloc_free_list>
    b512:	854a                	mv	a0,s2
    b514:	2e41                	jal	b8a4 <__malloc_unlock>
    b516:	00b40513          	addi	a0,s0,11
    b51a:	00440793          	addi	a5,s0,4
    b51e:	9961                	andi	a0,a0,-8
    b520:	40f50733          	sub	a4,a0,a5
    b524:	d361                	beqz	a4,b4e4 <_malloc_r+0x62>
    b526:	943a                	add	s0,s0,a4
    b528:	8f89                	sub	a5,a5,a0
    b52a:	c01c                	sw	a5,0(s0)
    b52c:	bf65                	j	b4e4 <_malloc_r+0x62>
    b52e:	c35c                	sw	a5,4(a4)
    b530:	b7cd                	j	b512 <_malloc_r+0x90>
    b532:	8722                	mv	a4,s0
    b534:	4040                	lw	s0,4(s0)
    b536:	bfa5                	j	b4ae <_malloc_r+0x2c>
    b538:	00350413          	addi	s0,a0,3
    b53c:	9871                	andi	s0,s0,-4
    b53e:	fc8503e3          	beq	a0,s0,b504 <_malloc_r+0x82>
    b542:	40a405b3          	sub	a1,s0,a0
    b546:	854a                	mv	a0,s2
    b548:	2099                	jal	b58e <_sbrk_r>
    b54a:	fb351de3          	bne	a0,s3,b504 <_malloc_r+0x82>
    b54e:	b741                	j	b4ce <_malloc_r+0x4c>

0000b550 <iprintf>:
    b550:	7139                	addi	sp,sp,-64
    b552:	da3e                	sw	a5,52(sp)
    b554:	d22e                	sw	a1,36(sp)
    b556:	d432                	sw	a2,40(sp)
    b558:	d636                	sw	a3,44(sp)
    b55a:	d83a                	sw	a4,48(sp)
    b55c:	dc42                	sw	a6,56(sp)
    b55e:	de46                	sw	a7,60(sp)
    b560:	83818793          	addi	a5,gp,-1992 # 20003360 <_impure_ptr>
    b564:	cc22                	sw	s0,24(sp)
    b566:	4380                	lw	s0,0(a5)
    b568:	ca26                	sw	s1,20(sp)
    b56a:	ce06                	sw	ra,28(sp)
    b56c:	84aa                	mv	s1,a0
    b56e:	c409                	beqz	s0,b578 <iprintf+0x28>
    b570:	4c1c                	lw	a5,24(s0)
    b572:	e399                	bnez	a5,b578 <iprintf+0x28>
    b574:	8522                	mv	a0,s0
    b576:	2a55                	jal	b72a <__sinit>
    b578:	440c                	lw	a1,8(s0)
    b57a:	1054                	addi	a3,sp,36
    b57c:	8626                	mv	a2,s1
    b57e:	8522                	mv	a0,s0
    b580:	c636                	sw	a3,12(sp)
    b582:	2dfd                	jal	bc80 <_vfiprintf_r>
    b584:	40f2                	lw	ra,28(sp)
    b586:	4462                	lw	s0,24(sp)
    b588:	44d2                	lw	s1,20(sp)
    b58a:	6121                	addi	sp,sp,64
    b58c:	8082                	ret

0000b58e <_sbrk_r>:
    b58e:	1141                	addi	sp,sp,-16
    b590:	c422                	sw	s0,8(sp)
    b592:	842a                	mv	s0,a0
    b594:	852e                	mv	a0,a1
    b596:	1fffa797          	auipc	a5,0x1fffa
    b59a:	e807a723          	sw	zero,-370(a5) # 20005424 <errno>
    b59e:	c606                	sw	ra,12(sp)
    b5a0:	cedfd0ef          	jal	ra,928c <_sbrk>
    b5a4:	57fd                	li	a5,-1
    b5a6:	00f51963          	bne	a0,a5,b5b8 <_sbrk_r+0x2a>
    b5aa:	1fffa797          	auipc	a5,0x1fffa
    b5ae:	e7a78793          	addi	a5,a5,-390 # 20005424 <errno>
    b5b2:	439c                	lw	a5,0(a5)
    b5b4:	c391                	beqz	a5,b5b8 <_sbrk_r+0x2a>
    b5b6:	c01c                	sw	a5,0(s0)
    b5b8:	40b2                	lw	ra,12(sp)
    b5ba:	4422                	lw	s0,8(sp)
    b5bc:	0141                	addi	sp,sp,16
    b5be:	8082                	ret

0000b5c0 <strlen>:
    b5c0:	87aa                	mv	a5,a0
    b5c2:	0785                	addi	a5,a5,1
    b5c4:	fff7c703          	lbu	a4,-1(a5)
    b5c8:	ff6d                	bnez	a4,b5c2 <strlen+0x2>
    b5ca:	40a78533          	sub	a0,a5,a0
    b5ce:	157d                	addi	a0,a0,-1
    b5d0:	8082                	ret

0000b5d2 <strncmp>:
    b5d2:	c605                	beqz	a2,b5fa <strncmp+0x28>
    b5d4:	167d                	addi	a2,a2,-1
    b5d6:	4701                	li	a4,0
    b5d8:	00e507b3          	add	a5,a0,a4
    b5dc:	00e586b3          	add	a3,a1,a4
    b5e0:	0007c783          	lbu	a5,0(a5)
    b5e4:	0006c683          	lbu	a3,0(a3)
    b5e8:	00d79663          	bne	a5,a3,b5f4 <strncmp+0x22>
    b5ec:	00c70463          	beq	a4,a2,b5f4 <strncmp+0x22>
    b5f0:	0705                	addi	a4,a4,1
    b5f2:	f3fd                	bnez	a5,b5d8 <strncmp+0x6>
    b5f4:	40d78533          	sub	a0,a5,a3
    b5f8:	8082                	ret
    b5fa:	4501                	li	a0,0
    b5fc:	8082                	ret

0000b5fe <_vsniprintf_r>:
    b5fe:	7119                	addi	sp,sp,-128
    b600:	dca2                	sw	s0,120(sp)
    b602:	de86                	sw	ra,124(sp)
    b604:	daa6                	sw	s1,116(sp)
    b606:	8432                	mv	s0,a2
    b608:	00065b63          	bgez	a2,b61e <_vsniprintf_r+0x20>
    b60c:	08b00793          	li	a5,139
    b610:	c11c                	sw	a5,0(a0)
    b612:	557d                	li	a0,-1
    b614:	50f6                	lw	ra,124(sp)
    b616:	5466                	lw	s0,120(sp)
    b618:	54d6                	lw	s1,116(sp)
    b61a:	6109                	addi	sp,sp,128
    b61c:	8082                	ret
    b61e:	8636                	mv	a2,a3
    b620:	20800693          	li	a3,520
    b624:	c42e                	sw	a1,8(sp)
    b626:	cc2e                	sw	a1,24(sp)
    b628:	00d11a23          	sh	a3,20(sp)
    b62c:	4581                	li	a1,0
    b62e:	c019                	beqz	s0,b634 <_vsniprintf_r+0x36>
    b630:	fff40593          	addi	a1,s0,-1
    b634:	57fd                	li	a5,-1
    b636:	c82e                	sw	a1,16(sp)
    b638:	ce2e                	sw	a1,28(sp)
    b63a:	86ba                	mv	a3,a4
    b63c:	002c                	addi	a1,sp,8
    b63e:	00f11b23          	sh	a5,22(sp)
    b642:	84aa                	mv	s1,a0
    b644:	2e81                	jal	b994 <_svfiprintf_r>
    b646:	57fd                	li	a5,-1
    b648:	00f55563          	bge	a0,a5,b652 <_vsniprintf_r+0x54>
    b64c:	08b00793          	li	a5,139
    b650:	c09c                	sw	a5,0(s1)
    b652:	d069                	beqz	s0,b614 <_vsniprintf_r+0x16>
    b654:	47a2                	lw	a5,8(sp)
    b656:	00078023          	sb	zero,0(a5)
    b65a:	bf6d                	j	b614 <_vsniprintf_r+0x16>

0000b65c <vsniprintf>:
    b65c:	83818793          	addi	a5,gp,-1992 # 20003360 <_impure_ptr>
    b660:	8736                	mv	a4,a3
    b662:	86b2                	mv	a3,a2
    b664:	862e                	mv	a2,a1
    b666:	85aa                	mv	a1,a0
    b668:	4388                	lw	a0,0(a5)
    b66a:	f95ff06f          	j	b5fe <_vsniprintf_r>

0000b66e <std>:
    b66e:	1141                	addi	sp,sp,-16
    b670:	c422                	sw	s0,8(sp)
    b672:	c606                	sw	ra,12(sp)
    b674:	842a                	mv	s0,a0
    b676:	00b51623          	sh	a1,12(a0)
    b67a:	00c51723          	sh	a2,14(a0)
    b67e:	00052023          	sw	zero,0(a0)
    b682:	00052223          	sw	zero,4(a0)
    b686:	00052423          	sw	zero,8(a0)
    b68a:	06052223          	sw	zero,100(a0)
    b68e:	00052823          	sw	zero,16(a0)
    b692:	00052a23          	sw	zero,20(a0)
    b696:	00052c23          	sw	zero,24(a0)
    b69a:	4621                	li	a2,8
    b69c:	4581                	li	a1,0
    b69e:	05c50513          	addi	a0,a0,92
    b6a2:	d71f40ef          	jal	ra,412 <memset>
    b6a6:	00001797          	auipc	a5,0x1
    b6aa:	c3278793          	addi	a5,a5,-974 # c2d8 <__sread>
    b6ae:	d05c                	sw	a5,36(s0)
    b6b0:	00001797          	auipc	a5,0x1
    b6b4:	c5878793          	addi	a5,a5,-936 # c308 <__swrite>
    b6b8:	d41c                	sw	a5,40(s0)
    b6ba:	00001797          	auipc	a5,0x1
    b6be:	c9c78793          	addi	a5,a5,-868 # c356 <__sseek>
    b6c2:	d45c                	sw	a5,44(s0)
    b6c4:	00001797          	auipc	a5,0x1
    b6c8:	cc878793          	addi	a5,a5,-824 # c38c <__sclose>
    b6cc:	d000                	sw	s0,32(s0)
    b6ce:	d81c                	sw	a5,48(s0)
    b6d0:	40b2                	lw	ra,12(sp)
    b6d2:	4422                	lw	s0,8(sp)
    b6d4:	0141                	addi	sp,sp,16
    b6d6:	8082                	ret

0000b6d8 <_cleanup_r>:
    b6d8:	00001597          	auipc	a1,0x1
    b6dc:	03058593          	addi	a1,a1,48 # c708 <_fflush_r>
    b6e0:	aa99                	j	b836 <_fwalk_reent>

0000b6e2 <__sfmoreglue>:
    b6e2:	1141                	addi	sp,sp,-16
    b6e4:	c226                	sw	s1,4(sp)
    b6e6:	06800613          	li	a2,104
    b6ea:	fff58493          	addi	s1,a1,-1
    b6ee:	02c484b3          	mul	s1,s1,a2
    b6f2:	c04a                	sw	s2,0(sp)
    b6f4:	892e                	mv	s2,a1
    b6f6:	c422                	sw	s0,8(sp)
    b6f8:	c606                	sw	ra,12(sp)
    b6fa:	07448593          	addi	a1,s1,116
    b6fe:	d85ff0ef          	jal	ra,b482 <_malloc_r>
    b702:	842a                	mv	s0,a0
    b704:	cd01                	beqz	a0,b71c <__sfmoreglue+0x3a>
    b706:	00052023          	sw	zero,0(a0)
    b70a:	01252223          	sw	s2,4(a0)
    b70e:	0531                	addi	a0,a0,12
    b710:	c408                	sw	a0,8(s0)
    b712:	06848613          	addi	a2,s1,104
    b716:	4581                	li	a1,0
    b718:	cfbf40ef          	jal	ra,412 <memset>
    b71c:	8522                	mv	a0,s0
    b71e:	40b2                	lw	ra,12(sp)
    b720:	4422                	lw	s0,8(sp)
    b722:	4492                	lw	s1,4(sp)
    b724:	4902                	lw	s2,0(sp)
    b726:	0141                	addi	sp,sp,16
    b728:	8082                	ret

0000b72a <__sinit>:
    b72a:	4d1c                	lw	a5,24(a0)
    b72c:	e7a5                	bnez	a5,b794 <__sinit+0x6a>
    b72e:	1141                	addi	sp,sp,-16
    b730:	c606                	sw	ra,12(sp)
    b732:	c422                	sw	s0,8(sp)
    b734:	00000797          	auipc	a5,0x0
    b738:	fa478793          	addi	a5,a5,-92 # b6d8 <_cleanup_r>
    b73c:	d51c                	sw	a5,40(a0)
    b73e:	83c18793          	addi	a5,gp,-1988 # 20003364 <_global_impure_ptr>
    b742:	439c                	lw	a5,0(a5)
    b744:	04052423          	sw	zero,72(a0)
    b748:	04052623          	sw	zero,76(a0)
    b74c:	04052823          	sw	zero,80(a0)
    b750:	00f51463          	bne	a0,a5,b758 <__sinit+0x2e>
    b754:	4785                	li	a5,1
    b756:	cd1c                	sw	a5,24(a0)
    b758:	842a                	mv	s0,a0
    b75a:	2835                	jal	b796 <__sfp>
    b75c:	c048                	sw	a0,4(s0)
    b75e:	8522                	mv	a0,s0
    b760:	281d                	jal	b796 <__sfp>
    b762:	c408                	sw	a0,8(s0)
    b764:	8522                	mv	a0,s0
    b766:	2805                	jal	b796 <__sfp>
    b768:	c448                	sw	a0,12(s0)
    b76a:	4048                	lw	a0,4(s0)
    b76c:	4601                	li	a2,0
    b76e:	4591                	li	a1,4
    b770:	effff0ef          	jal	ra,b66e <std>
    b774:	4408                	lw	a0,8(s0)
    b776:	4605                	li	a2,1
    b778:	45a5                	li	a1,9
    b77a:	ef5ff0ef          	jal	ra,b66e <std>
    b77e:	4448                	lw	a0,12(s0)
    b780:	4609                	li	a2,2
    b782:	45c9                	li	a1,18
    b784:	eebff0ef          	jal	ra,b66e <std>
    b788:	4785                	li	a5,1
    b78a:	cc1c                	sw	a5,24(s0)
    b78c:	40b2                	lw	ra,12(sp)
    b78e:	4422                	lw	s0,8(sp)
    b790:	0141                	addi	sp,sp,16
    b792:	8082                	ret
    b794:	8082                	ret

0000b796 <__sfp>:
    b796:	1141                	addi	sp,sp,-16
    b798:	83c18793          	addi	a5,gp,-1988 # 20003364 <_global_impure_ptr>
    b79c:	c226                	sw	s1,4(sp)
    b79e:	4384                	lw	s1,0(a5)
    b7a0:	c04a                	sw	s2,0(sp)
    b7a2:	c606                	sw	ra,12(sp)
    b7a4:	4c9c                	lw	a5,24(s1)
    b7a6:	c422                	sw	s0,8(sp)
    b7a8:	892a                	mv	s2,a0
    b7aa:	e781                	bnez	a5,b7b2 <__sfp+0x1c>
    b7ac:	8526                	mv	a0,s1
    b7ae:	f7dff0ef          	jal	ra,b72a <__sinit>
    b7b2:	04848493          	addi	s1,s1,72
    b7b6:	4480                	lw	s0,8(s1)
    b7b8:	40dc                	lw	a5,4(s1)
    b7ba:	17fd                	addi	a5,a5,-1
    b7bc:	0007d663          	bgez	a5,b7c8 <__sfp+0x32>
    b7c0:	409c                	lw	a5,0(s1)
    b7c2:	cfb9                	beqz	a5,b820 <__sfp+0x8a>
    b7c4:	4084                	lw	s1,0(s1)
    b7c6:	bfc5                	j	b7b6 <__sfp+0x20>
    b7c8:	00c41703          	lh	a4,12(s0)
    b7cc:	e739                	bnez	a4,b81a <__sfp+0x84>
    b7ce:	77c1                	lui	a5,0xffff0
    b7d0:	0785                	addi	a5,a5,1
    b7d2:	06042223          	sw	zero,100(s0)
    b7d6:	00042023          	sw	zero,0(s0)
    b7da:	00042223          	sw	zero,4(s0)
    b7de:	00042423          	sw	zero,8(s0)
    b7e2:	c45c                	sw	a5,12(s0)
    b7e4:	00042823          	sw	zero,16(s0)
    b7e8:	00042a23          	sw	zero,20(s0)
    b7ec:	00042c23          	sw	zero,24(s0)
    b7f0:	4621                	li	a2,8
    b7f2:	4581                	li	a1,0
    b7f4:	05c40513          	addi	a0,s0,92
    b7f8:	c1bf40ef          	jal	ra,412 <memset>
    b7fc:	02042a23          	sw	zero,52(s0)
    b800:	02042c23          	sw	zero,56(s0)
    b804:	04042423          	sw	zero,72(s0)
    b808:	04042623          	sw	zero,76(s0)
    b80c:	8522                	mv	a0,s0
    b80e:	40b2                	lw	ra,12(sp)
    b810:	4422                	lw	s0,8(sp)
    b812:	4492                	lw	s1,4(sp)
    b814:	4902                	lw	s2,0(sp)
    b816:	0141                	addi	sp,sp,16
    b818:	8082                	ret
    b81a:	06840413          	addi	s0,s0,104
    b81e:	bf71                	j	b7ba <__sfp+0x24>
    b820:	4591                	li	a1,4
    b822:	854a                	mv	a0,s2
    b824:	ebfff0ef          	jal	ra,b6e2 <__sfmoreglue>
    b828:	c088                	sw	a0,0(s1)
    b82a:	fd49                	bnez	a0,b7c4 <__sfp+0x2e>
    b82c:	47b1                	li	a5,12
    b82e:	00f92023          	sw	a5,0(s2)
    b832:	4401                	li	s0,0
    b834:	bfe1                	j	b80c <__sfp+0x76>

0000b836 <_fwalk_reent>:
    b836:	7179                	addi	sp,sp,-48
    b838:	d422                	sw	s0,40(sp)
    b83a:	d04a                	sw	s2,32(sp)
    b83c:	cc52                	sw	s4,24(sp)
    b83e:	ca56                	sw	s5,20(sp)
    b840:	c85a                	sw	s6,16(sp)
    b842:	c65e                	sw	s7,12(sp)
    b844:	d606                	sw	ra,44(sp)
    b846:	d226                	sw	s1,36(sp)
    b848:	ce4e                	sw	s3,28(sp)
    b84a:	8a2a                	mv	s4,a0
    b84c:	8aae                	mv	s5,a1
    b84e:	04850413          	addi	s0,a0,72
    b852:	4901                	li	s2,0
    b854:	4b05                	li	s6,1
    b856:	5bfd                	li	s7,-1
    b858:	ec09                	bnez	s0,b872 <_fwalk_reent+0x3c>
    b85a:	50b2                	lw	ra,44(sp)
    b85c:	5422                	lw	s0,40(sp)
    b85e:	854a                	mv	a0,s2
    b860:	5492                	lw	s1,36(sp)
    b862:	5902                	lw	s2,32(sp)
    b864:	49f2                	lw	s3,28(sp)
    b866:	4a62                	lw	s4,24(sp)
    b868:	4ad2                	lw	s5,20(sp)
    b86a:	4b42                	lw	s6,16(sp)
    b86c:	4bb2                	lw	s7,12(sp)
    b86e:	6145                	addi	sp,sp,48
    b870:	8082                	ret
    b872:	4404                	lw	s1,8(s0)
    b874:	00442983          	lw	s3,4(s0)
    b878:	19fd                	addi	s3,s3,-1
    b87a:	0009d463          	bgez	s3,b882 <_fwalk_reent+0x4c>
    b87e:	4000                	lw	s0,0(s0)
    b880:	bfe1                	j	b858 <_fwalk_reent+0x22>
    b882:	00c4d783          	lhu	a5,12(s1)
    b886:	00fb7b63          	bgeu	s6,a5,b89c <_fwalk_reent+0x66>
    b88a:	00e49783          	lh	a5,14(s1)
    b88e:	01778763          	beq	a5,s7,b89c <_fwalk_reent+0x66>
    b892:	85a6                	mv	a1,s1
    b894:	8552                	mv	a0,s4
    b896:	9a82                	jalr	s5
    b898:	00a96933          	or	s2,s2,a0
    b89c:	06848493          	addi	s1,s1,104
    b8a0:	bfe1                	j	b878 <_fwalk_reent+0x42>

0000b8a2 <__malloc_lock>:
    b8a2:	8082                	ret

0000b8a4 <__malloc_unlock>:
    b8a4:	8082                	ret

0000b8a6 <__ssputs_r>:
    b8a6:	1101                	addi	sp,sp,-32
    b8a8:	c84a                	sw	s2,16(sp)
    b8aa:	0085a903          	lw	s2,8(a1)
    b8ae:	cc22                	sw	s0,24(sp)
    b8b0:	c452                	sw	s4,8(sp)
    b8b2:	c05a                	sw	s6,0(sp)
    b8b4:	ce06                	sw	ra,28(sp)
    b8b6:	ca26                	sw	s1,20(sp)
    b8b8:	c64e                	sw	s3,12(sp)
    b8ba:	c256                	sw	s5,4(sp)
    b8bc:	842e                	mv	s0,a1
    b8be:	8b32                	mv	s6,a2
    b8c0:	8a36                	mv	s4,a3
    b8c2:	0926ee63          	bltu	a3,s2,b95e <__ssputs_r+0xb8>
    b8c6:	00c5d783          	lhu	a5,12(a1)
    b8ca:	4807f713          	andi	a4,a5,1152
    b8ce:	c751                	beqz	a4,b95a <__ssputs_r+0xb4>
    b8d0:	4004                	lw	s1,0(s0)
    b8d2:	498c                	lw	a1,16(a1)
    b8d4:	4858                	lw	a4,20(s0)
    b8d6:	8aaa                	mv	s5,a0
    b8d8:	40b489b3          	sub	s3,s1,a1
    b8dc:	448d                	li	s1,3
    b8de:	02e484b3          	mul	s1,s1,a4
    b8e2:	4709                	li	a4,2
    b8e4:	02e4c4b3          	div	s1,s1,a4
    b8e8:	00168713          	addi	a4,a3,1
    b8ec:	974e                	add	a4,a4,s3
    b8ee:	00e4f363          	bgeu	s1,a4,b8f4 <__ssputs_r+0x4e>
    b8f2:	84ba                	mv	s1,a4
    b8f4:	4007f793          	andi	a5,a5,1024
    b8f8:	c3d9                	beqz	a5,b97e <__ssputs_r+0xd8>
    b8fa:	85a6                	mv	a1,s1
    b8fc:	8556                	mv	a0,s5
    b8fe:	b85ff0ef          	jal	ra,b482 <_malloc_r>
    b902:	892a                	mv	s2,a0
    b904:	e50d                	bnez	a0,b92e <__ssputs_r+0x88>
    b906:	47b1                	li	a5,12
    b908:	00faa023          	sw	a5,0(s5)
    b90c:	00c45783          	lhu	a5,12(s0)
    b910:	557d                	li	a0,-1
    b912:	0407e793          	ori	a5,a5,64
    b916:	00f41623          	sh	a5,12(s0)
    b91a:	40f2                	lw	ra,28(sp)
    b91c:	4462                	lw	s0,24(sp)
    b91e:	44d2                	lw	s1,20(sp)
    b920:	4942                	lw	s2,16(sp)
    b922:	49b2                	lw	s3,12(sp)
    b924:	4a22                	lw	s4,8(sp)
    b926:	4a92                	lw	s5,4(sp)
    b928:	4b02                	lw	s6,0(sp)
    b92a:	6105                	addi	sp,sp,32
    b92c:	8082                	ret
    b92e:	480c                	lw	a1,16(s0)
    b930:	864e                	mv	a2,s3
    b932:	9f7ff0ef          	jal	ra,b328 <memcpy>
    b936:	00c45783          	lhu	a5,12(s0)
    b93a:	b7f7f793          	andi	a5,a5,-1153
    b93e:	0807e793          	ori	a5,a5,128
    b942:	00f41623          	sh	a5,12(s0)
    b946:	01242823          	sw	s2,16(s0)
    b94a:	c844                	sw	s1,20(s0)
    b94c:	994e                	add	s2,s2,s3
    b94e:	413484b3          	sub	s1,s1,s3
    b952:	01242023          	sw	s2,0(s0)
    b956:	c404                	sw	s1,8(s0)
    b958:	8952                	mv	s2,s4
    b95a:	012a7363          	bgeu	s4,s2,b960 <__ssputs_r+0xba>
    b95e:	8952                	mv	s2,s4
    b960:	4008                	lw	a0,0(s0)
    b962:	864a                	mv	a2,s2
    b964:	85da                	mv	a1,s6
    b966:	751000ef          	jal	ra,c8b6 <memmove>
    b96a:	441c                	lw	a5,8(s0)
    b96c:	4501                	li	a0,0
    b96e:	412787b3          	sub	a5,a5,s2
    b972:	c41c                	sw	a5,8(s0)
    b974:	401c                	lw	a5,0(s0)
    b976:	993e                	add	s2,s2,a5
    b978:	01242023          	sw	s2,0(s0)
    b97c:	bf79                	j	b91a <__ssputs_r+0x74>
    b97e:	8626                	mv	a2,s1
    b980:	8556                	mv	a0,s5
    b982:	77f000ef          	jal	ra,c900 <_realloc_r>
    b986:	892a                	mv	s2,a0
    b988:	fd5d                	bnez	a0,b946 <__ssputs_r+0xa0>
    b98a:	480c                	lw	a1,16(s0)
    b98c:	8556                	mv	a0,s5
    b98e:	a51ff0ef          	jal	ra,b3de <_free_r>
    b992:	bf95                	j	b906 <__ssputs_r+0x60>

0000b994 <_svfiprintf_r>:
    b994:	00c5d783          	lhu	a5,12(a1)
    b998:	7171                	addi	sp,sp,-176
    b99a:	d326                	sw	s1,164(sp)
    b99c:	d14a                	sw	s2,160(sp)
    b99e:	cf4e                	sw	s3,156(sp)
    b9a0:	d706                	sw	ra,172(sp)
    b9a2:	d522                	sw	s0,168(sp)
    b9a4:	cd52                	sw	s4,152(sp)
    b9a6:	cb56                	sw	s5,148(sp)
    b9a8:	c95a                	sw	s6,144(sp)
    b9aa:	c75e                	sw	s7,140(sp)
    b9ac:	c562                	sw	s8,136(sp)
    b9ae:	c366                	sw	s9,132(sp)
    b9b0:	0807f793          	andi	a5,a5,128
    b9b4:	89aa                	mv	s3,a0
    b9b6:	892e                	mv	s2,a1
    b9b8:	84b2                	mv	s1,a2
    b9ba:	c3b9                	beqz	a5,ba00 <_svfiprintf_r+0x6c>
    b9bc:	499c                	lw	a5,16(a1)
    b9be:	e3a9                	bnez	a5,ba00 <_svfiprintf_r+0x6c>
    b9c0:	04000593          	li	a1,64
    b9c4:	c636                	sw	a3,12(sp)
    b9c6:	abdff0ef          	jal	ra,b482 <_malloc_r>
    b9ca:	00a92023          	sw	a0,0(s2)
    b9ce:	00a92823          	sw	a0,16(s2)
    b9d2:	46b2                	lw	a3,12(sp)
    b9d4:	e115                	bnez	a0,b9f8 <_svfiprintf_r+0x64>
    b9d6:	47b1                	li	a5,12
    b9d8:	00f9a023          	sw	a5,0(s3)
    b9dc:	557d                	li	a0,-1
    b9de:	50ba                	lw	ra,172(sp)
    b9e0:	542a                	lw	s0,168(sp)
    b9e2:	549a                	lw	s1,164(sp)
    b9e4:	590a                	lw	s2,160(sp)
    b9e6:	49fa                	lw	s3,156(sp)
    b9e8:	4a6a                	lw	s4,152(sp)
    b9ea:	4ada                	lw	s5,148(sp)
    b9ec:	4b4a                	lw	s6,144(sp)
    b9ee:	4bba                	lw	s7,140(sp)
    b9f0:	4c2a                	lw	s8,136(sp)
    b9f2:	4c9a                	lw	s9,132(sp)
    b9f4:	614d                	addi	sp,sp,176
    b9f6:	8082                	ret
    b9f8:	04000793          	li	a5,64
    b9fc:	00f92a23          	sw	a5,20(s2)
    ba00:	02000793          	li	a5,32
    ba04:	02f10ca3          	sb	a5,57(sp)
    ba08:	03000793          	li	a5,48
    ba0c:	da02                	sw	zero,52(sp)
    ba0e:	02f10d23          	sb	a5,58(sp)
    ba12:	ce36                	sw	a3,28(sp)
    ba14:	02500b93          	li	s7,37
    ba18:	00006a97          	auipc	s5,0x6
    ba1c:	d7ca8a93          	addi	s5,s5,-644 # 11794 <__sf_fake_stdout+0x20>
    ba20:	4c05                	li	s8,1
    ba22:	4b29                	li	s6,10
    ba24:	8426                	mv	s0,s1
    ba26:	00044783          	lbu	a5,0(s0)
    ba2a:	c399                	beqz	a5,ba30 <_svfiprintf_r+0x9c>
    ba2c:	09779d63          	bne	a5,s7,bac6 <_svfiprintf_r+0x132>
    ba30:	40940cb3          	sub	s9,s0,s1
    ba34:	000c8e63          	beqz	s9,ba50 <_svfiprintf_r+0xbc>
    ba38:	86e6                	mv	a3,s9
    ba3a:	8626                	mv	a2,s1
    ba3c:	85ca                	mv	a1,s2
    ba3e:	854e                	mv	a0,s3
    ba40:	e67ff0ef          	jal	ra,b8a6 <__ssputs_r>
    ba44:	57fd                	li	a5,-1
    ba46:	1af50463          	beq	a0,a5,bbee <_svfiprintf_r+0x25a>
    ba4a:	56d2                	lw	a3,52(sp)
    ba4c:	96e6                	add	a3,a3,s9
    ba4e:	da36                	sw	a3,52(sp)
    ba50:	00044783          	lbu	a5,0(s0)
    ba54:	18078d63          	beqz	a5,bbee <_svfiprintf_r+0x25a>
    ba58:	57fd                	li	a5,-1
    ba5a:	00140493          	addi	s1,s0,1
    ba5e:	d002                	sw	zero,32(sp)
    ba60:	d602                	sw	zero,44(sp)
    ba62:	d23e                	sw	a5,36(sp)
    ba64:	d402                	sw	zero,40(sp)
    ba66:	060101a3          	sb	zero,99(sp)
    ba6a:	dc82                	sw	zero,120(sp)
    ba6c:	0004c583          	lbu	a1,0(s1)
    ba70:	4615                	li	a2,5
    ba72:	8556                	mv	a0,s5
    ba74:	629000ef          	jal	ra,c89c <memchr>
    ba78:	00148413          	addi	s0,s1,1
    ba7c:	5782                	lw	a5,32(sp)
    ba7e:	e531                	bnez	a0,baca <_svfiprintf_r+0x136>
    ba80:	0107f713          	andi	a4,a5,16
    ba84:	c709                	beqz	a4,ba8e <_svfiprintf_r+0xfa>
    ba86:	02000713          	li	a4,32
    ba8a:	06e101a3          	sb	a4,99(sp)
    ba8e:	0087f713          	andi	a4,a5,8
    ba92:	c709                	beqz	a4,ba9c <_svfiprintf_r+0x108>
    ba94:	02b00713          	li	a4,43
    ba98:	06e101a3          	sb	a4,99(sp)
    ba9c:	0004c683          	lbu	a3,0(s1)
    baa0:	02a00713          	li	a4,42
    baa4:	02e68b63          	beq	a3,a4,bada <_svfiprintf_r+0x146>
    baa8:	57b2                	lw	a5,44(sp)
    baaa:	8426                	mv	s0,s1
    baac:	4681                	li	a3,0
    baae:	4625                	li	a2,9
    bab0:	00044703          	lbu	a4,0(s0)
    bab4:	00140593          	addi	a1,s0,1
    bab8:	fd070713          	addi	a4,a4,-48 # 3ffffd0 <__rt_init_end+0x3fee690>
    babc:	06e67463          	bgeu	a2,a4,bb24 <_svfiprintf_r+0x190>
    bac0:	c68d                	beqz	a3,baea <_svfiprintf_r+0x156>
    bac2:	d63e                	sw	a5,44(sp)
    bac4:	a01d                	j	baea <_svfiprintf_r+0x156>
    bac6:	0405                	addi	s0,s0,1
    bac8:	bfb9                	j	ba26 <_svfiprintf_r+0x92>
    baca:	41550533          	sub	a0,a0,s5
    bace:	00ac1533          	sll	a0,s8,a0
    bad2:	8fc9                	or	a5,a5,a0
    bad4:	d03e                	sw	a5,32(sp)
    bad6:	84a2                	mv	s1,s0
    bad8:	bf51                	j	ba6c <_svfiprintf_r+0xd8>
    bada:	4772                	lw	a4,28(sp)
    badc:	00470693          	addi	a3,a4,4
    bae0:	4318                	lw	a4,0(a4)
    bae2:	ce36                	sw	a3,28(sp)
    bae4:	02074963          	bltz	a4,bb16 <_svfiprintf_r+0x182>
    bae8:	d63a                	sw	a4,44(sp)
    baea:	00044703          	lbu	a4,0(s0)
    baee:	02e00793          	li	a5,46
    baf2:	04f71f63          	bne	a4,a5,bb50 <_svfiprintf_r+0x1bc>
    baf6:	00144703          	lbu	a4,1(s0)
    bafa:	02a00793          	li	a5,42
    bafe:	02f71b63          	bne	a4,a5,bb34 <_svfiprintf_r+0x1a0>
    bb02:	47f2                	lw	a5,28(sp)
    bb04:	0409                	addi	s0,s0,2
    bb06:	00478713          	addi	a4,a5,4 # ffff0004 <_eusrstack+0xdffe0004>
    bb0a:	439c                	lw	a5,0(a5)
    bb0c:	ce3a                	sw	a4,28(sp)
    bb0e:	0207c163          	bltz	a5,bb30 <_svfiprintf_r+0x19c>
    bb12:	d23e                	sw	a5,36(sp)
    bb14:	a835                	j	bb50 <_svfiprintf_r+0x1bc>
    bb16:	40e00733          	neg	a4,a4
    bb1a:	0027e793          	ori	a5,a5,2
    bb1e:	d63a                	sw	a4,44(sp)
    bb20:	d03e                	sw	a5,32(sp)
    bb22:	b7e1                	j	baea <_svfiprintf_r+0x156>
    bb24:	036787b3          	mul	a5,a5,s6
    bb28:	4685                	li	a3,1
    bb2a:	842e                	mv	s0,a1
    bb2c:	97ba                	add	a5,a5,a4
    bb2e:	b749                	j	bab0 <_svfiprintf_r+0x11c>
    bb30:	57fd                	li	a5,-1
    bb32:	b7c5                	j	bb12 <_svfiprintf_r+0x17e>
    bb34:	0405                	addi	s0,s0,1
    bb36:	d202                	sw	zero,36(sp)
    bb38:	4681                	li	a3,0
    bb3a:	4781                	li	a5,0
    bb3c:	4625                	li	a2,9
    bb3e:	00044703          	lbu	a4,0(s0)
    bb42:	00140593          	addi	a1,s0,1
    bb46:	fd070713          	addi	a4,a4,-48
    bb4a:	06e67863          	bgeu	a2,a4,bbba <_svfiprintf_r+0x226>
    bb4e:	f2f1                	bnez	a3,bb12 <_svfiprintf_r+0x17e>
    bb50:	00044583          	lbu	a1,0(s0)
    bb54:	460d                	li	a2,3
    bb56:	00006517          	auipc	a0,0x6
    bb5a:	c4650513          	addi	a0,a0,-954 # 1179c <__sf_fake_stdout+0x28>
    bb5e:	53f000ef          	jal	ra,c89c <memchr>
    bb62:	cd11                	beqz	a0,bb7e <_svfiprintf_r+0x1ea>
    bb64:	00006797          	auipc	a5,0x6
    bb68:	c3878793          	addi	a5,a5,-968 # 1179c <__sf_fake_stdout+0x28>
    bb6c:	8d1d                	sub	a0,a0,a5
    bb6e:	04000793          	li	a5,64
    bb72:	00a797b3          	sll	a5,a5,a0
    bb76:	5502                	lw	a0,32(sp)
    bb78:	0405                	addi	s0,s0,1
    bb7a:	8d5d                	or	a0,a0,a5
    bb7c:	d02a                	sw	a0,32(sp)
    bb7e:	00044583          	lbu	a1,0(s0)
    bb82:	4619                	li	a2,6
    bb84:	00006517          	auipc	a0,0x6
    bb88:	c1c50513          	addi	a0,a0,-996 # 117a0 <__sf_fake_stdout+0x2c>
    bb8c:	00140493          	addi	s1,s0,1
    bb90:	02b10c23          	sb	a1,56(sp)
    bb94:	509000ef          	jal	ra,c89c <memchr>
    bb98:	c525                	beqz	a0,bc00 <_svfiprintf_r+0x26c>
    bb9a:	ffff4797          	auipc	a5,0xffff4
    bb9e:	46678793          	addi	a5,a5,1126 # 0 <_sinit>
    bba2:	e795                	bnez	a5,bbce <_svfiprintf_r+0x23a>
    bba4:	5702                	lw	a4,32(sp)
    bba6:	47f2                	lw	a5,28(sp)
    bba8:	10077713          	andi	a4,a4,256
    bbac:	cf09                	beqz	a4,bbc6 <_svfiprintf_r+0x232>
    bbae:	0791                	addi	a5,a5,4
    bbb0:	ce3e                	sw	a5,28(sp)
    bbb2:	57d2                	lw	a5,52(sp)
    bbb4:	97d2                	add	a5,a5,s4
    bbb6:	da3e                	sw	a5,52(sp)
    bbb8:	b5b5                	j	ba24 <_svfiprintf_r+0x90>
    bbba:	036787b3          	mul	a5,a5,s6
    bbbe:	4685                	li	a3,1
    bbc0:	842e                	mv	s0,a1
    bbc2:	97ba                	add	a5,a5,a4
    bbc4:	bfad                	j	bb3e <_svfiprintf_r+0x1aa>
    bbc6:	079d                	addi	a5,a5,7
    bbc8:	9be1                	andi	a5,a5,-8
    bbca:	07a1                	addi	a5,a5,8
    bbcc:	b7d5                	j	bbb0 <_svfiprintf_r+0x21c>
    bbce:	0878                	addi	a4,sp,28
    bbd0:	00000697          	auipc	a3,0x0
    bbd4:	cd668693          	addi	a3,a3,-810 # b8a6 <__ssputs_r>
    bbd8:	864a                	mv	a2,s2
    bbda:	100c                	addi	a1,sp,32
    bbdc:	854e                	mv	a0,s3
    bbde:	00000097          	auipc	ra,0x0
    bbe2:	000000e7          	jalr	zero # 0 <_sinit>
    bbe6:	57fd                	li	a5,-1
    bbe8:	8a2a                	mv	s4,a0
    bbea:	fcf514e3          	bne	a0,a5,bbb2 <_svfiprintf_r+0x21e>
    bbee:	00c95783          	lhu	a5,12(s2)
    bbf2:	557d                	li	a0,-1
    bbf4:	0407f793          	andi	a5,a5,64
    bbf8:	de0793e3          	bnez	a5,b9de <_svfiprintf_r+0x4a>
    bbfc:	5552                	lw	a0,52(sp)
    bbfe:	b3c5                	j	b9de <_svfiprintf_r+0x4a>
    bc00:	0878                	addi	a4,sp,28
    bc02:	00000697          	auipc	a3,0x0
    bc06:	ca468693          	addi	a3,a3,-860 # b8a6 <__ssputs_r>
    bc0a:	864a                	mv	a2,s2
    bc0c:	100c                	addi	a1,sp,32
    bc0e:	854e                	mv	a0,s3
    bc10:	2931                	jal	c02c <_printf_i>
    bc12:	bfd1                	j	bbe6 <_svfiprintf_r+0x252>

0000bc14 <__sfputc_r>:
    bc14:	461c                	lw	a5,8(a2)
    bc16:	17fd                	addi	a5,a5,-1
    bc18:	c61c                	sw	a5,8(a2)
    bc1a:	0007d963          	bgez	a5,bc2c <__sfputc_r+0x18>
    bc1e:	4e18                	lw	a4,24(a2)
    bc20:	00e7c563          	blt	a5,a4,bc2a <__sfputc_r+0x16>
    bc24:	47a9                	li	a5,10
    bc26:	00f59363          	bne	a1,a5,bc2c <__sfputc_r+0x18>
    bc2a:	a7a5                	j	c392 <__swbuf_r>
    bc2c:	421c                	lw	a5,0(a2)
    bc2e:	852e                	mv	a0,a1
    bc30:	00178713          	addi	a4,a5,1
    bc34:	c218                	sw	a4,0(a2)
    bc36:	00b78023          	sb	a1,0(a5)
    bc3a:	8082                	ret

0000bc3c <__sfputs_r>:
    bc3c:	1101                	addi	sp,sp,-32
    bc3e:	cc22                	sw	s0,24(sp)
    bc40:	ca26                	sw	s1,20(sp)
    bc42:	c84a                	sw	s2,16(sp)
    bc44:	c64e                	sw	s3,12(sp)
    bc46:	c452                	sw	s4,8(sp)
    bc48:	ce06                	sw	ra,28(sp)
    bc4a:	892a                	mv	s2,a0
    bc4c:	89ae                	mv	s3,a1
    bc4e:	8432                	mv	s0,a2
    bc50:	00d604b3          	add	s1,a2,a3
    bc54:	5a7d                	li	s4,-1
    bc56:	00941463          	bne	s0,s1,bc5e <__sfputs_r+0x22>
    bc5a:	4501                	li	a0,0
    bc5c:	a811                	j	bc70 <__sfputs_r+0x34>
    bc5e:	00044583          	lbu	a1,0(s0)
    bc62:	864e                	mv	a2,s3
    bc64:	854a                	mv	a0,s2
    bc66:	fafff0ef          	jal	ra,bc14 <__sfputc_r>
    bc6a:	0405                	addi	s0,s0,1
    bc6c:	ff4515e3          	bne	a0,s4,bc56 <__sfputs_r+0x1a>
    bc70:	40f2                	lw	ra,28(sp)
    bc72:	4462                	lw	s0,24(sp)
    bc74:	44d2                	lw	s1,20(sp)
    bc76:	4942                	lw	s2,16(sp)
    bc78:	49b2                	lw	s3,12(sp)
    bc7a:	4a22                	lw	s4,8(sp)
    bc7c:	6105                	addi	sp,sp,32
    bc7e:	8082                	ret

0000bc80 <_vfiprintf_r>:
    bc80:	7135                	addi	sp,sp,-160
    bc82:	cd22                	sw	s0,152(sp)
    bc84:	cb26                	sw	s1,148(sp)
    bc86:	c94a                	sw	s2,144(sp)
    bc88:	c74e                	sw	s3,140(sp)
    bc8a:	cf06                	sw	ra,156(sp)
    bc8c:	c552                	sw	s4,136(sp)
    bc8e:	c356                	sw	s5,132(sp)
    bc90:	c15a                	sw	s6,128(sp)
    bc92:	dede                	sw	s7,124(sp)
    bc94:	dce2                	sw	s8,120(sp)
    bc96:	dae6                	sw	s9,116(sp)
    bc98:	89aa                	mv	s3,a0
    bc9a:	84ae                	mv	s1,a1
    bc9c:	8932                	mv	s2,a2
    bc9e:	8436                	mv	s0,a3
    bca0:	c509                	beqz	a0,bcaa <_vfiprintf_r+0x2a>
    bca2:	4d1c                	lw	a5,24(a0)
    bca4:	e399                	bnez	a5,bcaa <_vfiprintf_r+0x2a>
    bca6:	a85ff0ef          	jal	ra,b72a <__sinit>
    bcaa:	00006797          	auipc	a5,0x6
    bcae:	aaa78793          	addi	a5,a5,-1366 # 11754 <__sf_fake_stdin>
    bcb2:	0cf49d63          	bne	s1,a5,bd8c <_vfiprintf_r+0x10c>
    bcb6:	0049a483          	lw	s1,4(s3)
    bcba:	00c4d783          	lhu	a5,12(s1)
    bcbe:	8ba1                	andi	a5,a5,8
    bcc0:	cbe5                	beqz	a5,bdb0 <_vfiprintf_r+0x130>
    bcc2:	489c                	lw	a5,16(s1)
    bcc4:	c7f5                	beqz	a5,bdb0 <_vfiprintf_r+0x130>
    bcc6:	02000793          	li	a5,32
    bcca:	02f104a3          	sb	a5,41(sp)
    bcce:	03000793          	li	a5,48
    bcd2:	d202                	sw	zero,36(sp)
    bcd4:	02f10523          	sb	a5,42(sp)
    bcd8:	c622                	sw	s0,12(sp)
    bcda:	02500b93          	li	s7,37
    bcde:	00006a97          	auipc	s5,0x6
    bce2:	ab6a8a93          	addi	s5,s5,-1354 # 11794 <__sf_fake_stdout+0x20>
    bce6:	4c05                	li	s8,1
    bce8:	4b29                	li	s6,10
    bcea:	844a                	mv	s0,s2
    bcec:	00044783          	lbu	a5,0(s0)
    bcf0:	c399                	beqz	a5,bcf6 <_vfiprintf_r+0x76>
    bcf2:	0f779163          	bne	a5,s7,bdd4 <_vfiprintf_r+0x154>
    bcf6:	41240cb3          	sub	s9,s0,s2
    bcfa:	000c8e63          	beqz	s9,bd16 <_vfiprintf_r+0x96>
    bcfe:	86e6                	mv	a3,s9
    bd00:	864a                	mv	a2,s2
    bd02:	85a6                	mv	a1,s1
    bd04:	854e                	mv	a0,s3
    bd06:	f37ff0ef          	jal	ra,bc3c <__sfputs_r>
    bd0a:	57fd                	li	a5,-1
    bd0c:	1ef50863          	beq	a0,a5,befc <_vfiprintf_r+0x27c>
    bd10:	5692                	lw	a3,36(sp)
    bd12:	96e6                	add	a3,a3,s9
    bd14:	d236                	sw	a3,36(sp)
    bd16:	00044783          	lbu	a5,0(s0)
    bd1a:	1e078163          	beqz	a5,befc <_vfiprintf_r+0x27c>
    bd1e:	57fd                	li	a5,-1
    bd20:	00140913          	addi	s2,s0,1
    bd24:	c802                	sw	zero,16(sp)
    bd26:	ce02                	sw	zero,28(sp)
    bd28:	ca3e                	sw	a5,20(sp)
    bd2a:	cc02                	sw	zero,24(sp)
    bd2c:	040109a3          	sb	zero,83(sp)
    bd30:	d482                	sw	zero,104(sp)
    bd32:	00094583          	lbu	a1,0(s2)
    bd36:	4615                	li	a2,5
    bd38:	8556                	mv	a0,s5
    bd3a:	363000ef          	jal	ra,c89c <memchr>
    bd3e:	00190413          	addi	s0,s2,1
    bd42:	47c2                	lw	a5,16(sp)
    bd44:	e951                	bnez	a0,bdd8 <_vfiprintf_r+0x158>
    bd46:	0107f713          	andi	a4,a5,16
    bd4a:	c709                	beqz	a4,bd54 <_vfiprintf_r+0xd4>
    bd4c:	02000713          	li	a4,32
    bd50:	04e109a3          	sb	a4,83(sp)
    bd54:	0087f713          	andi	a4,a5,8
    bd58:	c709                	beqz	a4,bd62 <_vfiprintf_r+0xe2>
    bd5a:	02b00713          	li	a4,43
    bd5e:	04e109a3          	sb	a4,83(sp)
    bd62:	00094683          	lbu	a3,0(s2)
    bd66:	02a00713          	li	a4,42
    bd6a:	06e68f63          	beq	a3,a4,bde8 <_vfiprintf_r+0x168>
    bd6e:	47f2                	lw	a5,28(sp)
    bd70:	844a                	mv	s0,s2
    bd72:	4681                	li	a3,0
    bd74:	4625                	li	a2,9
    bd76:	00044703          	lbu	a4,0(s0)
    bd7a:	00140593          	addi	a1,s0,1
    bd7e:	fd070713          	addi	a4,a4,-48
    bd82:	0ae67863          	bgeu	a2,a4,be32 <_vfiprintf_r+0x1b2>
    bd86:	caad                	beqz	a3,bdf8 <_vfiprintf_r+0x178>
    bd88:	ce3e                	sw	a5,28(sp)
    bd8a:	a0bd                	j	bdf8 <_vfiprintf_r+0x178>
    bd8c:	00006797          	auipc	a5,0x6
    bd90:	9e878793          	addi	a5,a5,-1560 # 11774 <__sf_fake_stdout>
    bd94:	00f49563          	bne	s1,a5,bd9e <_vfiprintf_r+0x11e>
    bd98:	0089a483          	lw	s1,8(s3)
    bd9c:	bf39                	j	bcba <_vfiprintf_r+0x3a>
    bd9e:	00006797          	auipc	a5,0x6
    bda2:	99678793          	addi	a5,a5,-1642 # 11734 <__sf_fake_stderr>
    bda6:	f0f49ae3          	bne	s1,a5,bcba <_vfiprintf_r+0x3a>
    bdaa:	00c9a483          	lw	s1,12(s3)
    bdae:	b731                	j	bcba <_vfiprintf_r+0x3a>
    bdb0:	85a6                	mv	a1,s1
    bdb2:	854e                	mv	a0,s3
    bdb4:	2dd9                	jal	c48a <__swsetup_r>
    bdb6:	d901                	beqz	a0,bcc6 <_vfiprintf_r+0x46>
    bdb8:	557d                	li	a0,-1
    bdba:	40fa                	lw	ra,156(sp)
    bdbc:	446a                	lw	s0,152(sp)
    bdbe:	44da                	lw	s1,148(sp)
    bdc0:	494a                	lw	s2,144(sp)
    bdc2:	49ba                	lw	s3,140(sp)
    bdc4:	4a2a                	lw	s4,136(sp)
    bdc6:	4a9a                	lw	s5,132(sp)
    bdc8:	4b0a                	lw	s6,128(sp)
    bdca:	5bf6                	lw	s7,124(sp)
    bdcc:	5c66                	lw	s8,120(sp)
    bdce:	5cd6                	lw	s9,116(sp)
    bdd0:	610d                	addi	sp,sp,160
    bdd2:	8082                	ret
    bdd4:	0405                	addi	s0,s0,1
    bdd6:	bf19                	j	bcec <_vfiprintf_r+0x6c>
    bdd8:	41550533          	sub	a0,a0,s5
    bddc:	00ac1533          	sll	a0,s8,a0
    bde0:	8fc9                	or	a5,a5,a0
    bde2:	c83e                	sw	a5,16(sp)
    bde4:	8922                	mv	s2,s0
    bde6:	b7b1                	j	bd32 <_vfiprintf_r+0xb2>
    bde8:	4732                	lw	a4,12(sp)
    bdea:	00470693          	addi	a3,a4,4
    bdee:	4318                	lw	a4,0(a4)
    bdf0:	c636                	sw	a3,12(sp)
    bdf2:	02074963          	bltz	a4,be24 <_vfiprintf_r+0x1a4>
    bdf6:	ce3a                	sw	a4,28(sp)
    bdf8:	00044703          	lbu	a4,0(s0)
    bdfc:	02e00793          	li	a5,46
    be00:	04f71f63          	bne	a4,a5,be5e <_vfiprintf_r+0x1de>
    be04:	00144703          	lbu	a4,1(s0)
    be08:	02a00793          	li	a5,42
    be0c:	02f71b63          	bne	a4,a5,be42 <_vfiprintf_r+0x1c2>
    be10:	47b2                	lw	a5,12(sp)
    be12:	0409                	addi	s0,s0,2
    be14:	00478713          	addi	a4,a5,4
    be18:	439c                	lw	a5,0(a5)
    be1a:	c63a                	sw	a4,12(sp)
    be1c:	0207c163          	bltz	a5,be3e <_vfiprintf_r+0x1be>
    be20:	ca3e                	sw	a5,20(sp)
    be22:	a835                	j	be5e <_vfiprintf_r+0x1de>
    be24:	40e00733          	neg	a4,a4
    be28:	0027e793          	ori	a5,a5,2
    be2c:	ce3a                	sw	a4,28(sp)
    be2e:	c83e                	sw	a5,16(sp)
    be30:	b7e1                	j	bdf8 <_vfiprintf_r+0x178>
    be32:	036787b3          	mul	a5,a5,s6
    be36:	4685                	li	a3,1
    be38:	842e                	mv	s0,a1
    be3a:	97ba                	add	a5,a5,a4
    be3c:	bf2d                	j	bd76 <_vfiprintf_r+0xf6>
    be3e:	57fd                	li	a5,-1
    be40:	b7c5                	j	be20 <_vfiprintf_r+0x1a0>
    be42:	0405                	addi	s0,s0,1
    be44:	ca02                	sw	zero,20(sp)
    be46:	4681                	li	a3,0
    be48:	4781                	li	a5,0
    be4a:	4625                	li	a2,9
    be4c:	00044703          	lbu	a4,0(s0)
    be50:	00140593          	addi	a1,s0,1
    be54:	fd070713          	addi	a4,a4,-48
    be58:	06e67863          	bgeu	a2,a4,bec8 <_vfiprintf_r+0x248>
    be5c:	f2f1                	bnez	a3,be20 <_vfiprintf_r+0x1a0>
    be5e:	00044583          	lbu	a1,0(s0)
    be62:	460d                	li	a2,3
    be64:	00006517          	auipc	a0,0x6
    be68:	93850513          	addi	a0,a0,-1736 # 1179c <__sf_fake_stdout+0x28>
    be6c:	231000ef          	jal	ra,c89c <memchr>
    be70:	cd11                	beqz	a0,be8c <_vfiprintf_r+0x20c>
    be72:	00006797          	auipc	a5,0x6
    be76:	92a78793          	addi	a5,a5,-1750 # 1179c <__sf_fake_stdout+0x28>
    be7a:	8d1d                	sub	a0,a0,a5
    be7c:	04000793          	li	a5,64
    be80:	00a797b3          	sll	a5,a5,a0
    be84:	4542                	lw	a0,16(sp)
    be86:	0405                	addi	s0,s0,1
    be88:	8d5d                	or	a0,a0,a5
    be8a:	c82a                	sw	a0,16(sp)
    be8c:	00044583          	lbu	a1,0(s0)
    be90:	4619                	li	a2,6
    be92:	00006517          	auipc	a0,0x6
    be96:	90e50513          	addi	a0,a0,-1778 # 117a0 <__sf_fake_stdout+0x2c>
    be9a:	00140913          	addi	s2,s0,1
    be9e:	02b10423          	sb	a1,40(sp)
    bea2:	1fb000ef          	jal	ra,c89c <memchr>
    bea6:	c13d                	beqz	a0,bf0c <_vfiprintf_r+0x28c>
    bea8:	ffff4797          	auipc	a5,0xffff4
    beac:	15878793          	addi	a5,a5,344 # 0 <_sinit>
    beb0:	e795                	bnez	a5,bedc <_vfiprintf_r+0x25c>
    beb2:	4742                	lw	a4,16(sp)
    beb4:	47b2                	lw	a5,12(sp)
    beb6:	10077713          	andi	a4,a4,256
    beba:	cf09                	beqz	a4,bed4 <_vfiprintf_r+0x254>
    bebc:	0791                	addi	a5,a5,4
    bebe:	c63e                	sw	a5,12(sp)
    bec0:	5792                	lw	a5,36(sp)
    bec2:	97d2                	add	a5,a5,s4
    bec4:	d23e                	sw	a5,36(sp)
    bec6:	b515                	j	bcea <_vfiprintf_r+0x6a>
    bec8:	036787b3          	mul	a5,a5,s6
    becc:	4685                	li	a3,1
    bece:	842e                	mv	s0,a1
    bed0:	97ba                	add	a5,a5,a4
    bed2:	bfad                	j	be4c <_vfiprintf_r+0x1cc>
    bed4:	079d                	addi	a5,a5,7
    bed6:	9be1                	andi	a5,a5,-8
    bed8:	07a1                	addi	a5,a5,8
    beda:	b7d5                	j	bebe <_vfiprintf_r+0x23e>
    bedc:	0078                	addi	a4,sp,12
    bede:	00000697          	auipc	a3,0x0
    bee2:	d5e68693          	addi	a3,a3,-674 # bc3c <__sfputs_r>
    bee6:	8626                	mv	a2,s1
    bee8:	080c                	addi	a1,sp,16
    beea:	854e                	mv	a0,s3
    beec:	00000097          	auipc	ra,0x0
    bef0:	000000e7          	jalr	zero # 0 <_sinit>
    bef4:	57fd                	li	a5,-1
    bef6:	8a2a                	mv	s4,a0
    bef8:	fcf514e3          	bne	a0,a5,bec0 <_vfiprintf_r+0x240>
    befc:	00c4d783          	lhu	a5,12(s1)
    bf00:	0407f793          	andi	a5,a5,64
    bf04:	ea079ae3          	bnez	a5,bdb8 <_vfiprintf_r+0x138>
    bf08:	5512                	lw	a0,36(sp)
    bf0a:	bd45                	j	bdba <_vfiprintf_r+0x13a>
    bf0c:	0078                	addi	a4,sp,12
    bf0e:	00000697          	auipc	a3,0x0
    bf12:	d2e68693          	addi	a3,a3,-722 # bc3c <__sfputs_r>
    bf16:	8626                	mv	a2,s1
    bf18:	080c                	addi	a1,sp,16
    bf1a:	854e                	mv	a0,s3
    bf1c:	2a01                	jal	c02c <_printf_i>
    bf1e:	bfd9                	j	bef4 <_vfiprintf_r+0x274>

0000bf20 <_printf_common>:
    bf20:	7179                	addi	sp,sp,-48
    bf22:	ca56                	sw	s5,20(sp)
    bf24:	499c                	lw	a5,16(a1)
    bf26:	8aba                	mv	s5,a4
    bf28:	4598                	lw	a4,8(a1)
    bf2a:	d422                	sw	s0,40(sp)
    bf2c:	d226                	sw	s1,36(sp)
    bf2e:	ce4e                	sw	s3,28(sp)
    bf30:	cc52                	sw	s4,24(sp)
    bf32:	d606                	sw	ra,44(sp)
    bf34:	d04a                	sw	s2,32(sp)
    bf36:	c85a                	sw	s6,16(sp)
    bf38:	c65e                	sw	s7,12(sp)
    bf3a:	89aa                	mv	s3,a0
    bf3c:	842e                	mv	s0,a1
    bf3e:	84b2                	mv	s1,a2
    bf40:	8a36                	mv	s4,a3
    bf42:	00e7d363          	bge	a5,a4,bf48 <_printf_common+0x28>
    bf46:	87ba                	mv	a5,a4
    bf48:	c09c                	sw	a5,0(s1)
    bf4a:	04344703          	lbu	a4,67(s0)
    bf4e:	c319                	beqz	a4,bf54 <_printf_common+0x34>
    bf50:	0785                	addi	a5,a5,1
    bf52:	c09c                	sw	a5,0(s1)
    bf54:	401c                	lw	a5,0(s0)
    bf56:	0207f793          	andi	a5,a5,32
    bf5a:	c781                	beqz	a5,bf62 <_printf_common+0x42>
    bf5c:	409c                	lw	a5,0(s1)
    bf5e:	0789                	addi	a5,a5,2
    bf60:	c09c                	sw	a5,0(s1)
    bf62:	00042903          	lw	s2,0(s0)
    bf66:	00697913          	andi	s2,s2,6
    bf6a:	00091a63          	bnez	s2,bf7e <_printf_common+0x5e>
    bf6e:	01940b13          	addi	s6,s0,25
    bf72:	5bfd                	li	s7,-1
    bf74:	445c                	lw	a5,12(s0)
    bf76:	4098                	lw	a4,0(s1)
    bf78:	8f99                	sub	a5,a5,a4
    bf7a:	04f94c63          	blt	s2,a5,bfd2 <_printf_common+0xb2>
    bf7e:	401c                	lw	a5,0(s0)
    bf80:	04344683          	lbu	a3,67(s0)
    bf84:	0207f793          	andi	a5,a5,32
    bf88:	00d036b3          	snez	a3,a3
    bf8c:	eba5                	bnez	a5,bffc <_printf_common+0xdc>
    bf8e:	04340613          	addi	a2,s0,67
    bf92:	85d2                	mv	a1,s4
    bf94:	854e                	mv	a0,s3
    bf96:	9a82                	jalr	s5
    bf98:	57fd                	li	a5,-1
    bf9a:	04f50363          	beq	a0,a5,bfe0 <_printf_common+0xc0>
    bf9e:	401c                	lw	a5,0(s0)
    bfa0:	4611                	li	a2,4
    bfa2:	4098                	lw	a4,0(s1)
    bfa4:	8b99                	andi	a5,a5,6
    bfa6:	4454                	lw	a3,12(s0)
    bfa8:	4481                	li	s1,0
    bfaa:	00c79763          	bne	a5,a2,bfb8 <_printf_common+0x98>
    bfae:	40e684b3          	sub	s1,a3,a4
    bfb2:	0004d363          	bgez	s1,bfb8 <_printf_common+0x98>
    bfb6:	4481                	li	s1,0
    bfb8:	441c                	lw	a5,8(s0)
    bfba:	4818                	lw	a4,16(s0)
    bfbc:	00f75463          	bge	a4,a5,bfc4 <_printf_common+0xa4>
    bfc0:	8f99                	sub	a5,a5,a4
    bfc2:	94be                	add	s1,s1,a5
    bfc4:	4901                	li	s2,0
    bfc6:	0469                	addi	s0,s0,26
    bfc8:	5b7d                	li	s6,-1
    bfca:	05249863          	bne	s1,s2,c01a <_printf_common+0xfa>
    bfce:	4501                	li	a0,0
    bfd0:	a809                	j	bfe2 <_printf_common+0xc2>
    bfd2:	4685                	li	a3,1
    bfd4:	865a                	mv	a2,s6
    bfd6:	85d2                	mv	a1,s4
    bfd8:	854e                	mv	a0,s3
    bfda:	9a82                	jalr	s5
    bfdc:	01751e63          	bne	a0,s7,bff8 <_printf_common+0xd8>
    bfe0:	557d                	li	a0,-1
    bfe2:	50b2                	lw	ra,44(sp)
    bfe4:	5422                	lw	s0,40(sp)
    bfe6:	5492                	lw	s1,36(sp)
    bfe8:	5902                	lw	s2,32(sp)
    bfea:	49f2                	lw	s3,28(sp)
    bfec:	4a62                	lw	s4,24(sp)
    bfee:	4ad2                	lw	s5,20(sp)
    bff0:	4b42                	lw	s6,16(sp)
    bff2:	4bb2                	lw	s7,12(sp)
    bff4:	6145                	addi	sp,sp,48
    bff6:	8082                	ret
    bff8:	0905                	addi	s2,s2,1
    bffa:	bfad                	j	bf74 <_printf_common+0x54>
    bffc:	00d40733          	add	a4,s0,a3
    c000:	03000613          	li	a2,48
    c004:	04c701a3          	sb	a2,67(a4)
    c008:	04544703          	lbu	a4,69(s0)
    c00c:	00168793          	addi	a5,a3,1
    c010:	97a2                	add	a5,a5,s0
    c012:	0689                	addi	a3,a3,2
    c014:	04e781a3          	sb	a4,67(a5)
    c018:	bf9d                	j	bf8e <_printf_common+0x6e>
    c01a:	4685                	li	a3,1
    c01c:	8622                	mv	a2,s0
    c01e:	85d2                	mv	a1,s4
    c020:	854e                	mv	a0,s3
    c022:	9a82                	jalr	s5
    c024:	fb650ee3          	beq	a0,s6,bfe0 <_printf_common+0xc0>
    c028:	0905                	addi	s2,s2,1
    c02a:	b745                	j	bfca <_printf_common+0xaa>

0000c02c <_printf_i>:
    c02c:	7179                	addi	sp,sp,-48
    c02e:	d422                	sw	s0,40(sp)
    c030:	d226                	sw	s1,36(sp)
    c032:	d04a                	sw	s2,32(sp)
    c034:	ce4e                	sw	s3,28(sp)
    c036:	d606                	sw	ra,44(sp)
    c038:	cc52                	sw	s4,24(sp)
    c03a:	ca56                	sw	s5,20(sp)
    c03c:	c85a                	sw	s6,16(sp)
    c03e:	89b6                	mv	s3,a3
    c040:	0185c683          	lbu	a3,24(a1)
    c044:	06900793          	li	a5,105
    c048:	8932                	mv	s2,a2
    c04a:	84aa                	mv	s1,a0
    c04c:	842e                	mv	s0,a1
    c04e:	04358613          	addi	a2,a1,67
    c052:	02f68d63          	beq	a3,a5,c08c <_printf_i+0x60>
    c056:	06d7e263          	bltu	a5,a3,c0ba <_printf_i+0x8e>
    c05a:	05800793          	li	a5,88
    c05e:	18f68963          	beq	a3,a5,c1f0 <_printf_i+0x1c4>
    c062:	00d7ed63          	bltu	a5,a3,c07c <_printf_i+0x50>
    c066:	22068263          	beqz	a3,c28a <_printf_i+0x25e>
    c06a:	04300793          	li	a5,67
    c06e:	0af68f63          	beq	a3,a5,c12c <_printf_i+0x100>
    c072:	04240a93          	addi	s5,s0,66
    c076:	04d40123          	sb	a3,66(s0)
    c07a:	a0d1                	j	c13e <_printf_i+0x112>
    c07c:	06300793          	li	a5,99
    c080:	0af68663          	beq	a3,a5,c12c <_printf_i+0x100>
    c084:	06400793          	li	a5,100
    c088:	fef695e3          	bne	a3,a5,c072 <_printf_i+0x46>
    c08c:	401c                	lw	a5,0(s0)
    c08e:	4308                	lw	a0,0(a4)
    c090:	0807f693          	andi	a3,a5,128
    c094:	00450593          	addi	a1,a0,4
    c098:	c6cd                	beqz	a3,c142 <_printf_i+0x116>
    c09a:	411c                	lw	a5,0(a0)
    c09c:	c30c                	sw	a1,0(a4)
    c09e:	0007d863          	bgez	a5,c0ae <_printf_i+0x82>
    c0a2:	02d00713          	li	a4,45
    c0a6:	40f007b3          	neg	a5,a5
    c0aa:	04e401a3          	sb	a4,67(s0)
    c0ae:	00005697          	auipc	a3,0x5
    c0b2:	6fa68693          	addi	a3,a3,1786 # 117a8 <__sf_fake_stdout+0x34>
    c0b6:	4729                	li	a4,10
    c0b8:	a875                	j	c174 <_printf_i+0x148>
    c0ba:	07000793          	li	a5,112
    c0be:	16f68563          	beq	a3,a5,c228 <_printf_i+0x1fc>
    c0c2:	02d7e563          	bltu	a5,a3,c0ec <_printf_i+0xc0>
    c0c6:	06e00793          	li	a5,110
    c0ca:	18f68c63          	beq	a3,a5,c262 <_printf_i+0x236>
    c0ce:	06f00793          	li	a5,111
    c0d2:	faf690e3          	bne	a3,a5,c072 <_printf_i+0x46>
    c0d6:	400c                	lw	a1,0(s0)
    c0d8:	431c                	lw	a5,0(a4)
    c0da:	0805f813          	andi	a6,a1,128
    c0de:	00478513          	addi	a0,a5,4
    c0e2:	06080863          	beqz	a6,c152 <_printf_i+0x126>
    c0e6:	c308                	sw	a0,0(a4)
    c0e8:	439c                	lw	a5,0(a5)
    c0ea:	a895                	j	c15e <_printf_i+0x132>
    c0ec:	07500793          	li	a5,117
    c0f0:	fef683e3          	beq	a3,a5,c0d6 <_printf_i+0xaa>
    c0f4:	07800793          	li	a5,120
    c0f8:	12f68c63          	beq	a3,a5,c230 <_printf_i+0x204>
    c0fc:	07300793          	li	a5,115
    c100:	f6f699e3          	bne	a3,a5,c072 <_printf_i+0x46>
    c104:	431c                	lw	a5,0(a4)
    c106:	41d0                	lw	a2,4(a1)
    c108:	4581                	li	a1,0
    c10a:	00478693          	addi	a3,a5,4
    c10e:	c314                	sw	a3,0(a4)
    c110:	0007aa83          	lw	s5,0(a5)
    c114:	8556                	mv	a0,s5
    c116:	786000ef          	jal	ra,c89c <memchr>
    c11a:	c501                	beqz	a0,c122 <_printf_i+0xf6>
    c11c:	41550533          	sub	a0,a0,s5
    c120:	c048                	sw	a0,4(s0)
    c122:	405c                	lw	a5,4(s0)
    c124:	c81c                	sw	a5,16(s0)
    c126:	040401a3          	sb	zero,67(s0)
    c12a:	a871                	j	c1c6 <_printf_i+0x19a>
    c12c:	431c                	lw	a5,0(a4)
    c12e:	04240a93          	addi	s5,s0,66
    c132:	00478693          	addi	a3,a5,4
    c136:	439c                	lw	a5,0(a5)
    c138:	c314                	sw	a3,0(a4)
    c13a:	04f40123          	sb	a5,66(s0)
    c13e:	4785                	li	a5,1
    c140:	b7d5                	j	c124 <_printf_i+0xf8>
    c142:	0407f693          	andi	a3,a5,64
    c146:	411c                	lw	a5,0(a0)
    c148:	c30c                	sw	a1,0(a4)
    c14a:	dab1                	beqz	a3,c09e <_printf_i+0x72>
    c14c:	07c2                	slli	a5,a5,0x10
    c14e:	87c1                	srai	a5,a5,0x10
    c150:	b7b9                	j	c09e <_printf_i+0x72>
    c152:	0405f593          	andi	a1,a1,64
    c156:	c308                	sw	a0,0(a4)
    c158:	d9c1                	beqz	a1,c0e8 <_printf_i+0xbc>
    c15a:	0007d783          	lhu	a5,0(a5)
    c15e:	06f00713          	li	a4,111
    c162:	0ee68863          	beq	a3,a4,c252 <_printf_i+0x226>
    c166:	00005697          	auipc	a3,0x5
    c16a:	64268693          	addi	a3,a3,1602 # 117a8 <__sf_fake_stdout+0x34>
    c16e:	4729                	li	a4,10
    c170:	040401a3          	sb	zero,67(s0)
    c174:	404c                	lw	a1,4(s0)
    c176:	c40c                	sw	a1,8(s0)
    c178:	0005c563          	bltz	a1,c182 <_printf_i+0x156>
    c17c:	4008                	lw	a0,0(s0)
    c17e:	996d                	andi	a0,a0,-5
    c180:	c008                	sw	a0,0(s0)
    c182:	e399                	bnez	a5,c188 <_printf_i+0x15c>
    c184:	8ab2                	mv	s5,a2
    c186:	cd91                	beqz	a1,c1a2 <_printf_i+0x176>
    c188:	8ab2                	mv	s5,a2
    c18a:	02e7f5b3          	remu	a1,a5,a4
    c18e:	1afd                	addi	s5,s5,-1
    c190:	95b6                	add	a1,a1,a3
    c192:	0005c583          	lbu	a1,0(a1)
    c196:	00ba8023          	sb	a1,0(s5)
    c19a:	02e7d5b3          	divu	a1,a5,a4
    c19e:	0ce7f063          	bgeu	a5,a4,c25e <_printf_i+0x232>
    c1a2:	47a1                	li	a5,8
    c1a4:	00f71e63          	bne	a4,a5,c1c0 <_printf_i+0x194>
    c1a8:	401c                	lw	a5,0(s0)
    c1aa:	8b85                	andi	a5,a5,1
    c1ac:	cb91                	beqz	a5,c1c0 <_printf_i+0x194>
    c1ae:	4058                	lw	a4,4(s0)
    c1b0:	481c                	lw	a5,16(s0)
    c1b2:	00e7c763          	blt	a5,a4,c1c0 <_printf_i+0x194>
    c1b6:	03000793          	li	a5,48
    c1ba:	fefa8fa3          	sb	a5,-1(s5)
    c1be:	1afd                	addi	s5,s5,-1
    c1c0:	41560633          	sub	a2,a2,s5
    c1c4:	c810                	sw	a2,16(s0)
    c1c6:	874e                	mv	a4,s3
    c1c8:	86ca                	mv	a3,s2
    c1ca:	0070                	addi	a2,sp,12
    c1cc:	85a2                	mv	a1,s0
    c1ce:	8526                	mv	a0,s1
    c1d0:	d51ff0ef          	jal	ra,bf20 <_printf_common>
    c1d4:	5a7d                	li	s4,-1
    c1d6:	0b451e63          	bne	a0,s4,c292 <_printf_i+0x266>
    c1da:	557d                	li	a0,-1
    c1dc:	50b2                	lw	ra,44(sp)
    c1de:	5422                	lw	s0,40(sp)
    c1e0:	5492                	lw	s1,36(sp)
    c1e2:	5902                	lw	s2,32(sp)
    c1e4:	49f2                	lw	s3,28(sp)
    c1e6:	4a62                	lw	s4,24(sp)
    c1e8:	4ad2                	lw	s5,20(sp)
    c1ea:	4b42                	lw	s6,16(sp)
    c1ec:	6145                	addi	sp,sp,48
    c1ee:	8082                	ret
    c1f0:	04d582a3          	sb	a3,69(a1)
    c1f4:	00005697          	auipc	a3,0x5
    c1f8:	5b468693          	addi	a3,a3,1460 # 117a8 <__sf_fake_stdout+0x34>
    c1fc:	400c                	lw	a1,0(s0)
    c1fe:	4308                	lw	a0,0(a4)
    c200:	0805f813          	andi	a6,a1,128
    c204:	411c                	lw	a5,0(a0)
    c206:	0511                	addi	a0,a0,4
    c208:	02080d63          	beqz	a6,c242 <_printf_i+0x216>
    c20c:	c308                	sw	a0,0(a4)
    c20e:	0015f713          	andi	a4,a1,1
    c212:	c701                	beqz	a4,c21a <_printf_i+0x1ee>
    c214:	0205e593          	ori	a1,a1,32
    c218:	c00c                	sw	a1,0(s0)
    c21a:	4741                	li	a4,16
    c21c:	fbb1                	bnez	a5,c170 <_printf_i+0x144>
    c21e:	400c                	lw	a1,0(s0)
    c220:	fdf5f593          	andi	a1,a1,-33
    c224:	c00c                	sw	a1,0(s0)
    c226:	b7a9                	j	c170 <_printf_i+0x144>
    c228:	419c                	lw	a5,0(a1)
    c22a:	0207e793          	ori	a5,a5,32
    c22e:	c19c                	sw	a5,0(a1)
    c230:	07800793          	li	a5,120
    c234:	04f402a3          	sb	a5,69(s0)
    c238:	00005697          	auipc	a3,0x5
    c23c:	58468693          	addi	a3,a3,1412 # 117bc <__sf_fake_stdout+0x48>
    c240:	bf75                	j	c1fc <_printf_i+0x1d0>
    c242:	0405f813          	andi	a6,a1,64
    c246:	c308                	sw	a0,0(a4)
    c248:	fc0803e3          	beqz	a6,c20e <_printf_i+0x1e2>
    c24c:	07c2                	slli	a5,a5,0x10
    c24e:	83c1                	srli	a5,a5,0x10
    c250:	bf7d                	j	c20e <_printf_i+0x1e2>
    c252:	00005697          	auipc	a3,0x5
    c256:	55668693          	addi	a3,a3,1366 # 117a8 <__sf_fake_stdout+0x34>
    c25a:	4721                	li	a4,8
    c25c:	bf11                	j	c170 <_printf_i+0x144>
    c25e:	87ae                	mv	a5,a1
    c260:	b72d                	j	c18a <_printf_i+0x15e>
    c262:	4194                	lw	a3,0(a1)
    c264:	431c                	lw	a5,0(a4)
    c266:	49cc                	lw	a1,20(a1)
    c268:	0806f813          	andi	a6,a3,128
    c26c:	00478513          	addi	a0,a5,4
    c270:	00080663          	beqz	a6,c27c <_printf_i+0x250>
    c274:	c308                	sw	a0,0(a4)
    c276:	439c                	lw	a5,0(a5)
    c278:	c38c                	sw	a1,0(a5)
    c27a:	a801                	j	c28a <_printf_i+0x25e>
    c27c:	c308                	sw	a0,0(a4)
    c27e:	0406f693          	andi	a3,a3,64
    c282:	439c                	lw	a5,0(a5)
    c284:	daf5                	beqz	a3,c278 <_printf_i+0x24c>
    c286:	00b79023          	sh	a1,0(a5)
    c28a:	00042823          	sw	zero,16(s0)
    c28e:	8ab2                	mv	s5,a2
    c290:	bf1d                	j	c1c6 <_printf_i+0x19a>
    c292:	4814                	lw	a3,16(s0)
    c294:	8656                	mv	a2,s5
    c296:	85ca                	mv	a1,s2
    c298:	8526                	mv	a0,s1
    c29a:	9982                	jalr	s3
    c29c:	f3450fe3          	beq	a0,s4,c1da <_printf_i+0x1ae>
    c2a0:	401c                	lw	a5,0(s0)
    c2a2:	8b89                	andi	a5,a5,2
    c2a4:	e78d                	bnez	a5,c2ce <_printf_i+0x2a2>
    c2a6:	47b2                	lw	a5,12(sp)
    c2a8:	4448                	lw	a0,12(s0)
    c2aa:	f2f559e3          	bge	a0,a5,c1dc <_printf_i+0x1b0>
    c2ae:	853e                	mv	a0,a5
    c2b0:	b735                	j	c1dc <_printf_i+0x1b0>
    c2b2:	4685                	li	a3,1
    c2b4:	8656                	mv	a2,s5
    c2b6:	85ca                	mv	a1,s2
    c2b8:	8526                	mv	a0,s1
    c2ba:	9982                	jalr	s3
    c2bc:	f1650fe3          	beq	a0,s6,c1da <_printf_i+0x1ae>
    c2c0:	0a05                	addi	s4,s4,1
    c2c2:	445c                	lw	a5,12(s0)
    c2c4:	4732                	lw	a4,12(sp)
    c2c6:	8f99                	sub	a5,a5,a4
    c2c8:	fefa45e3          	blt	s4,a5,c2b2 <_printf_i+0x286>
    c2cc:	bfe9                	j	c2a6 <_printf_i+0x27a>
    c2ce:	4a01                	li	s4,0
    c2d0:	01940a93          	addi	s5,s0,25
    c2d4:	5b7d                	li	s6,-1
    c2d6:	b7f5                	j	c2c2 <_printf_i+0x296>

0000c2d8 <__sread>:
    c2d8:	1141                	addi	sp,sp,-16
    c2da:	c422                	sw	s0,8(sp)
    c2dc:	842e                	mv	s0,a1
    c2de:	00e59583          	lh	a1,14(a1)
    c2e2:	c606                	sw	ra,12(sp)
    c2e4:	2d95                	jal	c958 <_read_r>
    c2e6:	00054963          	bltz	a0,c2f8 <__sread+0x20>
    c2ea:	487c                	lw	a5,84(s0)
    c2ec:	97aa                	add	a5,a5,a0
    c2ee:	c87c                	sw	a5,84(s0)
    c2f0:	40b2                	lw	ra,12(sp)
    c2f2:	4422                	lw	s0,8(sp)
    c2f4:	0141                	addi	sp,sp,16
    c2f6:	8082                	ret
    c2f8:	00c45783          	lhu	a5,12(s0)
    c2fc:	777d                	lui	a4,0xfffff
    c2fe:	177d                	addi	a4,a4,-1
    c300:	8ff9                	and	a5,a5,a4
    c302:	00f41623          	sh	a5,12(s0)
    c306:	b7ed                	j	c2f0 <__sread+0x18>

0000c308 <__swrite>:
    c308:	00c5d783          	lhu	a5,12(a1)
    c30c:	1101                	addi	sp,sp,-32
    c30e:	cc22                	sw	s0,24(sp)
    c310:	ca26                	sw	s1,20(sp)
    c312:	c84a                	sw	s2,16(sp)
    c314:	c64e                	sw	s3,12(sp)
    c316:	ce06                	sw	ra,28(sp)
    c318:	1007f793          	andi	a5,a5,256
    c31c:	84aa                	mv	s1,a0
    c31e:	842e                	mv	s0,a1
    c320:	8932                	mv	s2,a2
    c322:	89b6                	mv	s3,a3
    c324:	c791                	beqz	a5,c330 <__swrite+0x28>
    c326:	00e59583          	lh	a1,14(a1)
    c32a:	4689                	li	a3,2
    c32c:	4601                	li	a2,0
    c32e:	2189                	jal	c770 <_lseek_r>
    c330:	00c45783          	lhu	a5,12(s0)
    c334:	777d                	lui	a4,0xfffff
    c336:	177d                	addi	a4,a4,-1
    c338:	8ff9                	and	a5,a5,a4
    c33a:	00f41623          	sh	a5,12(s0)
    c33e:	00e41583          	lh	a1,14(s0)
    c342:	4462                	lw	s0,24(sp)
    c344:	40f2                	lw	ra,28(sp)
    c346:	86ce                	mv	a3,s3
    c348:	864a                	mv	a2,s2
    c34a:	49b2                	lw	s3,12(sp)
    c34c:	4942                	lw	s2,16(sp)
    c34e:	8526                	mv	a0,s1
    c350:	44d2                	lw	s1,20(sp)
    c352:	6105                	addi	sp,sp,32
    c354:	a201                	j	c454 <_write_r>

0000c356 <__sseek>:
    c356:	1141                	addi	sp,sp,-16
    c358:	c422                	sw	s0,8(sp)
    c35a:	842e                	mv	s0,a1
    c35c:	00e59583          	lh	a1,14(a1)
    c360:	c606                	sw	ra,12(sp)
    c362:	2139                	jal	c770 <_lseek_r>
    c364:	57fd                	li	a5,-1
    c366:	00c45703          	lhu	a4,12(s0)
    c36a:	00f51b63          	bne	a0,a5,c380 <__sseek+0x2a>
    c36e:	77fd                	lui	a5,0xfffff
    c370:	17fd                	addi	a5,a5,-1
    c372:	8ff9                	and	a5,a5,a4
    c374:	00f41623          	sh	a5,12(s0)
    c378:	40b2                	lw	ra,12(sp)
    c37a:	4422                	lw	s0,8(sp)
    c37c:	0141                	addi	sp,sp,16
    c37e:	8082                	ret
    c380:	6785                	lui	a5,0x1
    c382:	8fd9                	or	a5,a5,a4
    c384:	00f41623          	sh	a5,12(s0)
    c388:	c868                	sw	a0,84(s0)
    c38a:	b7fd                	j	c378 <__sseek+0x22>

0000c38c <__sclose>:
    c38c:	00e59583          	lh	a1,14(a1)
    c390:	a429                	j	c59a <_close_r>

0000c392 <__swbuf_r>:
    c392:	1101                	addi	sp,sp,-32
    c394:	cc22                	sw	s0,24(sp)
    c396:	ca26                	sw	s1,20(sp)
    c398:	c84a                	sw	s2,16(sp)
    c39a:	ce06                	sw	ra,28(sp)
    c39c:	c64e                	sw	s3,12(sp)
    c39e:	84aa                	mv	s1,a0
    c3a0:	892e                	mv	s2,a1
    c3a2:	8432                	mv	s0,a2
    c3a4:	c509                	beqz	a0,c3ae <__swbuf_r+0x1c>
    c3a6:	4d1c                	lw	a5,24(a0)
    c3a8:	e399                	bnez	a5,c3ae <__swbuf_r+0x1c>
    c3aa:	b80ff0ef          	jal	ra,b72a <__sinit>
    c3ae:	00005797          	auipc	a5,0x5
    c3b2:	3a678793          	addi	a5,a5,934 # 11754 <__sf_fake_stdin>
    c3b6:	06f41963          	bne	s0,a5,c428 <__swbuf_r+0x96>
    c3ba:	40c0                	lw	s0,4(s1)
    c3bc:	4c1c                	lw	a5,24(s0)
    c3be:	c41c                	sw	a5,8(s0)
    c3c0:	00c45783          	lhu	a5,12(s0)
    c3c4:	8ba1                	andi	a5,a5,8
    c3c6:	c3c9                	beqz	a5,c448 <__swbuf_r+0xb6>
    c3c8:	481c                	lw	a5,16(s0)
    c3ca:	cfbd                	beqz	a5,c448 <__swbuf_r+0xb6>
    c3cc:	481c                	lw	a5,16(s0)
    c3ce:	4008                	lw	a0,0(s0)
    c3d0:	0ff97993          	andi	s3,s2,255
    c3d4:	0ff97913          	andi	s2,s2,255
    c3d8:	8d1d                	sub	a0,a0,a5
    c3da:	485c                	lw	a5,20(s0)
    c3dc:	00f54663          	blt	a0,a5,c3e8 <__swbuf_r+0x56>
    c3e0:	85a2                	mv	a1,s0
    c3e2:	8526                	mv	a0,s1
    c3e4:	2615                	jal	c708 <_fflush_r>
    c3e6:	e52d                	bnez	a0,c450 <__swbuf_r+0xbe>
    c3e8:	441c                	lw	a5,8(s0)
    c3ea:	0505                	addi	a0,a0,1
    c3ec:	17fd                	addi	a5,a5,-1
    c3ee:	c41c                	sw	a5,8(s0)
    c3f0:	401c                	lw	a5,0(s0)
    c3f2:	00178713          	addi	a4,a5,1
    c3f6:	c018                	sw	a4,0(s0)
    c3f8:	01378023          	sb	s3,0(a5)
    c3fc:	485c                	lw	a5,20(s0)
    c3fe:	00a78963          	beq	a5,a0,c410 <__swbuf_r+0x7e>
    c402:	00c45783          	lhu	a5,12(s0)
    c406:	8b85                	andi	a5,a5,1
    c408:	cb81                	beqz	a5,c418 <__swbuf_r+0x86>
    c40a:	47a9                	li	a5,10
    c40c:	00f91663          	bne	s2,a5,c418 <__swbuf_r+0x86>
    c410:	85a2                	mv	a1,s0
    c412:	8526                	mv	a0,s1
    c414:	2cd5                	jal	c708 <_fflush_r>
    c416:	ed0d                	bnez	a0,c450 <__swbuf_r+0xbe>
    c418:	40f2                	lw	ra,28(sp)
    c41a:	4462                	lw	s0,24(sp)
    c41c:	854a                	mv	a0,s2
    c41e:	44d2                	lw	s1,20(sp)
    c420:	4942                	lw	s2,16(sp)
    c422:	49b2                	lw	s3,12(sp)
    c424:	6105                	addi	sp,sp,32
    c426:	8082                	ret
    c428:	00005797          	auipc	a5,0x5
    c42c:	34c78793          	addi	a5,a5,844 # 11774 <__sf_fake_stdout>
    c430:	00f41463          	bne	s0,a5,c438 <__swbuf_r+0xa6>
    c434:	4480                	lw	s0,8(s1)
    c436:	b759                	j	c3bc <__swbuf_r+0x2a>
    c438:	00005797          	auipc	a5,0x5
    c43c:	2fc78793          	addi	a5,a5,764 # 11734 <__sf_fake_stderr>
    c440:	f6f41ee3          	bne	s0,a5,c3bc <__swbuf_r+0x2a>
    c444:	44c0                	lw	s0,12(s1)
    c446:	bf9d                	j	c3bc <__swbuf_r+0x2a>
    c448:	85a2                	mv	a1,s0
    c44a:	8526                	mv	a0,s1
    c44c:	283d                	jal	c48a <__swsetup_r>
    c44e:	dd3d                	beqz	a0,c3cc <__swbuf_r+0x3a>
    c450:	597d                	li	s2,-1
    c452:	b7d9                	j	c418 <__swbuf_r+0x86>

0000c454 <_write_r>:
    c454:	1141                	addi	sp,sp,-16
    c456:	c422                	sw	s0,8(sp)
    c458:	842a                	mv	s0,a0
    c45a:	852e                	mv	a0,a1
    c45c:	85b2                	mv	a1,a2
    c45e:	8636                	mv	a2,a3
    c460:	1fff9797          	auipc	a5,0x1fff9
    c464:	fc07a223          	sw	zero,-60(a5) # 20005424 <errno>
    c468:	c606                	sw	ra,12(sp)
    c46a:	de5fc0ef          	jal	ra,924e <_write>
    c46e:	57fd                	li	a5,-1
    c470:	00f51963          	bne	a0,a5,c482 <_write_r+0x2e>
    c474:	1fff9797          	auipc	a5,0x1fff9
    c478:	fb078793          	addi	a5,a5,-80 # 20005424 <errno>
    c47c:	439c                	lw	a5,0(a5)
    c47e:	c391                	beqz	a5,c482 <_write_r+0x2e>
    c480:	c01c                	sw	a5,0(s0)
    c482:	40b2                	lw	ra,12(sp)
    c484:	4422                	lw	s0,8(sp)
    c486:	0141                	addi	sp,sp,16
    c488:	8082                	ret

0000c48a <__swsetup_r>:
    c48a:	1141                	addi	sp,sp,-16
    c48c:	83818793          	addi	a5,gp,-1992 # 20003360 <_impure_ptr>
    c490:	c226                	sw	s1,4(sp)
    c492:	4384                	lw	s1,0(a5)
    c494:	c422                	sw	s0,8(sp)
    c496:	c04a                	sw	s2,0(sp)
    c498:	c606                	sw	ra,12(sp)
    c49a:	892a                	mv	s2,a0
    c49c:	842e                	mv	s0,a1
    c49e:	c491                	beqz	s1,c4aa <__swsetup_r+0x20>
    c4a0:	4c9c                	lw	a5,24(s1)
    c4a2:	e781                	bnez	a5,c4aa <__swsetup_r+0x20>
    c4a4:	8526                	mv	a0,s1
    c4a6:	a84ff0ef          	jal	ra,b72a <__sinit>
    c4aa:	00005797          	auipc	a5,0x5
    c4ae:	2aa78793          	addi	a5,a5,682 # 11754 <__sf_fake_stdin>
    c4b2:	02f41c63          	bne	s0,a5,c4ea <__swsetup_r+0x60>
    c4b6:	40c0                	lw	s0,4(s1)
    c4b8:	00c41703          	lh	a4,12(s0)
    c4bc:	01071793          	slli	a5,a4,0x10
    c4c0:	83c1                	srli	a5,a5,0x10
    c4c2:	0087f693          	andi	a3,a5,8
    c4c6:	eebd                	bnez	a3,c544 <__swsetup_r+0xba>
    c4c8:	0107f693          	andi	a3,a5,16
    c4cc:	ee9d                	bnez	a3,c50a <__swsetup_r+0x80>
    c4ce:	47a5                	li	a5,9
    c4d0:	00f92023          	sw	a5,0(s2)
    c4d4:	04076713          	ori	a4,a4,64
    c4d8:	00e41623          	sh	a4,12(s0)
    c4dc:	557d                	li	a0,-1
    c4de:	40b2                	lw	ra,12(sp)
    c4e0:	4422                	lw	s0,8(sp)
    c4e2:	4492                	lw	s1,4(sp)
    c4e4:	4902                	lw	s2,0(sp)
    c4e6:	0141                	addi	sp,sp,16
    c4e8:	8082                	ret
    c4ea:	00005797          	auipc	a5,0x5
    c4ee:	28a78793          	addi	a5,a5,650 # 11774 <__sf_fake_stdout>
    c4f2:	00f41463          	bne	s0,a5,c4fa <__swsetup_r+0x70>
    c4f6:	4480                	lw	s0,8(s1)
    c4f8:	b7c1                	j	c4b8 <__swsetup_r+0x2e>
    c4fa:	00005797          	auipc	a5,0x5
    c4fe:	23a78793          	addi	a5,a5,570 # 11734 <__sf_fake_stderr>
    c502:	faf41be3          	bne	s0,a5,c4b8 <__swsetup_r+0x2e>
    c506:	44c0                	lw	s0,12(s1)
    c508:	bf45                	j	c4b8 <__swsetup_r+0x2e>
    c50a:	8b91                	andi	a5,a5,4
    c50c:	c795                	beqz	a5,c538 <__swsetup_r+0xae>
    c50e:	584c                	lw	a1,52(s0)
    c510:	c991                	beqz	a1,c524 <__swsetup_r+0x9a>
    c512:	04440793          	addi	a5,s0,68
    c516:	00f58563          	beq	a1,a5,c520 <__swsetup_r+0x96>
    c51a:	854a                	mv	a0,s2
    c51c:	ec3fe0ef          	jal	ra,b3de <_free_r>
    c520:	02042a23          	sw	zero,52(s0)
    c524:	00c45783          	lhu	a5,12(s0)
    c528:	00042223          	sw	zero,4(s0)
    c52c:	fdb7f793          	andi	a5,a5,-37
    c530:	00f41623          	sh	a5,12(s0)
    c534:	481c                	lw	a5,16(s0)
    c536:	c01c                	sw	a5,0(s0)
    c538:	00c45783          	lhu	a5,12(s0)
    c53c:	0087e793          	ori	a5,a5,8
    c540:	00f41623          	sh	a5,12(s0)
    c544:	481c                	lw	a5,16(s0)
    c546:	ef81                	bnez	a5,c55e <__swsetup_r+0xd4>
    c548:	00c45783          	lhu	a5,12(s0)
    c54c:	20000713          	li	a4,512
    c550:	2807f793          	andi	a5,a5,640
    c554:	00e78563          	beq	a5,a4,c55e <__swsetup_r+0xd4>
    c558:	85a2                	mv	a1,s0
    c55a:	854a                	mv	a0,s2
    c55c:	2445                	jal	c7fc <__smakebuf_r>
    c55e:	00c45783          	lhu	a5,12(s0)
    c562:	0017f713          	andi	a4,a5,1
    c566:	c705                	beqz	a4,c58e <__swsetup_r+0x104>
    c568:	485c                	lw	a5,20(s0)
    c56a:	00042423          	sw	zero,8(s0)
    c56e:	40f007b3          	neg	a5,a5
    c572:	cc1c                	sw	a5,24(s0)
    c574:	481c                	lw	a5,16(s0)
    c576:	4501                	li	a0,0
    c578:	f3bd                	bnez	a5,c4de <__swsetup_r+0x54>
    c57a:	00c41783          	lh	a5,12(s0)
    c57e:	0807f713          	andi	a4,a5,128
    c582:	df31                	beqz	a4,c4de <__swsetup_r+0x54>
    c584:	0407e793          	ori	a5,a5,64
    c588:	00f41623          	sh	a5,12(s0)
    c58c:	bf81                	j	c4dc <__swsetup_r+0x52>
    c58e:	8b89                	andi	a5,a5,2
    c590:	4701                	li	a4,0
    c592:	e391                	bnez	a5,c596 <__swsetup_r+0x10c>
    c594:	4858                	lw	a4,20(s0)
    c596:	c418                	sw	a4,8(s0)
    c598:	bff1                	j	c574 <__swsetup_r+0xea>

0000c59a <_close_r>:
    c59a:	1141                	addi	sp,sp,-16
    c59c:	c422                	sw	s0,8(sp)
    c59e:	842a                	mv	s0,a0
    c5a0:	852e                	mv	a0,a1
    c5a2:	1fff9797          	auipc	a5,0x1fff9
    c5a6:	e807a123          	sw	zero,-382(a5) # 20005424 <errno>
    c5aa:	c606                	sw	ra,12(sp)
    c5ac:	2999                	jal	ca02 <_close>
    c5ae:	57fd                	li	a5,-1
    c5b0:	00f51963          	bne	a0,a5,c5c2 <_close_r+0x28>
    c5b4:	1fff9797          	auipc	a5,0x1fff9
    c5b8:	e7078793          	addi	a5,a5,-400 # 20005424 <errno>
    c5bc:	439c                	lw	a5,0(a5)
    c5be:	c391                	beqz	a5,c5c2 <_close_r+0x28>
    c5c0:	c01c                	sw	a5,0(s0)
    c5c2:	40b2                	lw	ra,12(sp)
    c5c4:	4422                	lw	s0,8(sp)
    c5c6:	0141                	addi	sp,sp,16
    c5c8:	8082                	ret

0000c5ca <__sflush_r>:
    c5ca:	00c5d783          	lhu	a5,12(a1)
    c5ce:	1101                	addi	sp,sp,-32
    c5d0:	cc22                	sw	s0,24(sp)
    c5d2:	ca26                	sw	s1,20(sp)
    c5d4:	ce06                	sw	ra,28(sp)
    c5d6:	c84a                	sw	s2,16(sp)
    c5d8:	c64e                	sw	s3,12(sp)
    c5da:	0087f713          	andi	a4,a5,8
    c5de:	84aa                	mv	s1,a0
    c5e0:	842e                	mv	s0,a1
    c5e2:	ef79                	bnez	a4,c6c0 <__sflush_r+0xf6>
    c5e4:	41d8                	lw	a4,4(a1)
    c5e6:	00e04d63          	bgtz	a4,c600 <__sflush_r+0x36>
    c5ea:	41b8                	lw	a4,64(a1)
    c5ec:	00e04a63          	bgtz	a4,c600 <__sflush_r+0x36>
    c5f0:	4501                	li	a0,0
    c5f2:	40f2                	lw	ra,28(sp)
    c5f4:	4462                	lw	s0,24(sp)
    c5f6:	44d2                	lw	s1,20(sp)
    c5f8:	4942                	lw	s2,16(sp)
    c5fa:	49b2                	lw	s3,12(sp)
    c5fc:	6105                	addi	sp,sp,32
    c5fe:	8082                	ret
    c600:	5458                	lw	a4,44(s0)
    c602:	d77d                	beqz	a4,c5f0 <__sflush_r+0x26>
    c604:	0004a903          	lw	s2,0(s1)
    c608:	01379693          	slli	a3,a5,0x13
    c60c:	0004a023          	sw	zero,0(s1)
    c610:	0606de63          	bgez	a3,c68c <__sflush_r+0xc2>
    c614:	4870                	lw	a2,84(s0)
    c616:	00c45783          	lhu	a5,12(s0)
    c61a:	8b91                	andi	a5,a5,4
    c61c:	c799                	beqz	a5,c62a <__sflush_r+0x60>
    c61e:	405c                	lw	a5,4(s0)
    c620:	8e1d                	sub	a2,a2,a5
    c622:	585c                	lw	a5,52(s0)
    c624:	c399                	beqz	a5,c62a <__sflush_r+0x60>
    c626:	403c                	lw	a5,64(s0)
    c628:	8e1d                	sub	a2,a2,a5
    c62a:	545c                	lw	a5,44(s0)
    c62c:	500c                	lw	a1,32(s0)
    c62e:	4681                	li	a3,0
    c630:	8526                	mv	a0,s1
    c632:	9782                	jalr	a5
    c634:	57fd                	li	a5,-1
    c636:	00c45703          	lhu	a4,12(s0)
    c63a:	00f51d63          	bne	a0,a5,c654 <__sflush_r+0x8a>
    c63e:	4094                	lw	a3,0(s1)
    c640:	47f5                	li	a5,29
    c642:	06d7e963          	bltu	a5,a3,c6b4 <__sflush_r+0xea>
    c646:	204007b7          	lui	a5,0x20400
    c64a:	0785                	addi	a5,a5,1
    c64c:	00d7d7b3          	srl	a5,a5,a3
    c650:	8b85                	andi	a5,a5,1
    c652:	c3ad                	beqz	a5,c6b4 <__sflush_r+0xea>
    c654:	481c                	lw	a5,16(s0)
    c656:	00042223          	sw	zero,4(s0)
    c65a:	c01c                	sw	a5,0(s0)
    c65c:	01371793          	slli	a5,a4,0x13
    c660:	0007d863          	bgez	a5,c670 <__sflush_r+0xa6>
    c664:	57fd                	li	a5,-1
    c666:	00f51463          	bne	a0,a5,c66e <__sflush_r+0xa4>
    c66a:	409c                	lw	a5,0(s1)
    c66c:	e391                	bnez	a5,c670 <__sflush_r+0xa6>
    c66e:	c868                	sw	a0,84(s0)
    c670:	584c                	lw	a1,52(s0)
    c672:	0124a023          	sw	s2,0(s1)
    c676:	ddad                	beqz	a1,c5f0 <__sflush_r+0x26>
    c678:	04440793          	addi	a5,s0,68
    c67c:	00f58563          	beq	a1,a5,c686 <__sflush_r+0xbc>
    c680:	8526                	mv	a0,s1
    c682:	d5dfe0ef          	jal	ra,b3de <_free_r>
    c686:	02042a23          	sw	zero,52(s0)
    c68a:	b79d                	j	c5f0 <__sflush_r+0x26>
    c68c:	500c                	lw	a1,32(s0)
    c68e:	4601                	li	a2,0
    c690:	4685                	li	a3,1
    c692:	8526                	mv	a0,s1
    c694:	9702                	jalr	a4
    c696:	57fd                	li	a5,-1
    c698:	862a                	mv	a2,a0
    c69a:	f6f51ee3          	bne	a0,a5,c616 <__sflush_r+0x4c>
    c69e:	409c                	lw	a5,0(s1)
    c6a0:	dbbd                	beqz	a5,c616 <__sflush_r+0x4c>
    c6a2:	4775                	li	a4,29
    c6a4:	00e78563          	beq	a5,a4,c6ae <__sflush_r+0xe4>
    c6a8:	4759                	li	a4,22
    c6aa:	04e79463          	bne	a5,a4,c6f2 <__sflush_r+0x128>
    c6ae:	0124a023          	sw	s2,0(s1)
    c6b2:	bf3d                	j	c5f0 <__sflush_r+0x26>
    c6b4:	04076713          	ori	a4,a4,64
    c6b8:	00e41623          	sh	a4,12(s0)
    c6bc:	557d                	li	a0,-1
    c6be:	bf15                	j	c5f2 <__sflush_r+0x28>
    c6c0:	0105a983          	lw	s3,16(a1)
    c6c4:	f20986e3          	beqz	s3,c5f0 <__sflush_r+0x26>
    c6c8:	0005a903          	lw	s2,0(a1)
    c6cc:	8b8d                	andi	a5,a5,3
    c6ce:	0135a023          	sw	s3,0(a1)
    c6d2:	41390933          	sub	s2,s2,s3
    c6d6:	4701                	li	a4,0
    c6d8:	e391                	bnez	a5,c6dc <__sflush_r+0x112>
    c6da:	49d8                	lw	a4,20(a1)
    c6dc:	c418                	sw	a4,8(s0)
    c6de:	f12059e3          	blez	s2,c5f0 <__sflush_r+0x26>
    c6e2:	541c                	lw	a5,40(s0)
    c6e4:	500c                	lw	a1,32(s0)
    c6e6:	86ca                	mv	a3,s2
    c6e8:	864e                	mv	a2,s3
    c6ea:	8526                	mv	a0,s1
    c6ec:	9782                	jalr	a5
    c6ee:	00a04963          	bgtz	a0,c700 <__sflush_r+0x136>
    c6f2:	00c45783          	lhu	a5,12(s0)
    c6f6:	0407e793          	ori	a5,a5,64
    c6fa:	00f41623          	sh	a5,12(s0)
    c6fe:	bf7d                	j	c6bc <__sflush_r+0xf2>
    c700:	99aa                	add	s3,s3,a0
    c702:	40a90933          	sub	s2,s2,a0
    c706:	bfe1                	j	c6de <__sflush_r+0x114>

0000c708 <_fflush_r>:
    c708:	499c                	lw	a5,16(a1)
    c70a:	c3ad                	beqz	a5,c76c <_fflush_r+0x64>
    c70c:	1101                	addi	sp,sp,-32
    c70e:	cc22                	sw	s0,24(sp)
    c710:	ce06                	sw	ra,28(sp)
    c712:	842a                	mv	s0,a0
    c714:	c519                	beqz	a0,c722 <_fflush_r+0x1a>
    c716:	4d1c                	lw	a5,24(a0)
    c718:	e789                	bnez	a5,c722 <_fflush_r+0x1a>
    c71a:	c62e                	sw	a1,12(sp)
    c71c:	80eff0ef          	jal	ra,b72a <__sinit>
    c720:	45b2                	lw	a1,12(sp)
    c722:	00005797          	auipc	a5,0x5
    c726:	03278793          	addi	a5,a5,50 # 11754 <__sf_fake_stdin>
    c72a:	00f59c63          	bne	a1,a5,c742 <_fflush_r+0x3a>
    c72e:	404c                	lw	a1,4(s0)
    c730:	00c59783          	lh	a5,12(a1)
    c734:	c79d                	beqz	a5,c762 <_fflush_r+0x5a>
    c736:	8522                	mv	a0,s0
    c738:	4462                	lw	s0,24(sp)
    c73a:	40f2                	lw	ra,28(sp)
    c73c:	6105                	addi	sp,sp,32
    c73e:	e8dff06f          	j	c5ca <__sflush_r>
    c742:	00005797          	auipc	a5,0x5
    c746:	03278793          	addi	a5,a5,50 # 11774 <__sf_fake_stdout>
    c74a:	00f59463          	bne	a1,a5,c752 <_fflush_r+0x4a>
    c74e:	440c                	lw	a1,8(s0)
    c750:	b7c5                	j	c730 <_fflush_r+0x28>
    c752:	00005797          	auipc	a5,0x5
    c756:	fe278793          	addi	a5,a5,-30 # 11734 <__sf_fake_stderr>
    c75a:	fcf59be3          	bne	a1,a5,c730 <_fflush_r+0x28>
    c75e:	444c                	lw	a1,12(s0)
    c760:	bfc1                	j	c730 <_fflush_r+0x28>
    c762:	40f2                	lw	ra,28(sp)
    c764:	4462                	lw	s0,24(sp)
    c766:	4501                	li	a0,0
    c768:	6105                	addi	sp,sp,32
    c76a:	8082                	ret
    c76c:	4501                	li	a0,0
    c76e:	8082                	ret

0000c770 <_lseek_r>:
    c770:	1141                	addi	sp,sp,-16
    c772:	c422                	sw	s0,8(sp)
    c774:	842a                	mv	s0,a0
    c776:	852e                	mv	a0,a1
    c778:	85b2                	mv	a1,a2
    c77a:	8636                	mv	a2,a3
    c77c:	1fff9797          	auipc	a5,0x1fff9
    c780:	ca07a423          	sw	zero,-856(a5) # 20005424 <errno>
    c784:	c606                	sw	ra,12(sp)
    c786:	2475                	jal	ca32 <_lseek>
    c788:	57fd                	li	a5,-1
    c78a:	00f51963          	bne	a0,a5,c79c <_lseek_r+0x2c>
    c78e:	1fff9797          	auipc	a5,0x1fff9
    c792:	c9678793          	addi	a5,a5,-874 # 20005424 <errno>
    c796:	439c                	lw	a5,0(a5)
    c798:	c391                	beqz	a5,c79c <_lseek_r+0x2c>
    c79a:	c01c                	sw	a5,0(s0)
    c79c:	40b2                	lw	ra,12(sp)
    c79e:	4422                	lw	s0,8(sp)
    c7a0:	0141                	addi	sp,sp,16
    c7a2:	8082                	ret

0000c7a4 <__swhatbuf_r>:
    c7a4:	7119                	addi	sp,sp,-128
    c7a6:	daa6                	sw	s1,116(sp)
    c7a8:	84ae                	mv	s1,a1
    c7aa:	00e59583          	lh	a1,14(a1)
    c7ae:	dca2                	sw	s0,120(sp)
    c7b0:	de86                	sw	ra,124(sp)
    c7b2:	8432                	mv	s0,a2
    c7b4:	0005dc63          	bgez	a1,c7cc <__swhatbuf_r+0x28>
    c7b8:	00c4d783          	lhu	a5,12(s1)
    c7bc:	0006a023          	sw	zero,0(a3)
    c7c0:	0807f793          	andi	a5,a5,128
    c7c4:	e39d                	bnez	a5,c7ea <__swhatbuf_r+0x46>
    c7c6:	40000793          	li	a5,1024
    c7ca:	a015                	j	c7ee <__swhatbuf_r+0x4a>
    c7cc:	0830                	addi	a2,sp,24
    c7ce:	c636                	sw	a3,12(sp)
    c7d0:	2a75                	jal	c98c <_fstat_r>
    c7d2:	46b2                	lw	a3,12(sp)
    c7d4:	fe0542e3          	bltz	a0,c7b8 <__swhatbuf_r+0x14>
    c7d8:	4772                	lw	a4,28(sp)
    c7da:	67bd                	lui	a5,0xf
    c7dc:	8ff9                	and	a5,a5,a4
    c7de:	7779                	lui	a4,0xffffe
    c7e0:	97ba                	add	a5,a5,a4
    c7e2:	0017b793          	seqz	a5,a5
    c7e6:	c29c                	sw	a5,0(a3)
    c7e8:	bff9                	j	c7c6 <__swhatbuf_r+0x22>
    c7ea:	04000793          	li	a5,64
    c7ee:	c01c                	sw	a5,0(s0)
    c7f0:	50f6                	lw	ra,124(sp)
    c7f2:	5466                	lw	s0,120(sp)
    c7f4:	54d6                	lw	s1,116(sp)
    c7f6:	4501                	li	a0,0
    c7f8:	6109                	addi	sp,sp,128
    c7fa:	8082                	ret

0000c7fc <__smakebuf_r>:
    c7fc:	00c5d783          	lhu	a5,12(a1)
    c800:	1101                	addi	sp,sp,-32
    c802:	cc22                	sw	s0,24(sp)
    c804:	ce06                	sw	ra,28(sp)
    c806:	ca26                	sw	s1,20(sp)
    c808:	c84a                	sw	s2,16(sp)
    c80a:	8b89                	andi	a5,a5,2
    c80c:	842e                	mv	s0,a1
    c80e:	cf89                	beqz	a5,c828 <__smakebuf_r+0x2c>
    c810:	04740793          	addi	a5,s0,71
    c814:	c01c                	sw	a5,0(s0)
    c816:	c81c                	sw	a5,16(s0)
    c818:	4785                	li	a5,1
    c81a:	c85c                	sw	a5,20(s0)
    c81c:	40f2                	lw	ra,28(sp)
    c81e:	4462                	lw	s0,24(sp)
    c820:	44d2                	lw	s1,20(sp)
    c822:	4942                	lw	s2,16(sp)
    c824:	6105                	addi	sp,sp,32
    c826:	8082                	ret
    c828:	0074                	addi	a3,sp,12
    c82a:	0030                	addi	a2,sp,8
    c82c:	84aa                	mv	s1,a0
    c82e:	f77ff0ef          	jal	ra,c7a4 <__swhatbuf_r>
    c832:	45a2                	lw	a1,8(sp)
    c834:	892a                	mv	s2,a0
    c836:	8526                	mv	a0,s1
    c838:	c4bfe0ef          	jal	ra,b482 <_malloc_r>
    c83c:	ed01                	bnez	a0,c854 <__smakebuf_r+0x58>
    c83e:	00c41783          	lh	a5,12(s0)
    c842:	2007f713          	andi	a4,a5,512
    c846:	fb79                	bnez	a4,c81c <__smakebuf_r+0x20>
    c848:	9bf1                	andi	a5,a5,-4
    c84a:	0027e793          	ori	a5,a5,2
    c84e:	00f41623          	sh	a5,12(s0)
    c852:	bf7d                	j	c810 <__smakebuf_r+0x14>
    c854:	fffff797          	auipc	a5,0xfffff
    c858:	e8478793          	addi	a5,a5,-380 # b6d8 <_cleanup_r>
    c85c:	d49c                	sw	a5,40(s1)
    c85e:	00c45783          	lhu	a5,12(s0)
    c862:	c008                	sw	a0,0(s0)
    c864:	c808                	sw	a0,16(s0)
    c866:	0807e793          	ori	a5,a5,128
    c86a:	00f41623          	sh	a5,12(s0)
    c86e:	47a2                	lw	a5,8(sp)
    c870:	c85c                	sw	a5,20(s0)
    c872:	47b2                	lw	a5,12(sp)
    c874:	cf89                	beqz	a5,c88e <__smakebuf_r+0x92>
    c876:	00e41583          	lh	a1,14(s0)
    c87a:	8526                	mv	a0,s1
    c87c:	2289                	jal	c9be <_isatty_r>
    c87e:	c901                	beqz	a0,c88e <__smakebuf_r+0x92>
    c880:	00c45783          	lhu	a5,12(s0)
    c884:	9bf1                	andi	a5,a5,-4
    c886:	0017e793          	ori	a5,a5,1
    c88a:	00f41623          	sh	a5,12(s0)
    c88e:	00c45783          	lhu	a5,12(s0)
    c892:	00f96933          	or	s2,s2,a5
    c896:	01241623          	sh	s2,12(s0)
    c89a:	b749                	j	c81c <__smakebuf_r+0x20>

0000c89c <memchr>:
    c89c:	0ff5f593          	andi	a1,a1,255
    c8a0:	962a                	add	a2,a2,a0
    c8a2:	00c51463          	bne	a0,a2,c8aa <memchr+0xe>
    c8a6:	4501                	li	a0,0
    c8a8:	8082                	ret
    c8aa:	00054783          	lbu	a5,0(a0)
    c8ae:	feb78de3          	beq	a5,a1,c8a8 <memchr+0xc>
    c8b2:	0505                	addi	a0,a0,1
    c8b4:	b7fd                	j	c8a2 <memchr+0x6>

0000c8b6 <memmove>:
    c8b6:	04a5f363          	bgeu	a1,a0,c8fc <memmove+0x46>
    c8ba:	00c586b3          	add	a3,a1,a2
    c8be:	02d57f63          	bgeu	a0,a3,c8fc <memmove+0x46>
    c8c2:	fff64593          	not	a1,a2
    c8c6:	4781                	li	a5,0
    c8c8:	17fd                	addi	a5,a5,-1
    c8ca:	00f59363          	bne	a1,a5,c8d0 <memmove+0x1a>
    c8ce:	8082                	ret
    c8d0:	00f68733          	add	a4,a3,a5
    c8d4:	00074803          	lbu	a6,0(a4) # ffffe000 <_eusrstack+0xdffee000>
    c8d8:	00c78733          	add	a4,a5,a2
    c8dc:	972a                	add	a4,a4,a0
    c8de:	01070023          	sb	a6,0(a4)
    c8e2:	b7dd                	j	c8c8 <memmove+0x12>
    c8e4:	00f58733          	add	a4,a1,a5
    c8e8:	00074683          	lbu	a3,0(a4)
    c8ec:	00f50733          	add	a4,a0,a5
    c8f0:	0785                	addi	a5,a5,1
    c8f2:	00d70023          	sb	a3,0(a4)
    c8f6:	fef617e3          	bne	a2,a5,c8e4 <memmove+0x2e>
    c8fa:	8082                	ret
    c8fc:	4781                	li	a5,0
    c8fe:	bfe5                	j	c8f6 <memmove+0x40>

0000c900 <_realloc_r>:
    c900:	e581                	bnez	a1,c908 <_realloc_r+0x8>
    c902:	85b2                	mv	a1,a2
    c904:	b7ffe06f          	j	b482 <_malloc_r>
    c908:	1101                	addi	sp,sp,-32
    c90a:	cc22                	sw	s0,24(sp)
    c90c:	ce06                	sw	ra,28(sp)
    c90e:	ca26                	sw	s1,20(sp)
    c910:	c84a                	sw	s2,16(sp)
    c912:	c64e                	sw	s3,12(sp)
    c914:	8432                	mv	s0,a2
    c916:	ee01                	bnez	a2,c92e <_realloc_r+0x2e>
    c918:	ac7fe0ef          	jal	ra,b3de <_free_r>
    c91c:	4901                	li	s2,0
    c91e:	40f2                	lw	ra,28(sp)
    c920:	4462                	lw	s0,24(sp)
    c922:	854a                	mv	a0,s2
    c924:	44d2                	lw	s1,20(sp)
    c926:	4942                	lw	s2,16(sp)
    c928:	49b2                	lw	s3,12(sp)
    c92a:	6105                	addi	sp,sp,32
    c92c:	8082                	ret
    c92e:	84ae                	mv	s1,a1
    c930:	89aa                	mv	s3,a0
    c932:	2875                	jal	c9ee <_malloc_usable_size_r>
    c934:	8926                	mv	s2,s1
    c936:	fe8574e3          	bgeu	a0,s0,c91e <_realloc_r+0x1e>
    c93a:	85a2                	mv	a1,s0
    c93c:	854e                	mv	a0,s3
    c93e:	b45fe0ef          	jal	ra,b482 <_malloc_r>
    c942:	892a                	mv	s2,a0
    c944:	dd69                	beqz	a0,c91e <_realloc_r+0x1e>
    c946:	85a6                	mv	a1,s1
    c948:	8622                	mv	a2,s0
    c94a:	9dffe0ef          	jal	ra,b328 <memcpy>
    c94e:	85a6                	mv	a1,s1
    c950:	854e                	mv	a0,s3
    c952:	a8dfe0ef          	jal	ra,b3de <_free_r>
    c956:	b7e1                	j	c91e <_realloc_r+0x1e>

0000c958 <_read_r>:
    c958:	1141                	addi	sp,sp,-16
    c95a:	c422                	sw	s0,8(sp)
    c95c:	842a                	mv	s0,a0
    c95e:	852e                	mv	a0,a1
    c960:	85b2                	mv	a1,a2
    c962:	8636                	mv	a2,a3
    c964:	1fff9797          	auipc	a5,0x1fff9
    c968:	ac07a023          	sw	zero,-1344(a5) # 20005424 <errno>
    c96c:	c606                	sw	ra,12(sp)
    c96e:	28d1                	jal	ca42 <_read>
    c970:	57fd                	li	a5,-1
    c972:	00f51963          	bne	a0,a5,c984 <_read_r+0x2c>
    c976:	1fff9797          	auipc	a5,0x1fff9
    c97a:	aae78793          	addi	a5,a5,-1362 # 20005424 <errno>
    c97e:	439c                	lw	a5,0(a5)
    c980:	c391                	beqz	a5,c984 <_read_r+0x2c>
    c982:	c01c                	sw	a5,0(s0)
    c984:	40b2                	lw	ra,12(sp)
    c986:	4422                	lw	s0,8(sp)
    c988:	0141                	addi	sp,sp,16
    c98a:	8082                	ret

0000c98c <_fstat_r>:
    c98c:	1141                	addi	sp,sp,-16
    c98e:	c422                	sw	s0,8(sp)
    c990:	842a                	mv	s0,a0
    c992:	852e                	mv	a0,a1
    c994:	85b2                	mv	a1,a2
    c996:	1fff9797          	auipc	a5,0x1fff9
    c99a:	a807a723          	sw	zero,-1394(a5) # 20005424 <errno>
    c99e:	c606                	sw	ra,12(sp)
    c9a0:	288d                	jal	ca12 <_fstat>
    c9a2:	57fd                	li	a5,-1
    c9a4:	00f51963          	bne	a0,a5,c9b6 <_fstat_r+0x2a>
    c9a8:	1fff9797          	auipc	a5,0x1fff9
    c9ac:	a7c78793          	addi	a5,a5,-1412 # 20005424 <errno>
    c9b0:	439c                	lw	a5,0(a5)
    c9b2:	c391                	beqz	a5,c9b6 <_fstat_r+0x2a>
    c9b4:	c01c                	sw	a5,0(s0)
    c9b6:	40b2                	lw	ra,12(sp)
    c9b8:	4422                	lw	s0,8(sp)
    c9ba:	0141                	addi	sp,sp,16
    c9bc:	8082                	ret

0000c9be <_isatty_r>:
    c9be:	1141                	addi	sp,sp,-16
    c9c0:	c422                	sw	s0,8(sp)
    c9c2:	842a                	mv	s0,a0
    c9c4:	852e                	mv	a0,a1
    c9c6:	1fff9797          	auipc	a5,0x1fff9
    c9ca:	a407af23          	sw	zero,-1442(a5) # 20005424 <errno>
    c9ce:	c606                	sw	ra,12(sp)
    c9d0:	2889                	jal	ca22 <_isatty>
    c9d2:	57fd                	li	a5,-1
    c9d4:	00f51963          	bne	a0,a5,c9e6 <_isatty_r+0x28>
    c9d8:	1fff9797          	auipc	a5,0x1fff9
    c9dc:	a4c78793          	addi	a5,a5,-1460 # 20005424 <errno>
    c9e0:	439c                	lw	a5,0(a5)
    c9e2:	c391                	beqz	a5,c9e6 <_isatty_r+0x28>
    c9e4:	c01c                	sw	a5,0(s0)
    c9e6:	40b2                	lw	ra,12(sp)
    c9e8:	4422                	lw	s0,8(sp)
    c9ea:	0141                	addi	sp,sp,16
    c9ec:	8082                	ret

0000c9ee <_malloc_usable_size_r>:
    c9ee:	ffc5a783          	lw	a5,-4(a1)
    c9f2:	ffc78513          	addi	a0,a5,-4
    c9f6:	0007d563          	bgez	a5,ca00 <_malloc_usable_size_r+0x12>
    c9fa:	95aa                	add	a1,a1,a0
    c9fc:	419c                	lw	a5,0(a1)
    c9fe:	953e                	add	a0,a0,a5
    ca00:	8082                	ret

0000ca02 <_close>:
    ca02:	05800793          	li	a5,88
    ca06:	1fff9717          	auipc	a4,0x1fff9
    ca0a:	a0f72f23          	sw	a5,-1506(a4) # 20005424 <errno>
    ca0e:	557d                	li	a0,-1
    ca10:	8082                	ret

0000ca12 <_fstat>:
    ca12:	05800793          	li	a5,88
    ca16:	1fff9717          	auipc	a4,0x1fff9
    ca1a:	a0f72723          	sw	a5,-1522(a4) # 20005424 <errno>
    ca1e:	557d                	li	a0,-1
    ca20:	8082                	ret

0000ca22 <_isatty>:
    ca22:	05800793          	li	a5,88
    ca26:	1fff9717          	auipc	a4,0x1fff9
    ca2a:	9ef72f23          	sw	a5,-1538(a4) # 20005424 <errno>
    ca2e:	4501                	li	a0,0
    ca30:	8082                	ret

0000ca32 <_lseek>:
    ca32:	05800793          	li	a5,88
    ca36:	1fff9717          	auipc	a4,0x1fff9
    ca3a:	9ef72723          	sw	a5,-1554(a4) # 20005424 <errno>
    ca3e:	557d                	li	a0,-1
    ca40:	8082                	ret

0000ca42 <_read>:
    ca42:	05800793          	li	a5,88
    ca46:	1fff9717          	auipc	a4,0x1fff9
    ca4a:	9cf72f23          	sw	a5,-1570(a4) # 20005424 <errno>
    ca4e:	557d                	li	a0,-1
    ca50:	8082                	ret
    ca52:	0000                	unimp
    ca54:	d664                	sw	s1,108(a2)
    ca56:	0000                	unimp
    ca58:	d678                	sw	a4,108(a2)
    ca5a:	0000                	unimp
    ca5c:	d688                	sw	a0,40(a3)
    ca5e:	0000                	unimp
    ca60:	d69c                	sw	a5,40(a3)
    ca62:	0000                	unimp
    ca64:	d6a8                	sw	a0,104(a3)
    ca66:	0000                	unimp
    ca68:	d6b4                	sw	a3,104(a3)
    ca6a:	0000                	unimp
    ca6c:	d6b8                	sw	a4,104(a3)
    ca6e:	0000                	unimp
    ca70:	d6c8                	sw	a0,44(a3)
    ca72:	0000                	unimp
    ca74:	d6d8                	sw	a4,44(a3)
    ca76:	0000                	unimp
    ca78:	d6e0                	sw	s0,108(a3)
    ca7a:	0000                	unimp
    ca7c:	d6f4                	sw	a3,108(a3)
    ca7e:	0000                	unimp
    ca80:	d704                	sw	s1,40(a4)
    ca82:	0000                	unimp
    ca84:	d70c                	sw	a1,40(a4)
    ca86:	0000                	unimp
    ca88:	d718                	sw	a4,40(a4)
    ca8a:	0000                	unimp
    ca8c:	d724                	sw	s1,104(a4)
    ca8e:	0000                	unimp
    ca90:	d738                	sw	a4,104(a4)
    ca92:	0000                	unimp
    ca94:	d740                	sw	s0,44(a4)
    ca96:	0000                	unimp
    ca98:	d750                	sw	a2,44(a4)
    ca9a:	0000                	unimp
    ca9c:	d760                	sw	s0,108(a4)
    ca9e:	0000                	unimp
    caa0:	d778                	sw	a4,108(a4)
    caa2:	0000                	unimp
    caa4:	616d                	addi	sp,sp,240
    caa6:	6e69                	lui	t3,0x1a
    caa8:	0000                	unimp
    caaa:	0000                	unimp
    caac:	6f54                	flw	fa3,28(a4)
    caae:	6920                	flw	fs0,80(a0)
    cab0:	696e                	flw	fs2,216(sp)
    cab2:	6974                	flw	fa3,84(a0)
    cab4:	6c61                	lui	s8,0x18
    cab6:	7a69                	lui	s4,0xffffa
    cab8:	2065                	jal	cb60 <_read+0x11e>
    caba:	6564                	flw	fs1,76(a0)
    cabc:	6976                	flw	fs2,92(sp)
    cabe:	253a6563          	bltu	s4,s3,cd08 <__lowest_bit_bitmap+0xcc>
    cac2:	61662073          	csrs	0x616,a2
    cac6:	6c69                	lui	s8,0x1a
    cac8:	6465                	lui	s0,0x19
    caca:	202e                	fld	ft0,200(sp)
    cacc:	6854                	flw	fa3,20(s0)
    cace:	2065                	jal	cb76 <_read+0x134>
    cad0:	7265                	lui	tp,0xffff9
    cad2:	6f72                	flw	ft10,28(sp)
    cad4:	2072                	fld	ft0,280(sp)
    cad6:	65646f63          	bltu	s0,s6,d134 <__fsym_list_mem_name+0x2d8>
    cada:	6920                	flw	fs0,80(a0)
    cadc:	64252073          	csrs	0x642,a0
    cae0:	000a                	c.slli	zero,0x2
    cae2:	0000                	unimp
    cae4:	6974                	flw	fa3,84(a0)
    cae6:	6c64                	flw	fs1,92(s0)
    cae8:	0065                	c.nop	25
    caea:	0000                	unimp
    caec:	12ae                	slli	t0,t0,0x2b
    caee:	0000                	unimp
    caf0:	12c6                	slli	t0,t0,0x31
    caf2:	0000                	unimp
    caf4:	12c6                	slli	t0,t0,0x31
    caf6:	0000                	unimp
    caf8:	12c6                	slli	t0,t0,0x31
    cafa:	0000                	unimp
    cafc:	12c6                	slli	t0,t0,0x31
    cafe:	0000                	unimp
    cb00:	12c6                	slli	t0,t0,0x31
    cb02:	0000                	unimp
    cb04:	12c6                	slli	t0,t0,0x31
    cb06:	0000                	unimp
    cb08:	12c6                	slli	t0,t0,0x31
    cb0a:	0000                	unimp
    cb0c:	12c6                	slli	t0,t0,0x31
    cb0e:	0000                	unimp
    cb10:	12c6                	slli	t0,t0,0x31
    cb12:	0000                	unimp
    cb14:	12c6                	slli	t0,t0,0x31
    cb16:	0000                	unimp
    cb18:	12c6                	slli	t0,t0,0x31
    cb1a:	0000                	unimp
    cb1c:	12c6                	slli	t0,t0,0x31
    cb1e:	0000                	unimp
    cb20:	12c6                	slli	t0,t0,0x31
    cb22:	0000                	unimp
    cb24:	12c6                	slli	t0,t0,0x31
    cb26:	0000                	unimp
    cb28:	12c6                	slli	t0,t0,0x31
    cb2a:	0000                	unimp
    cb2c:	12c6                	slli	t0,t0,0x31
    cb2e:	0000                	unimp
    cb30:	12c6                	slli	t0,t0,0x31
    cb32:	0000                	unimp
    cb34:	12c6                	slli	t0,t0,0x31
    cb36:	0000                	unimp
    cb38:	12c6                	slli	t0,t0,0x31
    cb3a:	0000                	unimp
    cb3c:	12c6                	slli	t0,t0,0x31
    cb3e:	0000                	unimp
    cb40:	12c6                	slli	t0,t0,0x31
    cb42:	0000                	unimp
    cb44:	12c6                	slli	t0,t0,0x31
    cb46:	0000                	unimp
    cb48:	12c6                	slli	t0,t0,0x31
    cb4a:	0000                	unimp
    cb4c:	12c6                	slli	t0,t0,0x31
    cb4e:	0000                	unimp
    cb50:	12c6                	slli	t0,t0,0x31
    cb52:	0000                	unimp
    cb54:	12c6                	slli	t0,t0,0x31
    cb56:	0000                	unimp
    cb58:	12c6                	slli	t0,t0,0x31
    cb5a:	0000                	unimp
    cb5c:	12c6                	slli	t0,t0,0x31
    cb5e:	0000                	unimp
    cb60:	12c6                	slli	t0,t0,0x31
    cb62:	0000                	unimp
    cb64:	12c6                	slli	t0,t0,0x31
    cb66:	0000                	unimp
    cb68:	12c6                	slli	t0,t0,0x31
    cb6a:	0000                	unimp
    cb6c:	12c6                	slli	t0,t0,0x31
    cb6e:	0000                	unimp
    cb70:	12c6                	slli	t0,t0,0x31
    cb72:	0000                	unimp
    cb74:	12c6                	slli	t0,t0,0x31
    cb76:	0000                	unimp
    cb78:	12c6                	slli	t0,t0,0x31
    cb7a:	0000                	unimp
    cb7c:	12c6                	slli	t0,t0,0x31
    cb7e:	0000                	unimp
    cb80:	12c6                	slli	t0,t0,0x31
    cb82:	0000                	unimp
    cb84:	12c6                	slli	t0,t0,0x31
    cb86:	0000                	unimp
    cb88:	12c6                	slli	t0,t0,0x31
    cb8a:	0000                	unimp
    cb8c:	12c6                	slli	t0,t0,0x31
    cb8e:	0000                	unimp
    cb90:	12c6                	slli	t0,t0,0x31
    cb92:	0000                	unimp
    cb94:	12c6                	slli	t0,t0,0x31
    cb96:	0000                	unimp
    cb98:	12c6                	slli	t0,t0,0x31
    cb9a:	0000                	unimp
    cb9c:	12c6                	slli	t0,t0,0x31
    cb9e:	0000                	unimp
    cba0:	12c6                	slli	t0,t0,0x31
    cba2:	0000                	unimp
    cba4:	12c6                	slli	t0,t0,0x31
    cba6:	0000                	unimp
    cba8:	12c6                	slli	t0,t0,0x31
    cbaa:	0000                	unimp
    cbac:	12c6                	slli	t0,t0,0x31
    cbae:	0000                	unimp
    cbb0:	12c6                	slli	t0,t0,0x31
    cbb2:	0000                	unimp
    cbb4:	12c6                	slli	t0,t0,0x31
    cbb6:	0000                	unimp
    cbb8:	1158                	addi	a4,sp,164
    cbba:	0000                	unimp
    cbbc:	12c6                	slli	t0,t0,0x31
    cbbe:	0000                	unimp
    cbc0:	12c6                	slli	t0,t0,0x31
    cbc2:	0000                	unimp
    cbc4:	12c6                	slli	t0,t0,0x31
    cbc6:	0000                	unimp
    cbc8:	12c6                	slli	t0,t0,0x31
    cbca:	0000                	unimp
    cbcc:	12c6                	slli	t0,t0,0x31
    cbce:	0000                	unimp
    cbd0:	12c6                	slli	t0,t0,0x31
    cbd2:	0000                	unimp
    cbd4:	12c6                	slli	t0,t0,0x31
    cbd6:	0000                	unimp
    cbd8:	12c6                	slli	t0,t0,0x31
    cbda:	0000                	unimp
    cbdc:	12c6                	slli	t0,t0,0x31
    cbde:	0000                	unimp
    cbe0:	12c6                	slli	t0,t0,0x31
    cbe2:	0000                	unimp
    cbe4:	125c                	addi	a5,sp,292
    cbe6:	0000                	unimp
    cbe8:	11a2                	slli	gp,gp,0x28
    cbea:	0000                	unimp
    cbec:	12c6                	slli	t0,t0,0x31
    cbee:	0000                	unimp
    cbf0:	12c6                	slli	t0,t0,0x31
    cbf2:	0000                	unimp
    cbf4:	12c6                	slli	t0,t0,0x31
    cbf6:	0000                	unimp
    cbf8:	12c6                	slli	t0,t0,0x31
    cbfa:	0000                	unimp
    cbfc:	11a2                	slli	gp,gp,0x28
    cbfe:	0000                	unimp
    cc00:	12c6                	slli	t0,t0,0x31
    cc02:	0000                	unimp
    cc04:	12c6                	slli	t0,t0,0x31
    cc06:	0000                	unimp
    cc08:	12c6                	slli	t0,t0,0x31
    cc0a:	0000                	unimp
    cc0c:	12c6                	slli	t0,t0,0x31
    cc0e:	0000                	unimp
    cc10:	12c6                	slli	t0,t0,0x31
    cc12:	0000                	unimp
    cc14:	119e                	slli	gp,gp,0x27
    cc16:	0000                	unimp
    cc18:	1236                	slli	tp,tp,0x2d
    cc1a:	0000                	unimp
    cc1c:	12c6                	slli	t0,t0,0x31
    cc1e:	0000                	unimp
    cc20:	12c6                	slli	t0,t0,0x31
    cc22:	0000                	unimp
    cc24:	11ae                	slli	gp,gp,0x2b
    cc26:	0000                	unimp
    cc28:	12c6                	slli	t0,t0,0x31
    cc2a:	0000                	unimp
    cc2c:	11aa                	slli	gp,gp,0x2a
    cc2e:	0000                	unimp
    cc30:	12c6                	slli	t0,t0,0x31
    cc32:	0000                	unimp
    cc34:	12c6                	slli	t0,t0,0x31
    cc36:	0000                	unimp
    cc38:	115c                	addi	a5,sp,164
	...

0000cc3c <__lowest_bit_bitmap>:
    cc3c:	0000 0001 0002 0001 0003 0001 0002 0001     ................
    cc4c:	0004 0001 0002 0001 0003 0001 0002 0001     ................
    cc5c:	0005 0001 0002 0001 0003 0001 0002 0001     ................
    cc6c:	0004 0001 0002 0001 0003 0001 0002 0001     ................
    cc7c:	0006 0001 0002 0001 0003 0001 0002 0001     ................
    cc8c:	0004 0001 0002 0001 0003 0001 0002 0001     ................
    cc9c:	0005 0001 0002 0001 0003 0001 0002 0001     ................
    ccac:	0004 0001 0002 0001 0003 0001 0002 0001     ................
    ccbc:	0007 0001 0002 0001 0003 0001 0002 0001     ................
    cccc:	0004 0001 0002 0001 0003 0001 0002 0001     ................
    ccdc:	0005 0001 0002 0001 0003 0001 0002 0001     ................
    ccec:	0004 0001 0002 0001 0003 0001 0002 0001     ................
    ccfc:	0006 0001 0002 0001 0003 0001 0002 0001     ................
    cd0c:	0004 0001 0002 0001 0003 0001 0002 0001     ................
    cd1c:	0005 0001 0002 0001 0003 0001 0002 0001     ................
    cd2c:	0004 0001 0002 0001 0003 0001 0002 0001     ................

0000cd3c <large_digits.2583>:
    cd3c:	3130 3332 3534 3736 3938 4241 4443 4645     0123456789ABCDEF
    cd4c:	0000 0000 200a 205c 207c 0a2f 0000 0000     ..... \ | /.....
    cd5c:	202d 5452 2d20 2020 2020 5420 7268 6165     - RT -     Threa
    cd6c:	2064 704f 7265 7461 6e69 2067 7953 7473     d Operating Syst
    cd7c:	6d65 000a 754a 206c 3432 3220 3230 0033     em..Jul 24 2023.
    cd8c:	2f20 7c20 5c20 2020 2020 2520 2e64 6425      / | \     %d.%d
    cd9c:	252e 2064 7562 6c69 2064 7325 000a 0000     .%d build %s....
    cdac:	3220 3030 2036 202d 3032 3931 4320 706f      2006 - 2019 Cop
    cdbc:	7279 6769 7468 6220 2079 7472 742d 7268     yright by rt-thr
    cdcc:	6165 2064 6574 6d61 000a 0000 4e28 4c55     ead team....(NUL
    cddc:	294c 0000                                   L)..

0000cde0 <small_digits.2582>:
    cde0:	3130 3332 3534 3736 3938 6261 6463 6665     0123456789abcdef
    cdf0:	0000 0000 6f74 6174 206c 656d 6f6d 7972     ....total memory
    ce00:	203a 6425 000a 0000 7375 6465 6d20 6d65     : %d....used mem
    ce10:	726f 2079 203a 6425 000a 0000 616d 6978     ory : %d....maxi
    ce20:	756d 206d 6c61 6f6c 6163 6574 2064 656d     mum allocated me
    ce30:	6f6d 7972 203a 6425 000a 0000               mory: %d....

0000ce3c <__fsym_list_mem_desc>:
    ce3c:	696c 7473 6d20 6d65 726f 2079 7375 6761     list memory usag
    ce4c:	2065 6e69 6f66 6d72 7461 6f69 006e 0000     e information...

0000ce5c <__fsym_list_mem_name>:
    ce5c:	696c 7473 6d5f 6d65 0000 0000 6f74 6620     list_mem....to f
    ce6c:	6572 2065 2061 6162 2064 6164 6174 6220     ree a bad data b
    ce7c:	6f6c 6b63 0a3a 0000 656d 3a6d 3020 2578     lock:...mem: 0x%
    ce8c:	3830 2c78 7520 6573 2064 6c66 6761 203a     08x, used flag: 
    ce9c:	6425 202c 616d 6967 2063 6f63 6564 203a     %d, magic code: 
    ceac:	7830 3025 7834 000a 6568 7061 0000 0000     0x%04x..heap....
    cebc:	656d 206d 6e69 7469 202c 7265 6f72 2072     mem init, error 
    cecc:	6562 6967 206e 6461 7264 7365 2073 7830     begin address 0x
    cedc:	7825 202c 6e61 2064 6e65 2064 6461 7264     %x, and end addr
    ceec:	7365 2073 7830 7825 000a 0000 5b1b 4a32     ess 0x%x.....[2J
    cefc:	5b1b 0048 2d2d 7546 636e 6974 6e6f 4c20     .[H.--Function L
    cf0c:	7369 3a74 000a 0000 5f5f 0000 2d25 3631     ist:....__..%-16
    cf1c:	2073 2d2d 2520 0a73 0000 0000 6564 6976     s -- %s.....devi
    cf2c:	6563 0000 2d25 2e2a 2073 2020 2020 2020     ce..%-*.s       
    cf3c:	2020 7974 6570 2020 2020 2020 2020 7220       type         r
    cf4c:	6665 6320 756f 746e 000a 0000 2d20 2d2d     ef count.... ---
    cf5c:	2d2d 2d2d 2d2d 2d2d 2d2d 2d2d 2d2d 2d2d     ----------------
    cf6c:	202d 2d2d 2d2d 2d2d 2d2d 2d2d 000a 0000     - ----------....
    cf7c:	2d25 2e2a 732a 2520 322d 7330 2520 382d     %-*.*s %-20s %-8
    cf8c:	0a64 0000 7665 6e65 0074 0000 2d25 2e2a     d...event...%-*.
    cf9c:	2073 2020 2020 7320 7465 2020 2020 7573     s      set    su
    cfac:	7073 6e65 2064 6874 6572 6461 000a 0000     spend thread....
    cfbc:	2020 2d2d 2d2d 2d2d 2d2d 2d2d 2d20 2d2d       ---------- ---
    cfcc:	2d2d 2d2d 2d2d 2d2d 2d2d 0a2d 0000 0000     -----------.....
    cfdc:	2d25 2e2a 732a 2020 7830 3025 7838 2520     %-*.*s  0x%08x %
    cfec:	3330 3a64 0000 0000 2d25 2e2a 732a 2020     03d:....%-*.*s  
    cffc:	7830 3025 7838 3020 000a 0000 616d 6c69     0x%08x 0....mail
    d00c:	6f62 0078 2d25 2e2a 2073 6e65 7274 2079     box.%-*.s entry 
    d01c:	6973 657a 7320 7375 6570 646e 7420 7268     size suspend thr
    d02c:	6165 0a64 0000 0000 2d20 2d2d 202d 2d20     ead..... ----  -
    d03c:	2d2d 202d 2d2d 2d2d 2d2d 2d2d 2d2d 2d2d     --- ------------
    d04c:	2d2d 000a 2d25 2e2a 732a 2520 3430 2064     --..%-*.*s %04d 
    d05c:	2520 3430 2064 6425 003a 0000 2d25 2e2a      %04d %d:...%-*.
    d06c:	732a 2520 3430 2064 2520 3430 2064 6425     *s %04d  %04d %d
    d07c:	000a 0000 736d 7167 6575 6575 0000 0000     ....msgqueue....
    d08c:	2d25 2e2a 2073 6e65 7274 2079 7573 7073     %-*.s entry susp
    d09c:	6e65 2064 6874 6572 6461 000a 2d20 2d2d     end thread.. ---
    d0ac:	202d 2d20 2d2d 2d2d 2d2d 2d2d 2d2d 2d2d     -  -------------
    d0bc:	0a2d 0000 2d25 2e2a 732a 2520 3430 2064     -...%-*.*s %04d 
    d0cc:	2520 3a64 0000 0000 2d25 2e2a 732a 2520      %d:....%-*.*s %
    d0dc:	3430 2064 2520 0a64 0000 0000 2d25 2e2a     04d  %d.....%-*.
    d0ec:	2073 2020 776f 656e 2072 6820 6c6f 2064     s   owner  hold 
    d0fc:	7573 7073 6e65 2064 6874 6572 6461 000a     suspend thread..
    d10c:	2d20 2d2d 2d2d 2d2d 202d 2d2d 2d2d 2d20      -------- ---- -
    d11c:	2d2d 2d2d 2d2d 2d2d 2d2d 2d2d 0a2d 0000     -------------...
    d12c:	2d25 2e2a 732a 2520 382d 2a2e 2073 3025     %-*.*s %-8.*s %0
    d13c:	6434 2520 0a64 0000 6573 616d 6870 726f     4d %d...semaphor
    d14c:	0065 0000 2d25 2e2a 2073 2076 2020 7573     e...%-*.s v   su
    d15c:	7073 6e65 2064 6874 6572 6461 000a 0000     spend thread....
    d16c:	2d20 2d2d 2d20 2d2d 2d2d 2d2d 2d2d 2d2d      --- -----------
    d17c:	2d2d 0a2d 0000 0000 2d25 2e2a 732a 2520     ---.....%-*.*s %
    d18c:	3330 2064 6425 003a 2d25 2e2a 732a 2520     03d %d:.%-*.*s %
    d19c:	3330 2064 6425 000a 6874 6572 6461 0000     03d %d..thread..
    d1ac:	2d25 2e2a 2073 7270 2069 7320 6174 7574     %-*.s pri  statu
    d1bc:	2073 2020 2020 7320 2070 2020 2020 7473     s      sp     st
    d1cc:	6361 206b 6973 657a 6d20 7861 7520 6573     ack size max use
    d1dc:	2064 656c 7466 7420 6369 206b 6520 7272     d left tick  err
    d1ec:	726f 000a 2d20 2d2d 2020 2d2d 2d2d 2d2d     or.. ---  ------
    d1fc:	202d 2d2d 2d2d 2d2d 2d2d 2d2d 2d20 2d2d     - ---------- ---
    d20c:	2d2d 2d2d 2d2d 202d 2d20 2d2d 2d2d 202d     -------  ------ 
    d21c:	2d20 2d2d 2d2d 2d2d 2d2d 202d 2d2d 0a2d      ---------- ---.
    d22c:	0000 0000 002d 0000 2d25 2e2a 732a 2520     ....-...%-*.*s %
    d23c:	6433 0020 7220 6165 7964 2020 0000 0000     3d . ready  ....
    d24c:	7320 7375 6570 646e 0000 0000 6920 696e      suspend.... ini
    d25c:	2074 2020 0000 0000 6320 6f6c 6573 2020     t   .... close  
    d26c:	0000 0000 3020 2578 3830 2078 7830 3025     .... 0x%08x 0x%0
    d27c:	7838 2020 2020 3025 6432 2525 2020 3020     8x    %02d%%   0
    d28c:	2578 3830 2078 3025 6433 000a 6974 656d     x%08x %03d..time
    d29c:	0072 0000 2d25 2e2a 2073 7020 7265 6f69     r...%-*.s  perio
    d2ac:	6964 2063 2020 6974 656d 756f 2074 2020     dic   timeout   
    d2bc:	2020 2020 6c66 6761 000a 0000 2d20 2d2d         flag.... ---
    d2cc:	2d2d 2d2d 2d2d 202d 2d2d 2d2d 2d2d 2d2d     ------- --------
    d2dc:	2d2d 2d20 2d2d 2d2d 2d2d 2d2d 2d2d 000a     -- -----------..
    d2ec:	2d25 2e2a 732a 3020 2578 3830 2078 7830     %-*.*s 0x%08x 0x
    d2fc:	3025 7838 0020 0000 6361 6974 6176 6574     %08x ...activate
    d30c:	0a64 0000 6564 6361 6974 6176 6574 0a64     d...deactivated.
    d31c:	0000 0000 7563 7272 6e65 2074 6974 6b63     ....current tick
    d32c:	303a 2578 3830 0a78 0000 0000               :0x%08x.....

0000d338 <__fsym_list_desc>:
    d338:	696c 7473 6120 6c6c 7320 6d79 6f62 206c     list all symbol 
    d348:	6e69 7320 7379 6574 006d 0000               in system...

0000d354 <__fsym_list_name>:
    d354:	696c 7473 0000 0000                         list....

0000d35c <__fsym___cmd_list_device_desc>:
    d35c:	696c 7473 6420 7665 6369 2065 6e69 7320     list device in s
    d36c:	7379 6574 006d 0000                         ystem...

0000d374 <__fsym___cmd_list_device_name>:
    d374:	5f5f 6d63 5f64 696c 7473 645f 7665 6369     __cmd_list_devic
    d384:	0065 0000                                   e...

0000d388 <__fsym_list_device_desc>:
    d388:	696c 7473 6420 7665 6369 2065 6e69 7320     list device in s
    d398:	7379 6574 006d 0000                         ystem...

0000d3a0 <__fsym_list_device_name>:
    d3a0:	696c 7473 645f 7665 6369 0065               list_device.

0000d3ac <__fsym___cmd_list_timer_desc>:
    d3ac:	696c 7473 7420 6d69 7265 6920 206e 7973     list timer in sy
    d3bc:	7473 6d65 0000 0000                         stem....

0000d3c4 <__fsym___cmd_list_timer_name>:
    d3c4:	5f5f 6d63 5f64 696c 7473 745f 6d69 7265     __cmd_list_timer
    d3d4:	0000 0000                                   ....

0000d3d8 <__fsym_list_timer_desc>:
    d3d8:	696c 7473 7420 6d69 7265 6920 206e 7973     list timer in sy
    d3e8:	7473 6d65 0000 0000                         stem....

0000d3f0 <__fsym_list_timer_name>:
    d3f0:	696c 7473 745f 6d69 7265 0000               list_timer..

0000d3fc <__fsym___cmd_list_msgqueue_desc>:
    d3fc:	696c 7473 6d20 7365 6173 6567 7120 6575     list message que
    d40c:	6575 6920 206e 7973 7473 6d65 0000 0000     ue in system....

0000d41c <__fsym___cmd_list_msgqueue_name>:
    d41c:	5f5f 6d63 5f64 696c 7473 6d5f 6773 7571     __cmd_list_msgqu
    d42c:	7565 0065                                   eue.

0000d430 <__fsym_list_msgqueue_desc>:
    d430:	696c 7473 6d20 7365 6173 6567 7120 6575     list message que
    d440:	6575 6920 206e 7973 7473 6d65 0000 0000     ue in system....

0000d450 <__fsym_list_msgqueue_name>:
    d450:	696c 7473 6d5f 6773 7571 7565 0065 0000     list_msgqueue...

0000d460 <__fsym___cmd_list_mailbox_desc>:
    d460:	696c 7473 6d20 6961 206c 6f62 2078 6e69     list mail box in
    d470:	7320 7379 6574 006d                          system.

0000d478 <__fsym___cmd_list_mailbox_name>:
    d478:	5f5f 6d63 5f64 696c 7473 6d5f 6961 626c     __cmd_list_mailb
    d488:	786f 0000                                   ox..

0000d48c <__fsym_list_mailbox_desc>:
    d48c:	696c 7473 6d20 6961 206c 6f62 2078 6e69     list mail box in
    d49c:	7320 7379 6574 006d                          system.

0000d4a4 <__fsym_list_mailbox_name>:
    d4a4:	696c 7473 6d5f 6961 626c 786f 0000 0000     list_mailbox....

0000d4b4 <__fsym___cmd_list_mutex_desc>:
    d4b4:	696c 7473 6d20 7475 7865 6920 206e 7973     list mutex in sy
    d4c4:	7473 6d65 0000 0000                         stem....

0000d4cc <__fsym___cmd_list_mutex_name>:
    d4cc:	5f5f 6d63 5f64 696c 7473 6d5f 7475 7865     __cmd_list_mutex
    d4dc:	0000 0000                                   ....

0000d4e0 <__fsym_list_mutex_desc>:
    d4e0:	696c 7473 6d20 7475 7865 6920 206e 7973     list mutex in sy
    d4f0:	7473 6d65 0000 0000                         stem....

0000d4f8 <__fsym_list_mutex_name>:
    d4f8:	696c 7473 6d5f 7475 7865 0000               list_mutex..

0000d504 <__fsym___cmd_list_event_desc>:
    d504:	696c 7473 6520 6576 746e 6920 206e 7973     list event in sy
    d514:	7473 6d65 0000 0000                         stem....

0000d51c <__fsym___cmd_list_event_name>:
    d51c:	5f5f 6d63 5f64 696c 7473 655f 6576 746e     __cmd_list_event
    d52c:	0000 0000                                   ....

0000d530 <__fsym_list_event_desc>:
    d530:	696c 7473 6520 6576 746e 6920 206e 7973     list event in sy
    d540:	7473 6d65 0000 0000                         stem....

0000d548 <__fsym_list_event_name>:
    d548:	696c 7473 655f 6576 746e 0000               list_event..

0000d554 <__fsym___cmd_list_sem_desc>:
    d554:	696c 7473 7320 6d65 7061 6f68 6572 6920     list semaphore i
    d564:	206e 7973 7473 6d65 0000 0000               n system....

0000d570 <__fsym___cmd_list_sem_name>:
    d570:	5f5f 6d63 5f64 696c 7473 735f 6d65 0000     __cmd_list_sem..

0000d580 <__fsym_list_sem_desc>:
    d580:	696c 7473 7320 6d65 7061 6f68 656e 6920     list semaphone i
    d590:	206e 7973 7473 6d65 0000 0000               n system....

0000d59c <__fsym_list_sem_name>:
    d59c:	696c 7473 735f 6d65 0000 0000               list_sem....

0000d5a8 <__fsym___cmd_list_thread_desc>:
    d5a8:	696c 7473 7420 7268 6165 0064               list thread.

0000d5b4 <__fsym___cmd_list_thread_name>:
    d5b4:	5f5f 6d63 5f64 696c 7473 745f 7268 6165     __cmd_list_threa
    d5c4:	0064 0000                                   d...

0000d5c8 <__fsym_list_thread_desc>:
    d5c8:	696c 7473 7420 7268 6165 0064               list thread.

0000d5d4 <__fsym_list_thread_name>:
    d5d4:	696c 7473 745f 7268 6165 0064               list_thread.

0000d5e0 <__fsym___cmd_clear_desc>:
    d5e0:	6874 2065 6574 6d72 6e69 6c61 7320 7263     the terminal scr
    d5f0:	6565 006e                                   een.

0000d5f4 <__fsym___cmd_clear_name>:
    d5f4:	5f5f 6d63 5f64 6c63 6165 0072               __cmd_clear.

0000d600 <__fsym_clear_desc>:
    d600:	6874 2065 6574 6d72 6e69 6c61 7320 7263     the terminal scr
    d610:	6565 006e                                   een.

0000d614 <__fsym_clear_name>:
    d614:	6c63 6165 0072 0000                         clear...

0000d61c <__fsym___cmd_reboot_desc>:
    d61c:	6572 6f62 746f 7420 6568 6220 616f 6472     reboot the board
    d62c:	0000 0000                                   ....

0000d630 <__fsym___cmd_reboot_name>:
    d630:	5f5f 6d63 5f64 6572 6f62 746f 0000 0000     __cmd_reboot....

0000d640 <__fsym_reboot_desc>:
    d640:	6572 6f62 746f 7420 6568 6220 616f 6472     reboot the board
    d650:	0000 0000                                   ....

0000d654 <__fsym_reboot_name>:
    d654:	6572 6f62 746f 0000 7325 0000 002f 0000     reboot..%s../...
    d664:	6843 7261 6361 6574 2072 6544 6976 6563     Character Device
    d674:	0000 0000 6c42 636f 206b 6544 6976 6563     ....Block Device
    d684:	0000 0000 654e 7774 726f 206b 6e49 6574     ....Network Inte
    d694:	6672 6361 0065 0000 544d 2044 6544 6976     rface...MTD Devi
    d6a4:	6563 0000 4143 204e 6544 6976 6563 0000     ce..CAN Device..
    d6b4:	5452 0043 6f53 6e75 2064 6544 6976 6563     RTC.Sound Device
    d6c4:	0000 0000 7247 7061 6968 2063 6544 6976     ....Graphic Devi
    d6d4:	6563 0000 3249 2043 7542 0073 5355 2042     ce..I2C Bus.USB 
    d6e4:	6c53 7661 2065 6544 6976 6563 0000 0000     Slave Device....
    d6f4:	5355 2042 6f48 7473 4220 7375 0000 0000     USB Host Bus....
    d704:	5053 2049 7542 0073 5053 2049 6544 6976     SPI Bus.SPI Devi
    d714:	6563 0000 4453 4f49 4220 7375 0000 0000     ce..SDIO Bus....
    d724:	4d50 5020 6573 6475 206f 6544 6976 6563     PM Pseudo Device
    d734:	0000 0000 6950 6570 0000 0000 6f50 7472     ....Pipe....Port
    d744:	6c61 4420 7665 6369 0065 0000 6954 656d     al Device...Time
    d754:	2072 6544 6976 6563 0000 0000 694d 6373     r Device....Misc
    d764:	6c65 616c 656e 756f 2073 6544 6976 6563     ellaneous Device
    d774:	0000 0000 6e55 6e6b 776f 006e 6f54 206f     ....Unknown.Too 
    d784:	616d 796e 6120 6772 2073 2021 6557 6f20     many args ! We o
    d794:	6c6e 2079 7355 3a65 000a 0000 7325 0020     nly Use:....%s .
    d7a4:	7325 203a 6f63 6d6d 6e61 2064 6f6e 2074     %s: command not 
    d7b4:	6f66 6e75 2e64 000a 5452 542d 7268 6165     found...RT-Threa
    d7c4:	2064 6873 6c65 206c 6f63 6d6d 6e61 7364     d shell commands
    d7d4:	0a3a 0000 5f5f 6d63 5f64 0000 2d25 3631     :...__cmd_..%-16
    d7e4:	2073 202d 7325 000a                         s - %s..

0000d7ec <__fsym___cmd_help_desc>:
    d7ec:	5452 542d 7268 6165 2064 6873 6c65 206c     RT-Thread shell 
    d7fc:	6568 706c 0000 0000                         help....

0000d804 <__fsym___cmd_help_name>:
    d804:	5f5f 6d63 5f64 6568 706c 0000               __cmd_help..

0000d810 <__fsym___cmd_free_desc>:
    d810:	6853 776f 7420 6568 6d20 6d65 726f 2079     Show the memory 
    d820:	7375 6761 2065 6e69 7420 6568 7320 7379     usage in the sys
    d830:	6574 006d                                   tem.

0000d834 <__fsym___cmd_free_name>:
    d834:	5f5f 6d63 5f64 7266 6565 0000               __cmd_free..

0000d840 <__fsym___cmd_ps_desc>:
    d840:	694c 7473 7420 7268 6165 7364 6920 206e     List threads in 
    d850:	6874 2065 7973 7473 6d65 0000               the system..

0000d85c <__fsym___cmd_ps_name>:
    d85c:	5f5f 6d63 5f64 7370 0000 0000 6966 736e     __cmd_ps....fins
    d86c:	3a68 6320 6e61 6e20 746f 6620 6e69 2064     h: can not find 
    d87c:	6564 6976 6563 203a 7325 000a 6f6e 6d20     device: %s..no m
    d88c:	6d65 726f 2079 6f66 2072 6873 6c65 0a6c     emory for shell.
    d89c:	0000 0000 7374 6568 6c6c 0000 6873 7872     ....tshell..shrx
    d8ac:	0000 0000 0008 0000 6325 0000 2508 2073     ........%c...%s 
    d8bc:	0820 0000 2008 0008 5b1b 4b32 000d 0000      .... ...[2K....
    d8cc:	7325 7325 0000 0000                         %s%s....

0000d8d4 <__fsym_pinRead_desc>:
    d8d4:	6572 6461 7320 6174 7574 2073 7266 6d6f     read status from
    d8e4:	6820 7261 7764 7261 2065 6970 006e 0000      hardware pin...

0000d8f4 <__fsym_pinRead_name>:
    d8f4:	6970 526e 6165 0064                         pinRead.

0000d8fc <__fsym_pinWrite_desc>:
    d8fc:	7277 7469 2065 6176 756c 2065 6f74 6820     write value to h
    d90c:	7261 7764 7261 2065 6970 006e               ardware pin.

0000d918 <__fsym_pinWrite_name>:
    d918:	6970 576e 6972 6574 0000 0000               pinWrite....

0000d924 <__fsym_pinMode_desc>:
    d924:	6573 2074 6168 6472 6177 6572 7020 6e69     set hardware pin
    d934:	6d20 646f 0065 0000                          mode...

0000d93c <__fsym_pinMode_name>:
    d93c:	6970 4d6e 646f 0065 6175 7472 0031 0000     pinMode.uart1...

0000d94c <_ch32_pin_ops>:
    d94c:	39b2 0000 3944 0000 397a 0000 3a62 0000     .9..D9..z9..b:..
    d95c:	3b2c 0000 3bb4 0000                         ,;...;..

0000d964 <pin_irq_map>:
    d964:	0001 0000 0016 0000 0002 0000 0017 0000     ................
    d974:	0004 0000 0018 0000 0008 0000 0019 0000     ................
    d984:	0010 0000 001a 0000 0020 0000 0027 0000     ........ ...'...
    d994:	0040 0000 0027 0000 0080 0000 0027 0000     @...'.......'...
    d9a4:	0100 0000 0027 0000 0200 0000 0027 0000     ....'.......'...
    d9b4:	0400 0000 0038 0000 0800 0000 0038 0000     ....8.......8...
    d9c4:	1000 0000 0038 0000 2000 0000 0038 0000     ....8.... ..8...
    d9d4:	4000 0000 0038 0000 8000 0000 0038 0000     .@..8.......8...

0000d9e4 <pins>:
    d9e4:	ffff ffff 0000 0000 0000 0000 0000 0000     ................
    d9f4:	0001 0000 3932 0000 1800 4001 0004 0000     ....29.....@....
    da04:	0002 0000 3932 0000 1800 4001 0008 0000     ....29.....@....
    da14:	0003 0000 3932 0000 1800 4001 0010 0000     ....29.....@....
    da24:	0004 0000 3932 0000 1800 4001 0020 0000     ....29.....@ ...
    da34:	0005 0000 3932 0000 1800 4001 0040 0000     ....29.....@@...
    da44:	ffff ffff 0000 0000 0000 0000 0000 0000     ................
    da54:	0007 0000 3922 0000 1000 4001 2000 0000     ...."9.....@. ..
    da64:	0008 0000 3922 0000 1000 4001 4000 0000     ...."9.....@.@..
    da74:	0009 0000 3922 0000 1000 4001 8000 0000     ...."9.....@....
    da84:	ffff ffff 0000 0000 0000 0000 0000 0000     ................
    da94:	ffff ffff 0000 0000 0000 0000 0000 0000     ................
    daa4:	ffff ffff 0000 0000 0000 0000 0000 0000     ................
    dab4:	ffff ffff 0000 0000 0000 0000 0000 0000     ................
    dac4:	ffff ffff 0000 0000 0000 0000 0000 0000     ................
    dad4:	000f 0000 3922 0000 1000 4001 0001 0000     ...."9.....@....
    dae4:	0010 0000 3922 0000 1000 4001 0002 0000     ...."9.....@....
    daf4:	0011 0000 3922 0000 1000 4001 0004 0000     ...."9.....@....
    db04:	0012 0000 3922 0000 1000 4001 0008 0000     ...."9.....@....
    db14:	ffff ffff 0000 0000 0000 0000 0000 0000     ................
    db24:	ffff ffff 0000 0000 0000 0000 0000 0000     ................
    db34:	ffff ffff 0000 0000 0000 0000 0000 0000     ................
    db44:	ffff ffff 0000 0000 0000 0000 0000 0000     ................
    db54:	0017 0000 3912 0000 0800 4001 0001 0000     .....9.....@....
    db64:	0018 0000 3912 0000 0800 4001 0002 0000     .....9.....@....
    db74:	0019 0000 3912 0000 0800 4001 0004 0000     .....9.....@....
    db84:	001a 0000 3912 0000 0800 4001 0008 0000     .....9.....@....
    db94:	ffff ffff 0000 0000 0000 0000 0000 0000     ................
    dba4:	ffff ffff 0000 0000 0000 0000 0000 0000     ................
    dbb4:	001d 0000 3912 0000 0800 4001 0010 0000     .....9.....@....
    dbc4:	001e 0000 3912 0000 0800 4001 0020 0000     .....9.....@ ...
    dbd4:	001f 0000 3912 0000 0800 4001 0040 0000     .....9.....@@...
    dbe4:	0020 0000 3912 0000 0800 4001 0080 0000      ....9.....@....
    dbf4:	0021 0000 3922 0000 1000 4001 0010 0000     !..."9.....@....
    dc04:	0022 0000 3922 0000 1000 4001 0020 0000     "..."9.....@ ...
    dc14:	0023 0000 3902 0000 0c00 4001 0001 0000     #....9.....@....
    dc24:	0024 0000 3902 0000 0c00 4001 0002 0000     $....9.....@....
    dc34:	0025 0000 3902 0000 0c00 4001 0004 0000     %....9.....@....
    dc44:	0026 0000 3932 0000 1800 4001 0080 0000     &...29.....@....
    dc54:	0027 0000 3932 0000 1800 4001 0100 0000     '...29.....@....
    dc64:	0028 0000 3932 0000 1800 4001 0200 0000     (...29.....@....
    dc74:	0029 0000 3932 0000 1800 4001 0400 0000     )...29.....@....
    dc84:	002a 0000 3932 0000 1800 4001 0800 0000     *...29.....@....
    dc94:	002b 0000 3932 0000 1800 4001 1000 0000     +...29.....@....
    dca4:	002c 0000 3932 0000 1800 4001 2000 0000     ,...29.....@. ..
    dcb4:	002d 0000 3932 0000 1800 4001 4000 0000     -...29.....@.@..
    dcc4:	002e 0000 3932 0000 1800 4001 8000 0000     ....29.....@....
    dcd4:	002f 0000 3902 0000 0c00 4001 0400 0000     /....9.....@....
    dce4:	0030 0000 3902 0000 0c00 4001 0800 0000     0....9.....@....
    dcf4:	ffff ffff 0000 0000 0000 0000 0000 0000     ................
    dd04:	ffff ffff 0000 0000 0000 0000 0000 0000     ................
    dd14:	0033 0000 3902 0000 0c00 4001 1000 0000     3....9.....@....
    dd24:	0034 0000 3902 0000 0c00 4001 2000 0000     4....9.....@. ..
    dd34:	0035 0000 3902 0000 0c00 4001 4000 0000     5....9.....@.@..
    dd44:	0036 0000 3902 0000 0c00 4001 8000 0000     6....9.....@....
    dd54:	0037 0000 38f0 0000 1400 4001 0100 0000     7....8.....@....
    dd64:	0038 0000 38f0 0000 1400 4001 0200 0000     8....8.....@....
    dd74:	0039 0000 38f0 0000 1400 4001 0400 0000     9....8.....@....
    dd84:	003a 0000 38f0 0000 1400 4001 0800 0000     :....8.....@....
    dd94:	003b 0000 38f0 0000 1400 4001 1000 0000     ;....8.....@....
    dda4:	003c 0000 38f0 0000 1400 4001 2000 0000     <....8.....@. ..
    ddb4:	003d 0000 38f0 0000 1400 4001 4000 0000     =....8.....@.@..
    ddc4:	003e 0000 38f0 0000 1400 4001 8000 0000     >....8.....@....
    ddd4:	003f 0000 3922 0000 1000 4001 0040 0000     ?..."9.....@@...
    dde4:	0040 0000 3922 0000 1000 4001 0080 0000     @..."9.....@....
    ddf4:	0041 0000 3922 0000 1000 4001 0100 0000     A..."9.....@....
    de04:	0042 0000 3922 0000 1000 4001 0200 0000     B..."9.....@....
    de14:	0043 0000 3912 0000 0800 4001 0100 0000     C....9.....@....
    de24:	0044 0000 3912 0000 0800 4001 0200 0000     D....9.....@....
    de34:	0045 0000 3912 0000 0800 4001 0400 0000     E....9.....@....
    de44:	0046 0000 3912 0000 0800 4001 0800 0000     F....9.....@....
    de54:	0047 0000 3912 0000 0800 4001 1000 0000     G....9.....@....
    de64:	0048 0000 3912 0000 0800 4001 2000 0000     H....9.....@. ..
    de74:	ffff ffff 0000 0000 0000 0000 0000 0000     ................
    de84:	ffff ffff 0000 0000 0000 0000 0000 0000     ................
    de94:	ffff ffff 0000 0000 0000 0000 0000 0000     ................
    dea4:	004c 0000 3912 0000 0800 4001 4000 0000     L....9.....@.@..
    deb4:	004d 0000 3912 0000 0800 4001 8000 0000     M....9.....@....
    dec4:	004e 0000 3922 0000 1000 4001 0400 0000     N..."9.....@....
    ded4:	004f 0000 3922 0000 1000 4001 0800 0000     O..."9.....@....
    dee4:	0050 0000 3922 0000 1000 4001 1000 0000     P..."9.....@....
    def4:	0051 0000 38f0 0000 1400 4001 0001 0000     Q....8.....@....
    df04:	0052 0000 38f0 0000 1400 4001 0002 0000     R....8.....@....
    df14:	0053 0000 38f0 0000 1400 4001 0004 0000     S....8.....@....
    df24:	0054 0000 38f0 0000 1400 4001 0008 0000     T....8.....@....
    df34:	0055 0000 38f0 0000 1400 4001 0010 0000     U....8.....@....
    df44:	0056 0000 38f0 0000 1400 4001 0020 0000     V....8.....@ ...
    df54:	0057 0000 38f0 0000 1400 4001 0040 0000     W....8.....@@...
    df64:	0058 0000 38f0 0000 1400 4001 0080 0000     X....8.....@....
    df74:	0059 0000 3902 0000 0c00 4001 0008 0000     Y....9.....@....
    df84:	005a 0000 3902 0000 0c00 4001 0010 0000     Z....9.....@....
    df94:	005b 0000 3902 0000 0c00 4001 0020 0000     [....9.....@ ...
    dfa4:	005c 0000 3902 0000 0c00 4001 0040 0000     \....9.....@@...
    dfb4:	005d 0000 3902 0000 0c00 4001 0080 0000     ]....9.....@....
    dfc4:	ffff ffff 0000 0000 0000 0000 0000 0000     ................
    dfd4:	005f 0000 3902 0000 0c00 4001 0100 0000     _....9.....@....
    dfe4:	0060 0000 3902 0000 0c00 4001 0200 0000     `....9.....@....
    dff4:	0061 0000 3932 0000 1800 4001 0001 0000     a...29.....@....
    e004:	0062 0000 3932 0000 1800 4001 0002 0000     b...29.....@....
    e014:	ffff ffff 0000 0000 0000 0000 0000 0000     ................
    e024:	ffff ffff 0000 0000 0000 0000 0000 0000     ................
    e034:	6970 006e                                   pin.

0000e038 <_ch32_timer_ops>:
    e038:	3fc4 0000 0000 0000 0000 0000 3fec 0000     .?...........?..
    e048:	3fba 0000 0000 0000 403a 0000 6954 656d     .?......:@..Time
    e058:	2d72 0037                                   r-7.

0000e05c <ch32_uart_ops>:
    e05c:	4092 0000 429c 0000 4278 0000 4254 0000     .@...B..xB..TB..
    e06c:	408e 0000 4c36 0000 4c1a 0000 4bc6 0000     .@..6L...L...K..
    e07c:	4baa 0000 4b8a 0000 4b3e 0000 45f6 0000     .K...K..>K...E..
    e08c:	45f6 0000 45f6 0000 45f6 0000 45f6 0000     .E...E...E...E..
    e09c:	45f6 0000 45f6 0000 45f6 0000 45f6 0000     .E...E...E...E..
    e0ac:	45f6 0000 4aaa 0000 4a58 0000 4a06 0000     .E...J..XJ...J..
    e0bc:	49fc 0000 49f2 0000 49e8 0000 49de 0000     .I...I...I...I..
    e0cc:	49d4 0000 49ca 0000 49c0 0000 49b6 0000     .I...I...I...I..
    e0dc:	45f6 0000 45f6 0000 45f6 0000 45f6 0000     .E...E...E...E..
    e0ec:	45f6 0000 4922 0000 48a2 0000 4822 0000     .E.."I...H.."H..
    e0fc:	47a2 0000 4722 0000 45f6 0000 45f6 0000     .G.."G...E...E..
    e10c:	45f6 0000 45f6 0000 45f6 0000 45f6 0000     .E...E...E...E..
    e11c:	45f6 0000 45f6 0000 45f6 0000 45f6 0000     .E...E...E...E..
    e12c:	45f6 0000 468e 0000 45c6 0000 45f6 0000     .E...F...E...E..
    e13c:	45f6 0000 45f6 0000 45f6 0000 45f6 0000     .E...E...E...E..
    e14c:	45f6 0000 45f6 0000 45f6 0000 45f6 0000     .E...E...E...E..
    e15c:	45f6 0000 45f6 0000 45f6 0000 45f6 0000     .E...E...E...E..
    e16c:	45f6 0000 45fa 0000 0000 4347 0000 4351     .E...E....GC..QC
    e17c:	6554 706d 616c 6574 5320 7a69 3a65 2520     Template Size: %
    e18c:	0064 0000 7244 706f 5420 6968 2073 6e4f     d...Drop This On
    e19c:	0065 0000 0000 42c8 614d 6e69 4d20 6e65     e......BMain Men
    e1ac:	0075 0000 6150 6172 656d 6574 4d72 646f     u...ParameterMod
    e1bc:	6669 0079 6554 706d 616c 6574 7254 6961     ify.TemplateTrai
    e1cc:	696e 676e 0000 0000 6157 6576 6f66 6d72     ning....Waveform
    e1dc:	0000 0000 6843 6f6f 6573 6554 706d 616c     ....ChooseTempla
    e1ec:	6574 0000 7552 446e 7774 0000 6166 5f63     te..RunDtw..fac_
    e1fc:	7464 0077 6425 252e 2e32 0064 6166 5f63     dtw.%d.%2.d.fac_
    e20c:	644f 7369 0074 0000 6854 6572 6873 0000     Odist...Thresh..
    e21c:	754a 6764 5465 7268 7365 0068 2077 666f     JudgeThresh.w of
    e22c:	4420 5754 0000 0000 6152 676e 3a65 3520      DTW....Range: 5
    e23c:	7420 206f 6425 0000 6146 7473 4d20 646f      to %d..Fast Mod
    e24c:	0065 0000 6f4e 6d72 6c61 4d20 646f 0065     e...Normal Mode.
    e25c:	6554 706d 616c 6574 302d 0000 6554 706d     Template-0..Temp
    e26c:	616c 6574 312d 0000 6554 706d 616c 6574     late-1..Template
    e27c:	322d 0000 6554 706d 616c 6574 332d 0000     -2..Template-3..
    e28c:	6554 706d 616c 6574 6157 746e 6465 0000     TemplateWanted..
    e29c:	6f56 746c 6520 746e 7265 0a0d 0000 0000     Volt enter......
    e2ac:	6f56 746c 6c20 6165 6576 0a0d 0000 0000     Volt leave......
    e2bc:	7254 6961 206e 6f4e 252e 2064 6554 706d     Train No.%d Temp
    e2cc:	616c 6574 0021 0000 6c50 6165 6573 7020     late!...Please p
    e2dc:	616c 6563 5320 6d61 6c70 0065 6552 616d     lace Sample.Rema
    e2ec:	6e69 6e69 3a67 6425 0000 0000 4152 204d     ining:%d....RAM 
    e2fc:	6f4e 2074 6e45 756f 6867 0021 6f52 6e75     Not Enough!.Roun
    e30c:	2d64 6425 4d20 6469 4420 5754 5620 6c61     d-%d Mid DTW Val
    e31c:	6575 0000 6542 7473 4d20 7461 6863 6e69     ue..Best Matchin
    e32c:	2067 6425 252f 0064 4d44 2041 7269 2171     g %d/%d.DMA irq!
    e33c:	0a0d 0000 6820 7261 6664 6c75 0d74 000a     .... hardfult...
    e34c:	4e20 494d 4820 6e61 6c64 7265 0a0d 0000      NMI Handler....

0000e35c <asc2_1608>:
	...
    e36c:	0000 1000 1010 1010 0010 1000 0010 0000     ................
    e37c:	0000 2800 2828 0028 0000 0000 0000 0000     ...((((.........
    e38c:	0000 1200 1612 247f fe24 4828 0048 0000     .......$$.(HH...
    e39c:	0000 0808 493e 6848 0b3e 4909 083e 0008     ....>IHh>..I>...
    e3ac:	0000 6000 9090 0c62 4630 0909 0006 0000     ...`..b.0F......
    e3bc:	0000 1c00 2020 3030 4549 6245 003d 0000     ....  00IEEb=...
    e3cc:	0000 1000 1010 0010 0000 0000 0000 0000     ................
    e3dc:	0000 080c 1008 1010 1010 0810 0408 0000     ................
    e3ec:	0000 1030 0810 0808 0808 1008 3010 0000     ..0..........0..
    e3fc:	0000 0800 3e49 6b1c 0008 0000 0000 0000     ....I>.k........
    e40c:	0000 0000 1000 1010 10fe 1010 0000 0000     ................
	...
    e424:	0000 1800 1018 0020 0000 0000 0000 0000     ...... .........
    e434:	3800 0000 0000 0000 0000 0000 0000 0000     .8..............
    e444:	0000 1800 0018 0000 0000 0200 0404 0804     ................
    e454:	1008 2010 2020 0040 0000 1c00 4122 4941     ...   @....."AAI
    e464:	4141 2241 001c 0000 0000 1800 0828 0808     AAA"........(...
    e474:	0808 0808 003e 0000 0000 3e00 0143 0201     ....>......>C...
    e484:	0c06 2010 007f 0000 0000 3e00 0141 1c03     ... .......>A...
    e494:	0103 4301 003e 0000 0000 0600 1a0a 2212     ...C>.........."
    e4a4:	7f42 0202 0002 0000 0000 7e00 4040 427c     B..........~@@|B
    e4b4:	0101 4201 003c 0000 0000 1e00 6031 5e40     ...B<.......1`@^
    e4c4:	4163 2341 001e 0000 0000 7f00 0203 0404     cAA#............
    e4d4:	0808 1010 0020 0000 0000 3e00 4141 3e41     .... ......>AAA>
    e4e4:	4163 6341 003e 0000 0000 3c00 4162 6341     cAAc>......<bAAc
    e4f4:	013d 4603 003c 0000 0000 0000 0000 1818     =..F<...........
    e504:	0000 1800 0018 0000 0000 0000 0000 1818     ................
    e514:	0000 1800 1018 0020 0000 0000 0100 380e     ...... ........8
    e524:	3840 010e 0000 0000 0000 0000 0000 007f     @8..............
    e534:	7f00 0000 0000 0000 0000 0000 4000 0e38     .............@8.
    e544:	0e01 4038 0000 0000 0000 3800 0444 180c     ..8@.......8D...
    e554:	1010 1000 0010 0000 0000 1e00 2133 4947     ............3!GI
    e564:	4949 4749 3020 000e 0000 0800 1414 1414     IIIG 0..........
    e574:	3e22 4122 0041 0000 0000 7e00 4141 7e41     ">"AA......~AAA~
    e584:	4143 4341 007e 0000 0000 1e00 4021 4040     CAAC~.......!@@@
    e594:	4040 2140 001e 0000 0000 7c00 4142 4141     @@@!.......|BAAA
    e5a4:	4141 4241 007c 0000 0000 7f00 4040 7f40     AAAB|.......@@@.
    e5b4:	4040 4040 007f 0000 0000 7f00 4040 7f40     @@@@........@@@.
    e5c4:	4040 4040 0040 0000 0000 1e00 4021 4040     @@@@@.......!@@@
    e5d4:	4143 2141 001e 0000 0000 4100 4141 7f41     CAA!.......AAAA.
    e5e4:	4141 4141 0041 0000 0000 7c00 1010 1010     AAAAA......|....
    e5f4:	1010 1010 007c 0000 0000 1c00 0404 0404     ....|...........
    e604:	0404 4404 0038 0000 0000 4200 4844 7050     ...D8......BDHPp
    e614:	4878 4644 0042 0000 0000 4000 4040 4040     xHDFB......@@@@@
    e624:	4040 4040 007f 0000 0000 6300 5563 5555     @@@@.......ccUUU
    e634:	4149 4141 0041 0000 0000 6100 5161 4951     IAAAA......aaQQI
    e644:	4549 4345 0043 0000 0000 1c00 4122 4141     IEECC......."AAA
    e654:	4141 2241 001c 0000 0000 7e00 4143 4341     AAA".......~CAAC
    e664:	407e 4040 0040 0000 0000 1c00 4122 4141     ~@@@@......."AAA
    e674:	4141 2241 061e 0002 0000 7e00 4143 4341     AAA".......~CAAC
    e684:	427c 4141 0040 0000 0000 1e00 4061 3040     |BAA@.......a@@0
    e694:	010e 4301 003e 0000 0000 fe00 1010 1010     ...C>...........
    e6a4:	1010 1010 0010 0000 0000 4100 4141 4141     ...........AAAAA
    e6b4:	4141 6341 003e 0000 0000 4100 2241 2222     AAAc>......AA"""
    e6c4:	1414 1414 0008 0000 0000 8100 8181 5a5a     ..............ZZ
    e6d4:	665a 6666 0066 0000 0000 4100 1422 0814     Zffff......A"...
    e6e4:	1414 2222 0041 0000 0000 8200 4444 3828     ..""A.......DD(8
    e6f4:	1010 1010 0010 0000 0000 7f00 0203 0804     ................
    e704:	1008 6020 007f 0000 0000 101c 1010 1010     .. `............
    e714:	1010 1010 1c10 0000 0000 4000 2020 1020     ...........@   .
    e724:	0810 0408 0404 0002 0000 0838 0808 0808     ..........8.....
    e734:	0808 0808 3808 0000 0000 1000 4428 00c6     .....8......(D..
	...
    e758:	0000 ff00 3000 0810 0000 0000 0000 0000     .....0..........
	...
    e770:	1c00 0222 423e 4642 003a 0000 0000 4040     ..".>BBF:.....@@
    e780:	7c40 4264 4242 6442 005c 0000 0000 0000     @|dBBBBd\.......
    e790:	1c00 4022 4040 2240 001c 0000 0000 0202     .."@@@@"........
    e7a0:	3e02 4226 4242 2642 003a 0000 0000 0000     .>&BBBB&:.......
    e7b0:	3c00 4226 407e 2240 001c 0000 0000 100c     .<&B~@@"........
    e7c0:	7c10 1010 1010 1010 0010 0000 0000 0000     .|..............
    e7d0:	3a00 4226 4242 2642 023a 1c22 0000 4040     .:&BBBB&:."...@@
    e7e0:	5c40 4262 4242 4242 0042 0000 0000 1010     @\bBBBBBB.......
    e7f0:	7000 1010 1010 1010 007c 0000 0000 0808     .p......|.......
    e800:	3800 0808 0808 0808 0808 7008 0000 4040     .8.........p..@@
    e810:	4440 5048 4870 4448 0042 0000 0000 1070     @DHPpHHDB.....p.
    e820:	1010 1010 1010 1010 000e 0000 0000 0000     ................
    e830:	7e00 4949 4949 4949 0049 0000 0000 0000     .~IIIIIII.......
    e840:	5c00 4262 4242 4242 0042 0000 0000 0000     .\bBBBBBB.......
    e850:	3c00 4266 4242 6642 003c 0000 0000 0000     .<fBBBBf<.......
    e860:	5c00 4264 4242 6442 407c 4040 0000 0000     .\dBBBBd|@@@....
    e870:	3a00 4226 4242 2642 023a 0202 0000 0000     .:&BBBB&:.......
    e880:	3c00 2032 2020 2020 0020 0000 0000 0000     .<2      .......
    e890:	3c00 4042 0e70 4202 003c 0000 0000 1000     .<B@p..B<.......
    e8a0:	7e10 1010 1010 1010 000e 0000 0000 0000     .~..............
    e8b0:	4200 4242 4242 4642 003a 0000 0000 0000     .BBBBBBF:.......
    e8c0:	4200 2442 2424 1818 0018 0000 0000 0000     .BB$$$..........
    e8d0:	8100 5a81 5a5a 245a 0024 0000 0000 0000     ...ZZZZ$$.......
    e8e0:	4200 1824 1818 2424 0042 0000 0000 0000     .B$...$$B.......
    e8f0:	4200 2422 1424 1818 0808 3010 0000 0000     .B"$$......0....
    e900:	7e00 0402 1008 4020 007e 0000 0000 100c     .~.... @~.......
    e910:	1010 1010 1060 1010 1010 000c 0000 1010     ....`...........
    e920:	1010 1010 1010 1010 1010 1010 0000 1060     ..............`.
    e930:	1010 1010 100c 1010 1010 0060               ..........`.

0000e93c <asc2_2412>:
	...
    e974:	0006 0006 0006 0006 0006 0006 0006 0006     ................
    e984:	0006 0006 0000 0000 0006 0006 0006 0000     ................
	...
    e9a4:	8019 8019 8019 8019 8019 8019 0000 0000     ................
	...
    e9d4:	6006 4004 c00c c00c f07f f07f 8008 8019     .`.@............
    e9e4:	8019 e0ff e0ff 0033 0033 0022 0022 0000     ......3.3."."...
	...
    ea00:	0000 0002 0002 800f c01f 403a 0032 0032     ..........:@2.2.
    ea10:	003a 001f c007 e002 6002 6002 e022 c03f     :........`.`".?.
    ea20:	801f 0002 0002 0002 0000 0000 0000 0000     ................
    ea30:	0000 0000 0078 0048 00cc 00cc 00cc 4048     ....x.H.......H@
    ea40:	c079 000e c073 4002 6006 6006 6006 4002     y...s..@.`.`.`.@
    ea50:	c003 0000 0000 0000 0000 0000 0000 0000     ................
    ea60:	0000 0000 800f 801f 0018 0018 0018 000c     ................
    ea70:	001e 3036 3063 b063 a061 e060 c030 603f     ..60c0c.a.`.0.?`
    ea80:	700e 0000 0000 0000 0000 0000 0000 0000     .p..............
    ea90:	0000 0000 0006 0006 0006 0006 0006 0006     ................
	...
    eac0:	0000 0001 0002 0002 0006 0006 0004 000c     ................
    ead0:	000c 000c 000c 000c 000c 000c 0004 0006     ................
    eae0:	0006 0002 0002 0001 0000 0000 0000 0000     ................
    eaf0:	0000 0008 0004 0004 0006 0006 0002 0003     ................
    eb00:	0003 0003 0003 0003 0003 0003 0002 0006     ................
    eb10:	0006 0004 0004 0008 0000 0000 0000 0000     ................
    eb20:	0000 0000 0004 0004 4044 8035 000e 000e     ........D@5.....
    eb30:	8035 4044 0004 0004 0000 0000 0000 0000     5.D@............
	...
    eb58:	0006 0006 0006 0006 0006 e07f e07f 0006     ................
    eb68:	0006 0006 0006 0006 0000 0000 0000 0000     ................
	...
    eb9c:	0006 0006 0006 0006 000c 000c 0000 0000     ................
	...
    ebc4:	001f 001f 0000 0000 0000 0000 0000 0000     ................
	...
    ebfc:	0006 0006 0006 0000 0000 0000 0000 0000     ................
	...
    ec14:	6000 c000 c000 8001 8001 0003 0003 0006     .`..............
    ec24:	0006 0006 000c 000c 0018 0018 0030 0030     ............0.0.
    ec34:	0060 0000 0000 0000 0000 0000 0000 0000     `...............
    ec44:	001e 803f 8031 c071 c060 c060 c066 c066     ..?.1.q.`.`.f.f.
    ec54:	c060 c060 c060 c071 8031 803f 000e 0000     `.`.`.q.1.?.....
	...
    ec74:	0007 001f 001b 0003 0003 0003 0003 0003     ................
    ec84:	0003 0003 0003 0003 0003 e01f e01f 0000     ................
	...
    eca4:	003f 807f c041 c000 c000 c000 c001 8001     ?...A...........
    ecb4:	0003 0006 000c 0018 0030 c07f c07f 0000     ........0.......
	...
    ecd4:	003f 807f c041 c000 c000 c001 800f 800f     ?...A...........
    ece4:	8001 c000 c000 c000 c041 807f 003f 0000     ........A...?...
	...
    ed04:	8003 8003 8007 8005 800d 8009 8019 8031     ..............1.
    ed14:	8031 8061 e07f e07f 8001 8001 8001 0000     1.a.............
	...
    ed34:	803f 803f 0030 0030 0030 003f 803f c021     ?.?.0.0.0.?.?.!.
    ed44:	c000 c000 c000 c000 8041 807f 003e 0000     ........A...>...
	...
    ed64:	000f 801f 8038 0030 0070 0060 006f 807f     ....8.0.p.`.o...
    ed74:	c071 c060 c060 c060 c031 803f 001f 0000     q.`.`.`.1.?.....
	...
    ed94:	c07f c07f 8001 8001 8001 0003 0003 0003     ................
    eda4:	0006 0006 0006 000c 000c 000c 0018 0000     ................
	...
    edc4:	001f 803f c071 c060 c060 8031 001f 803f     ..?.q.`.`.1...?.
    edd4:	8031 c060 c060 c060 c071 803f 001f 0000     1.`.`.`.q.?.....
	...
    edf4:	001f 803f 8071 c060 c060 c060 c071 c03f     ..?.q.`.`.`.q.?.
    ee04:	c01e c000 c000 8001 8023 003f 001e 0000     ........#.?.....
	...
    ee2c:	0006 0006 0006 0000 0000 0000 0000 0000     ................
    ee3c:	0006 0006 0006 0000 0000 0000 0000 0000     ................
	...
    ee5c:	0006 0006 0006 0000 0000 0000 0000 0000     ................
    ee6c:	0006 0006 0006 0006 000c 000c 0000 0000     ................
	...
    ee88:	0000 2000 e001 8007 001e 0070 0070 001e     ... ......p.p...
    ee98:	8007 e001 2000 0000 0000 0000 0000 0000     ..... ..........
	...
    eec0:	e07f e07f 0000 0000 e07f e07f 0000 0000     ................
	...
    eee8:	0000 0040 0078 001e 8007 e000 e000 8007     ..@.x...........
    eef8:	001e 0078 0040 0000 0000 0000 0000 0000     ..x.@...........
	...
    ef14:	800f c01f 6010 6000 e000 c001 8003 0006     .....`.`........
    ef24:	0006 0006 0000 0000 0006 0006 0006 0000     ................
	...
    ef44:	0000 8007 c018 6030 6030 e023 6062 6066     ......0`0`#.b`f`
    ef54:	6066 6066 6066 6066 6062 e033 0030 0018     f`f`f`f`b`3.0...
    ef64:	001c 8007 0000 0000 0000 0000 0000 0000     ................
    ef74:	0006 0006 000f 000f 000f 801f 8019 8019     ................
    ef84:	8019 c03f c03f c030 c030 6060 6060 0000     ..?.?.0.0.````..
	...
    efa4:	007f 807f c061 c060 c060 c061 807f 807f     ....a.`.`.a.....
    efb4:	c060 6060 6060 6060 e060 c07f 807f 0000     `.```````.......
	...
    efd4:	c007 e01f 2038 0030 0060 0060 0060 0060     ....8 0.`.`.`.`.
    efe4:	0060 0060 0060 0030 2038 e01f c007 0000     `.`.`.0.8 ......
	...
    f004:	007e 807f c061 c060 6060 6060 6060 6060     ~...a.`.````````
    f014:	6060 6060 6060 c060 c061 807f 007e 0000     ```````.a...~...
	...
    f034:	e07f e07f 0060 0060 0060 0060 e07f e07f     ....`.`.`.`.....
    f044:	0060 0060 0060 0060 0060 e07f e07f 0000     `.`.`.`.`.......
	...
    f064:	e07f e07f 0060 0060 0060 0060 c07f c07f     ....`.`.`.`.....
    f074:	0060 0060 0060 0060 0060 0060 0060 0000     `.`.`.`.`.`.`...
	...
    f094:	800f c01f 4038 0030 0060 0060 0060 e061     ....8@0.`.`.`.a.
    f0a4:	e061 6060 6060 6030 6038 e01f 800f 0000     a.````0`8`......
	...
    f0c4:	6060 6060 6060 6060 6060 6060 e07f e07f     ````````````....
    f0d4:	6060 6060 6060 6060 6060 6060 6060 0000     ``````````````..
	...
    f0f4:	c03f c03f 0006 0006 0006 0006 0006 0006     ?.?.............
    f104:	0006 0006 0006 0006 0006 c03f c03f 0000     ..........?.?...
	...
    f124:	801f 801f 8001 8001 8001 8001 8001 8001     ................
    f134:	8001 8001 8001 8001 8043 007f 003e 0000     ........C...>...
	...
    f154:	6060 c060 8061 0063 0066 006c 007c 007e     ```.a.c.f.l.|.~.
    f164:	0076 0063 8063 8061 c060 e060 6060 0000     v.c.c.a.`.`.``..
	...
    f184:	0060 0060 0060 0060 0060 0060 0060 0060     `.`.`.`.`.`.`.`.
    f194:	0060 0060 0060 0060 0060 e07f e07f 0000     `.`.`.`.`.......
	...
    f1b4:	e070 e070 e070 e079 6069 6069 606f 6066     p.p.p.y.i`i`o`f`
    f1c4:	6066 6066 6060 6060 6060 6060 6060 0000     f`f```````````..
	...
    f1e4:	6070 6070 6078 6078 606c 606c 6064 6066     p`p`x`x`l`l`d`f`
    f1f4:	6062 6063 6063 e061 e061 e060 e060 0000     b`c`c`a.a.`.`...
	...
    f214:	000f c03f c030 e070 6060 6060 6060 6060     ..?.0.p.````````
    f224:	6060 6060 6060 e070 c030 c03f 000f 0000     ``````p.0.?.....
	...
    f244:	807f c07f e060 6060 6060 6060 e060 c07f     ....`.```````...
    f254:	807f 0060 0060 0060 0060 0060 0060 0000     ..`.`.`.`.`.`...
	...
    f274:	000f c03f c030 e070 6060 6060 6060 6060     ..?.0.p.````````
    f284:	6060 6060 6060 e070 c030 801f 000f 8001     ``````p.0.......
    f294:	c000 8000 0000 0000 0000 0000 0000 0000     ................
    f2a4:	007f c07f e060 6060 6060 6060 c060 c07f     ....`.```````...
    f2b4:	807f c061 c060 6060 6060 3060 3060 0000     ..a.`.`````0`0..
	...
    f2d4:	801f c03f 4070 0060 0060 0070 003e 801f     ..?.p@`.`.p.>...
    f2e4:	c001 6000 6000 6000 e040 c07f 803f 0000     ...`.`.`@...?...
	...
    f304:	f0ff f0ff 0006 0006 0006 0006 0006 0006     ................
    f314:	0006 0006 0006 0006 0006 0006 0006 0000     ................
	...
    f334:	6060 6060 6060 6060 6060 6060 6060 6060     ````````````````
    f344:	6060 6060 6060 6060 e070 c03f 801f 0000     ````````p.?.....
	...
    f364:	6060 6060 c030 c030 c030 c030 8019 8019     ````0.0.0.0.....
    f374:	8019 801f 000f 000f 000f 0006 0006 0000     ................
	...
    f394:	30c0 30c0 30c0 6060 6066 6066 606f 606f     .0.0.0``f`f`o`o`
    f3a4:	6069 6069 c039 c039 c039 c030 c030 0000     i`i`9.9.9.0.0...
	...
    f3c4:	e070 c030 c039 8019 000f 000f 0006 0006     p.0.9...........
    f3d4:	000f 000f 801b 8019 c031 c030 e060 0000     ........1.0.`...
	...
    f3f4:	70e0 6060 c030 c030 8019 801f 000f 0006     .p``0.0.........
    f404:	0006 0006 0006 0006 0006 0006 0006 0000     ................
	...
    f424:	e07f e07f c000 c001 8001 0003 0007 0006     ................
    f434:	000e 000c 0018 0038 0030 e07f e07f 0000     ......8.0.......
	...
    f450:	0000 8007 8007 0006 0006 0006 0006 0006     ................
    f460:	0006 0006 0006 0006 0006 0006 0006 0006     ................
    f470:	0006 0006 8007 8007 0000 0000 0000 0000     ................
    f480:	0000 0000 0060 0030 0030 0018 0018 000c     ....`.0.0.......
    f490:	000c 0006 0006 0006 0003 0003 8001 8001     ................
    f4a0:	c000 c000 6000 0000 0000 0000 0000 0000     .....`..........
    f4b0:	0000 000f 000f 0003 0003 0003 0003 0003     ................
    f4c0:	0003 0003 0003 0003 0003 0003 0003 0003     ................
    f4d0:	0003 0003 000f 000f 0000 0000 0000 0000     ................
    f4e0:	0000 0000 0007 800f 800d c018 6030 3060     ............0``0
	...
    f538:	f0ff f0ff 0000 0000 0018 000c 0006 0003     ................
	...
    f57c:	001f 803f c021 c000 c01f c03f c070 c060     ..?.!.....?.p.`.
    f58c:	c061 c07f c01c 0000 0000 0000 0000 0000     a...............
    f59c:	0000 0000 0000 0060 0060 0060 0060 0060     ......`.`.`.`.`.
    f5ac:	006f 807f 8071 c060 c060 c060 c060 c060     o...q.`.`.`.`.`.
    f5bc:	8071 807f 006f 0000 0000 0000 0000 0000     q...o...........
	...
    f5dc:	000f 803f 8030 0060 0060 0060 0060 0060     ..?.0.`.`.`.`.`.
    f5ec:	8030 803f 000f 0000 0000 0000 0000 0000     0.?.............
    f5fc:	0000 0000 0000 c000 c000 c000 c000 c000     ................
    f60c:	c01e c03f c031 c060 c060 c060 c060 c060     ..?.1.`.`.`.`.`.
    f61c:	c031 c03f c01e 0000 0000 0000 0000 0000     1.?.............
	...
    f63c:	000f 803f c031 c060 c07f c07f 0060 0060     ..?.1.`.....`.`.
    f64c:	4030 c03f 800f 0000 0000 0000 0000 0000     0@?.............
    f65c:	0000 0000 0000 e001 e003 0006 0006 0006     ................
    f66c:	e03f e03f 0006 0006 0006 0006 0006 0006     ?.?.............
    f67c:	0006 0006 0006 0000 0000 0000 0000 0000     ................
	...
    f69c:	c01e c03f c031 c060 c060 c060 c060 c060     ..?.1.`.`.`.`.`.
    f6ac:	c031 c03f c01e c000 c021 803f 001f 0000     1.?.....!.?.....
    f6bc:	0000 0000 0000 0060 0060 0060 0060 0060     ......`.`.`.`.`.
    f6cc:	0067 807f c071 c060 c060 c060 c060 c060     g...q.`.`.`.`.`.
    f6dc:	c060 c060 c060 0000 0000 0000 0000 0000     `.`.`...........
    f6ec:	0000 0000 0000 0006 0006 0000 0000 0000     ................
    f6fc:	003e 003e 0006 0006 0006 0006 0006 0006     >.>.............
    f70c:	0006 e07f e07f 0000 0000 0000 0000 0000     ................
    f71c:	0000 0000 0000 0003 0003 0000 0000 0000     ................
    f72c:	001f 001f 0003 0003 0003 0003 0003 0003     ................
    f73c:	0003 0003 0003 0003 0003 003e 003c 0000     ..........>.<...
    f74c:	0000 0000 0000 0060 0060 0060 0060 0060     ......`.`.`.`.`.
    f75c:	c061 8063 0067 006e 007c 007c 0076 0067     a.c.g.n.|.|.v.g.
    f76c:	0063 8061 c061 0000 0000 0000 0000 0000     c.a.a...........
    f77c:	0000 0000 0000 00fc 00fc 000c 000c 000c     ................
    f78c:	000c 000c 000c 000c 000c 000c 000c 000c     ................
    f79c:	000e c007 c003 0000 0000 0000 0000 0000     ................
	...
    f7bc:	c06d e07f 6066 6066 6066 6066 6066 6066     m...f`f`f`f`f`f`
    f7cc:	6066 6066 6066 0000 0000 0000 0000 0000     f`f`f`..........
	...
    f7ec:	0067 807f c071 c060 c060 c060 c060 c060     g...q.`.`.`.`.`.
    f7fc:	c060 c060 c060 0000 0000 0000 0000 0000     `.`.`...........
	...
    f81c:	001f 803f 8031 c060 c060 c060 c060 c060     ..?.1.`.`.`.`.`.
    f82c:	8031 803f 001f 0000 0000 0000 0000 0000     1.?.............
	...
    f84c:	006f 807f 8071 c060 c060 c060 c060 c060     o...q.`.`.`.`.`.
    f85c:	8071 807f 006f 0060 0060 0060 0060 0000     q...o.`.`.`.`...
	...
    f87c:	c01e c03f c031 c060 c060 c060 c060 c060     ..?.1.`.`.`.`.`.
    f88c:	c031 c03f c01e c000 c000 c000 c000 0000     1.?.............
	...
    f8ac:	e00c f00d 100f 000e 000c 000c 000c 000c     ................
    f8bc:	000c 000c 000c 0000 0000 0000 0000 0000     ................
	...
    f8dc:	801f c03f 4060 0060 007f 801f c001 c000     ..?.`@`.........
    f8ec:	c041 807f 003f 0000 0000 0000 0000 0000     A...?...........
	...
    f904:	0000 000c 000c 000c c07f c07f 000c 000c     ................
    f914:	000c 000c 000c 000c 000c c00f c007 0000     ................
	...
    f93c:	c060 c060 c060 c060 c060 c060 c060 c060     `.`.`.`.`.`.`.`.
    f94c:	c071 c03f c01c 0000 0000 0000 0000 0000     q.?.............
	...
    f96c:	c060 c071 8031 8031 803b 001b 001b 001b     `.q.1.1.;.......
    f97c:	000e 000e 000e 0000 0000 0000 0000 0000     ................
	...
    f99c:	30c0 30c0 6060 6066 6066 6066 c03f c039     .0.0``f`f`f`?.9.
    f9ac:	c039 c039 c030 0000 0000 0000 0000 0000     9.9.0...........
	...
    f9cc:	c071 8031 001b 001f 000e 000e 000e 001f     q.1.............
    f9dc:	001b 8031 c071 0000 0000 0000 0000 0000     ..1.q...........
	...
    f9fc:	c060 8031 8031 8031 001b 001b 001f 000e     `.1.1.1.........
    fa0c:	000e 0006 000c 000c 000c 0038 0038 0000     ..........8.8...
	...
    fa2c:	c07f c07f 8003 0003 0007 000e 001c 0018     ................
    fa3c:	0030 c07f c07f 0000 0000 0000 0000 0000     0...............
    fa4c:	0000 0000 0000 c003 c007 0006 0006 0006     ................
    fa5c:	0006 0006 0006 003c 003c 000e 0006 0006     ......<.<.......
    fa6c:	0006 0006 0006 0006 c007 c003 0000 0000     ................
    fa7c:	0000 0000 0000 0006 0006 0006 0006 0006     ................
    fa8c:	0006 0006 0006 0006 0006 0006 0006 0006     ................
    fa9c:	0006 0006 0006 0006 0006 0006 0006 0006     ................
    faac:	0000 0000 0000 003c 003e 0006 0006 0006     ......<.>.......
    fabc:	0006 0006 0006 c003 c003 0007 0006 0006     ................
    facc:	0006 0006 0006 0006 003e 003c 0000 0000     ........>.<.....

0000fadc <asc2_3216>:
	...
    fb28:	c001 c001 c001 c001 c001 c001 c001 c001     ................
    fb38:	c001 c001 c001 c001 c001 c001 0000 0000     ................
    fb48:	0000 c001 c001 c001 0000 0000 0000 0000     ................
	...
    fb68:	3006 3006 3006 3006 3006 3006 3006 3006     .0.0.0.0.0.0.0.0
	...
    fba4:	0000 8c01 8c03 0c03 1803 1803 1803 ff7f     ................
    fbb4:	ff7f 3006 3006 300e 700c 600c feff feff     ...0.0.0.p.`....
    fbc4:	6018 c018 c018 c018 c030 8031 0000 0000     .`......0.1.....
	...
    fbe4:	0000 8000 8000 8000 f003 fc0f 8c0e 801c     ................
    fbf4:	801c 801c 801c 800e e00f f803 fc00 9e00     ................
    fc04:	8e00 8e00 8e00 9c10 f81f f007 8000 8000     ................
    fc14:	8000 8000 0000 0000 0000 0000 0000 0000     ................
    fc24:	0000 0000 003c 007e 00e7 00c3 00c3 00c3     ....<.~.........
    fc34:	00e7 1c7e 783c c001 0007 783c fc70 ce01     ..~.<x....<xp...
    fc44:	8601 8601 8601 ce01 fc00 7800 0000 0000     ...........x....
	...
    fc68:	c007 e00f 201e 001c 001c 001c 001e 000e     ..... ..........
    fc78:	000f 001f 833f c333 e371 e370 f670 7e70     ....?.3.q.p.p.p~
    fc88:	3c78 3e3c ee1f cf07 0000 0000 0000 0000     x<<>............
	...
    fca8:	8001 8001 8001 8001 8001 8001 8001 8001     ................
	...
    fce4:	0000 3000 6000 6000 e000 c000 c001 c001     ...0.`.`........
    fcf4:	8001 8003 8003 8003 8003 8003 8003 8003     ................
    fd04:	8003 8003 8001 c001 c001 c000 e000 6000     ...............`
    fd14:	6000 3000 0000 0000 0000 0000 0000 0000     .`.0............
    fd24:	0000 0006 0003 0003 8003 8001 c001 c001     ................
    fd34:	c000 e000 e000 e000 e000 e000 e000 e000     ................
    fd44:	e000 e000 c000 c001 c001 8001 8003 0003     ................
    fd54:	0003 0006 0000 0000 0000 0000 0000 0000     ................
    fd64:	0000 0000 8001 8001 8421 9c39 f00f c003     ........!.9.....
    fd74:	c003 f00f 9c39 8421 8001 8001 0000 0000     ....9.!.........
	...
    fdb0:	8001 8001 8001 8001 8001 8001 fe7f fe7f     ................
    fdc0:	8001 8001 8001 8001 8001 8001 0000 0000     ................
	...
    fe08:	c001 c001 c001 c001 8001 8003 8003 0003     ................
	...
    fe3c:	0000 f007 f007 0000 0000 0000 0000 0000     ................
	...
    fe88:	8003 8003 8003 8003 0000 0000 0000 0000     ................
	...
    fea8:	1c00 3800 3800 7000 7000 7000 e000 e000     ...8.8.p.p.p....
    feb8:	c001 c001 8003 8003 8003 0007 0007 000e     ................
    fec8:	000e 001c 001c 001c 0038 0038 0070 0000     ........8.8.p...
	...
    fee8:	e003 f80f 380e 1c1c 1c1c 0e38 0e38 0e38     .....8....8.8.8.
    fef8:	ce39 ce39 ce39 0e38 0e38 0e38 0e38 1c1c     9.9.9.8.8.8.8...
    ff08:	1c1c 380e f80f e003 0000 0000 0000 0000     ...8............
	...
    ff28:	e003 e00f e00c e000 e000 e000 e000 e000     ................
    ff38:	e000 e000 e000 e000 e000 e000 e000 e000     ................
    ff48:	e000 e000 fe0f fe0f 0000 0000 0000 0000     ................
	...
    ff68:	e00f f83f 3c38 1e20 0e00 0e00 0e00 0e00     ..?.8< .........
    ff78:	1e00 3c00 7c00 f800 f000 e001 c003 0007     ...<.|..........
    ff88:	000e 001c fe3f fe3f 0000 0000 0000 0000     ....?.?.........
	...
    ffa8:	f007 f81f 1c18 0e00 0e00 0e00 0e00 3c00     ...............<
    ffb8:	f007 f007 3c00 1c00 0e00 0e00 0e00 0e00     .....<..........
    ffc8:	1e00 3c30 f83f e00f 0000 0000 0000 0000     ..0<?...........
	...
    ffe8:	7000 f000 f001 f001 7003 7007 7006 700c     .p.......p.p.p.p
    fff8:	700c 7018 7038 7030 7060 fe7f fe7f 7000     .p.p8p0p`p.....p
   10008:	7000 7000 7000 7000 0000 0000 0000 0000     .p.p.p.p........
	...
   10028:	fc1f fc1f 001c 001c 001c 001c e01f f81f     ................
   10038:	3c10 1c00 0e00 0e00 0e00 0e00 0e00 0e00     .<..............
   10048:	1c00 3c20 f83f e01f 0000 0000 0000 0000     .. <?...........
	...
   10068:	f801 fc07 040f 001e 001c 001c 0038 f039     ............8.9.
   10078:	f83b 3c3e 1e3c 0e38 0e38 0e38 0e38 0e18     ;.><<.8.8.8.8...
   10088:	1c1c 3c0e f80f f003 0000 0000 0000 0000     ...<............
	...
   100a8:	fe3f fe3f 1e00 1c00 1c00 3800 3800 3800     ?.?........8.8.8
   100b8:	7000 7000 f000 e000 e000 e001 c001 c001     .p.p............
   100c8:	8003 8003 8003 0007 0000 0000 0000 0000     ................
	...
   100e8:	f007 fc1f 1c1c 0e38 0e38 0e38 0e38 1c1c     ......8.8.8.8...
   100f8:	f007 f80f 3c1e 1c1c 0e38 0e38 0e38 0e38     .....<..8.8.8.8.
   10108:	1e3c 3c1e f80f f007 0000 0000 0000 0000     <..<............
	...
   10128:	e007 f80f 381e 1c3c 0c38 0e38 0e38 0e38     .....8<.8.8.8.8.
   10138:	0e38 1e3c 3e1e ee0f ce07 0e00 1c00 1c00     8.<..>..........
   10148:	3c00 7810 f01f c00f 0000 0000 0000 0000     .<.x............
	...
   10174:	8003 8003 8003 8003 0000 0000 0000 0000     ................
   10184:	0000 0000 8003 8003 8003 8003 0000 0000     ................
	...
   101b4:	8003 8003 8003 8003 0000 0000 0000 0000     ................
   101c4:	0000 0000 8003 8003 8003 8003 0003 0007     ................
   101d4:	0007 0006 0000 0000 0000 0000 0000 0000     ................
	...
   101f0:	0200 1e00 7e00 f801 c00f 003f 0078 0078     .....~....?.x.x.
   10200:	003f c00f f801 7e00 1e00 0200 0000 0000     ?......~........
	...
   10238:	fe7f fe7f 0000 0000 0000 fe7f fe7f 0000     ................
	...
   10270:	0040 0078 007e 801f f003 fc00 1e00 1e00     @.x.~...........
   10280:	fc00 f003 801f 007e 0078 0040 0000 0000     ......~.x.@.....
	...
   102a8:	e003 f80f 381c 1c10 1c00 3c00 3c00 7800     .....8.....<.<.x
   102b8:	f000 e001 c003 8003 8003 8003 8003 0000     ................
   102c8:	0000 8003 8003 8003 0000 0000 0000 0000     ................
	...
   102e8:	0000 f801 fc07 0e0e 061c 0318 0330 7b30     ............0.0{
   102f8:	ff61 8761 0363 0363 0363 0363 0363 8761     a.a.c.c.c.c.c.a.
   10308:	ff71 7b30 0030 0018 001c 040f fc03 fc00     q.0{0...........
	...
   10328:	c001 e003 e003 e003 e003 7007 7007 7007     ...........p.p.p
   10338:	780f 380e 380e 380e fc1f fc1f 1c1c 0e38     .x.8.8.8......8.
   10348:	0e38 0e38 0f78 0770 0000 0000 0000 0000     8.8.x.p.........
	...
   10368:	e03f f83f 3838 1c38 1c38 1c38 1c38 3838     ?.?.888.8.8.8.88
   10378:	f03f f03f 3c38 1c38 0e38 0e38 0e38 0e38     ?.?.8<8.8.8.8.8.
   10388:	1e38 3c38 f83f e03f 0000 0000 0000 0000     8.8<?.?.........
	...
   103a8:	f801 fc07 0c0f 041e 001c 001c 0038 0038     ............8.8.
   103b8:	0038 0038 0038 0038 0038 0038 001c 001c     8.8.8.8.8.8.....
   103c8:	041e 0c0f fc07 f801 0000 0000 0000 0000     ................
	...
   103e8:	c03f f03f 7838 1c38 1c38 0c38 0e38 0e38     ?.?.8x8.8.8.8.8.
   103f8:	0e38 0e38 0e38 0e38 0e38 0e38 0c38 1c38     8.8.8.8.8.8.8.8.
   10408:	1c38 7838 f03f c03f 0000 0000 0000 0000     8.8x?.?.........
	...
   10428:	fe1f fe1f 001c 001c 001c 001c 001c 001c     ................
   10438:	fc1f fc1f 001c 001c 001c 001c 001c 001c     ................
   10448:	001c 001c fe1f fe1f 0000 0000 0000 0000     ................
	...
   10468:	fe1f fe1f 001c 001c 001c 001c 001c 001c     ................
   10478:	fc1f fc1f 001c 001c 001c 001c 001c 001c     ................
   10488:	001c 001c 001c 001c 0000 0000 0000 0000     ................
	...
   104a8:	f801 fc07 0c0f 041e 001c 001c 0038 0038     ............8.8.
   104b8:	0038 7e38 7e38 0e38 0e38 0e38 0e1c 0e1c     8.8~8~8.8.8.....
   104c8:	0e1c 1e0f fe07 f801 0000 0000 0000 0000     ................
	...
   104e8:	0e38 0e38 0e38 0e38 0e38 0e38 0e38 0e38     8.8.8.8.8.8.8.8.
   104f8:	fe3f fe3f 0e38 0e38 0e38 0e38 0e38 0e38     ?.?.8.8.8.8.8.8.
   10508:	0e38 0e38 0e38 0e38 0000 0000 0000 0000     8.8.8.8.........
	...
   10528:	fc1f fc1f c001 c001 c001 c001 c001 c001     ................
   10538:	c001 c001 c001 c001 c001 c001 c001 c001     ................
   10548:	c001 c001 fc1f fc1f 0000 0000 0000 0000     ................
	...
   10568:	f807 f807 3800 3800 3800 3800 3800 3800     .....8.8.8.8.8.8
   10578:	3800 3800 3800 3800 3800 3800 3800 3800     .8.8.8.8.8.8.8.8
   10588:	3820 7030 f03f c00f 0000 0000 0000 0000      80p?...........
	...
   105a8:	0738 0e38 1c38 3838 7038 e038 c039 803b     8.8.8.888p8.9.;.
   105b8:	803f c03f c03f e03d f038 7038 7838 3c38     ?.?.?.=.8.8p8x8<
   105c8:	1c38 1e38 0f38 0738 0000 0000 0000 0000     8.8.8.8.........
	...
   105e8:	001c 001c 001c 001c 001c 001c 001c 001c     ................
   105f8:	001c 001c 001c 001c 001c 001c 001c 001c     ................
   10608:	001c 001c fe1f fe1f 0000 0000 0000 0000     ................
	...
   10628:	1e78 1e78 3e7c 3e7c 3e7c 6e76 6e76 6e76     x.x.|>|>|>vnvnvn
   10638:	4e72 ce73 ce73 8e71 8e71 0e70 0e70 0e70     rNs.s.q.q.p.p.p.
   10648:	0e70 0e70 0e70 0e70 0000 0000 0000 0000     p.p.p.p.........
	...
   10668:	0e3c 0e3c 0e3e 0e3e 0e3e 0e3b 0e3b 8e3b     <.<.>.>.>.;.;.;.
   10678:	8e39 8e39 ce38 ce38 ee38 6e38 6e38 3e38     9.9.8.8.8.8n8n8>
   10688:	3e38 3e38 1e38 1e38 0000 0000 0000 0000     8>8>8.8.........
	...
   106a8:	e003 f80f 380e 1c1c 1c1c 0e38 0e38 0e38     .....8....8.8.8.
   106b8:	0e38 0e38 0e38 0e38 0e38 0e38 0e38 1c1c     8.8.8.8.8.8.8...
   106c8:	1c1c 380e f80f e003 0000 0000 0000 0000     ...8............
	...
   106e8:	f01f fc1f 1e1c 0f1c 071c 071c 071c 071c     ................
   106f8:	0f1c 1e1c fc1f f01f 001c 001c 001c 001c     ................
   10708:	001c 001c 001c 001c 0000 0000 0000 0000     ................
	...
   10728:	e003 f80f 380e 1c1c 1c1c 0e38 0e38 0e38     .....8....8.8.8.
   10738:	0e38 0e38 0e38 0e38 0e38 0e38 0e38 1c1c     8.8.8.8.8.8.8...
   10748:	1c1c 380e f80f e003 7000 3800 1c00 1000     ...8.....p.8....
	...
   10768:	e03f f03f 7838 3c38 1c38 1c38 1c38 1c38     ?.?.8x8<8.8.8.8.
   10778:	1c38 3838 f03f e03f f038 7838 3838 3c38     8.88?.?.8.8x888<
   10788:	1c38 1e38 0e38 0f38 0000 0000 0000 0000     8.8.8.8.........
	...
   107a8:	f003 fc0f 0c1e 043c 0038 0038 0038 003e     ......<.8.8.8.>.
   107b8:	c01f f80f fc03 3c00 1e00 0e00 0e00 0e00     .......<........
   107c8:	1e20 3c38 f83f e00f 0000 0000 0000 0000      .8<?...........
	...
   107e8:	ff7f ff7f c001 c001 c001 c001 c001 c001     ................
   107f8:	c001 c001 c001 c001 c001 c001 c001 c001     ................
   10808:	c001 c001 c001 c001 0000 0000 0000 0000     ................
	...
   10828:	1c38 1c38 1c38 1c38 1c38 1c38 1c38 1c38     8.8.8.8.8.8.8.8.
   10838:	1c38 1c38 1c38 1c38 1c38 1c38 1c38 1c38     8.8.8.8.8.8.8.8.
   10848:	1c38 381c f00f e007 0000 0000 0000 0000     8..8............
	...
   10868:	0770 0f78 0e38 0e38 0e38 1c1c 1c1c 1c1c     p.x.8.8.8.......
   10878:	3c1e 380e 380e 380e 7007 7007 7007 e003     .<.8.8.8.p.p.p..
   10888:	e003 e003 e003 c001 0000 0000 0000 0000     ................
	...
   108a8:	07e0 07e0 07e0 0e70 0e70 0e70 ce73 ce73     ......p.p.p.s.s.
   108b8:	ce73 ce73 dc3b 7c3e 7c3e 7c3e 7c3e 3c3c     s.s.;.>|>|>|>|<<
   108c8:	3c3c 381c 381c 1818 0000 0000 0000 0000     <<.8.8..........
	...
   108e8:	0778 0f3c 0e1c 1e1e 3c0f 3807 f007 f003     x.<......<.8....
   108f8:	e001 e001 e001 f003 f007 7807 3c0f 1c0e     ...........x.<..
   10908:	1e1e 0e3c 0738 0778 0000 0000 0000 0000     ..<.8.x.........
	...
   10928:	0f78 0e38 1e3c 1c1c 3c1e 380e 7007 f007     x.8.<....<.8.p..
   10938:	e003 e003 c001 c001 c001 c001 c001 c001     ................
   10948:	c001 c001 c001 c001 0000 0000 0000 0000     ................
	...
   10968:	fe3f fe3f 1e00 1c00 3c00 7800 7000 f000     ?.?......<.x.p..
   10978:	e000 e001 c003 8003 8007 0007 000f 001e     ................
   10988:	001c 003c fe3f fe3f 0000 0000 0000 0000     ..<.?.?.........
	...
   109a4:	0000 f003 f003 8003 8003 8003 8003 8003     ................
   109b4:	8003 8003 8003 8003 8003 8003 8003 8003     ................
   109c4:	8003 8003 8003 8003 8003 8003 8003 8003     ................
   109d4:	f003 f003 0000 0000 0000 0000 0000 0000     ................
   109e4:	0000 0000 0070 0038 0038 001c 001c 001c     ....p.8.8.......
   109f4:	000e 000e 0007 0007 8003 8003 8003 c001     ................
   10a04:	c001 e000 e000 7000 7000 7000 3800 3800     .......p.p.p.8.8
   10a14:	1c00 0000 0000 0000 0000 0000 0000 0000     ................
   10a24:	0000 e007 e007 e000 e000 e000 e000 e000     ................
   10a34:	e000 e000 e000 e000 e000 e000 e000 e000     ................
   10a44:	e000 e000 e000 e000 e000 e000 e000 e000     ................
   10a54:	e007 e007 0000 0000 0000 0000 0000 0000     ................
   10a64:	0000 0000 c003 c003 e007 700e 300c 1818     ...........p.0..
   10a74:	1c38 0e70 0000 0000 0000 0000 0000 0000     8.p.............
	...
   10ad8:	0000 ffff 0000 0000 0000 0000 000e 0007     ................
   10ae8:	0003 8001 c000 0000 0000 0000 0000 0000     ................
	...
   10b30:	0000 f007 fc1f 1c18 0e00 0e00 fe07 fe0f     ................
   10b40:	0e1c 0e38 0e38 1e38 1e38 3e3c ee1f ce07     ..8.8.8.8.<>....
	...
   10b64:	0000 001c 001c 001c 001c 001c 001c f81c     ................
   10b74:	fc1f 1e1f 0e1e 071c 071c 071c 071c 071c     ................
   10b84:	071c 071c 0e1e 1e1f fc1f f81c 0000 0000     ................
	...
   10bb0:	0000 f001 f807 0c0f 000e 001c 001c 001c     ................
   10bc0:	001c 001c 001c 001e 000e 0c0f f807 f001     ................
	...
   10be4:	0000 0e00 0e00 0e00 0e00 0e00 0e00 ce07     ................
   10bf4:	fe0f 3e1e 1e1c 0e38 0e38 0e38 0e38 0e38     ...>..8.8.8.8.8.
   10c04:	0e38 0e38 1e1c 3e1e fe0f ce07 0000 0000     8.8....>........
	...
   10c30:	0000 e003 f80f 3c1e 1c1c 0e3c 0e38 0e38     .......<..<.8.8.
   10c40:	fe3f fe3f 0038 0038 041c 0c1e f80f e003     ?.?.8.8.........
	...
   10c64:	0000 7e00 fe00 e001 c001 c001 c001 fe1f     ...~............
   10c74:	fe1f c001 c001 c001 c001 c001 c001 c001     ................
   10c84:	c001 c001 c001 c001 c001 c001 0000 0000     ................
	...
   10cb0:	0000 ce07 ee0f 3e1e 1e1c 0e38 0e38 0e38     .......>..8.8.8.
   10cc0:	0e38 0e38 0e38 0e38 1e1c 3e1e ee0f ce07     8.8.8.8....>....
   10cd0:	0e00 0e00 1c00 3c08 f80f e007 0000 0000     .......<........
   10ce0:	0000 0000 0000 001c 001c 001c 001c 001c     ................
   10cf0:	001c f01c f81d 3c1e 1c1e 1c1c 1c1c 1c1c     .......<........
   10d00:	1c1c 1c1c 1c1c 1c1c 1c1c 1c1c 1c1c 1c1c     ................
	...
   10d24:	0000 c001 c001 c001 0000 0000 0000 c01f     ................
   10d34:	c01f c001 c001 c001 c001 c001 c001 c001     ................
   10d44:	c001 c001 c001 c001 fe3f fe3f 0000 0000     ........?.?.....
	...
   10d64:	0000 e000 e000 e000 0000 0000 0000 e00f     ................
   10d74:	e00f e000 e000 e000 e000 e000 e000 e000     ................
   10d84:	e000 e000 e000 e000 e000 e000 e000 e000     ................
   10d94:	e000 c001 c01f 001f 0000 0000 0000 0000     ................
   10da4:	0000 001c 001c 001c 001c 001c 001c 0f1c     ................
   10db4:	1e1c 3c1c 781c f01c e01d c01f e01f e01f     ...<.x..........
   10dc4:	f01e 781c 3c1c 1c1c 1e1c 0f1c 0000 0000     ...x.<..........
	...
   10de4:	0000 807f 807f 8003 8003 8003 8003 8003     ................
   10df4:	8003 8003 8003 8003 8003 8003 8003 8003     ................
   10e04:	8003 8003 8003 c001 fc01 7c00 0000 0000     ...........|....
	...
   10e30:	0000 1c77 be7f e771 c771 c771 c771 c771     ..w...q.q.q.q.q.
   10e40:	c771 c771 c771 c771 c771 c771 c771 c771     q.q.q.q.q.q.q.q.
	...
   10e70:	0000 f01c f81d 3c1e 1c1e 1c1c 1c1c 1c1c     .......<........
   10e80:	1c1c 1c1c 1c1c 1c1c 1c1c 1c1c 1c1c 1c1c     ................
	...
   10eb0:	0000 e003 f80f 3c1e 1c1c 0e38 0e38 0e38     .......<..8.8.8.
   10ec0:	0e38 0e38 0e38 0e38 1c1c 3c1e f80f e003     8.8.8.8....<....
	...
   10ef0:	0000 f81c fc1f 1e1f 0e1e 071c 071c 071c     ................
   10f00:	071c 071c 071c 071c 0e1e 1e1f fc1f f81c     ................
   10f10:	001c 001c 001c 001c 001c 001c 0000 0000     ................
	...
   10f30:	0000 ce07 fe0f 3e1e 1e1c 0e38 0e38 0e38     .......>..8.8.8.
   10f40:	0e38 0e38 0e38 0e38 1e1c 3e1e fe0f ce07     8.8.8.8....>....
   10f50:	0e00 0e00 0e00 0e00 0e00 0e00 0000 0000     ................
	...
   10f70:	0000 3c07 7e07 c207 8007 8007 0007 0007     ...<.~..........
   10f80:	0007 0007 0007 0007 0007 0007 0007 0007     ................
	...
   10fb0:	0000 f003 f80f 081e 001c 001c 001f f00f     ................
   10fc0:	f807 fc00 3c00 1c00 1c00 3c10 f81f e007     .....<.....<....
	...
   10fe8:	0000 8003 8003 8003 8003 fe3f fe3f 8003     ..........?.?...
   10ff8:	8003 8003 8003 8003 8003 8003 8003 8003     ................
   11008:	8003 c003 fe01 fe00 0000 0000 0000 0000     ................
	...
   11030:	0000 1c1c 1c1c 1c1c 1c1c 1c1c 1c1c 1c1c     ................
   11040:	1c1c 1c1c 1c1c 1c1c 3c1c 3c1e dc0f 9c07     .........<.<....
	...
   11070:	0000 0e70 1c38 1c38 1c38 381c 381c 781e     ..p.8.8.8..8.8.x
   11080:	700e 700e f00f e007 e007 e007 c003 c003     .p.p............
	...
   110b0:	0000 07e0 07e0 0e70 0e70 8e71 8e71 de7b     ......p.p.q.q.{.
   110c0:	dc3b 5c3a 5c3a 7c3e 781e 381c 381c 381c     ;.:\:\>|.x.8.8.8
	...
   110f0:	0000 3c3c 781e 700e f00f e007 c003 c003     ..<<.x.p........
   11100:	8001 c003 e007 f00f 700e 781e 3c3c 1e78     .........p.x<<x.
	...
   11130:	0000 0e70 1c38 1c38 3c3c 381c 381c 781e     ..p.8.8.<<.8.8.x
   11140:	700e 700e e007 e007 e007 c003 c003 8003     .p.p............
   11150:	8003 8003 0007 000f 003e 003c 0000 0000     ........>.<.....
	...
   11170:	0000 fc1f fc1f 3c00 7800 7000 f000 e001     .......<.x.p....
   11180:	c001 c003 8007 0007 000f 001e fc1f fc1f     ................
	...
   111a4:	0000 7c00 fc00 e001 c001 c001 c001 c001     ...|............
   111b4:	c001 c001 c001 c001 8003 001f 001f 8003     ................
   111c4:	c001 c001 c001 c001 c001 c001 c001 c001     ................
   111d4:	e001 fc00 7c00 0000 0000 0000 0000 0000     .....|..........
   111e4:	0000 8001 8001 8001 8001 8001 8001 8001     ................
   111f4:	8001 8001 8001 8001 8001 8001 8001 8001     ................
   11204:	8001 8001 8001 8001 8001 8001 8001 8001     ................
   11214:	8001 8001 8001 8001 0000 0000 0000 0000     ................
   11224:	0000 001f 801f c003 c001 c001 c001 c001     ................
   11234:	c001 c001 c001 c001 e000 7c00 7c00 e000     ...........|.|..
   11244:	c001 c001 c001 c001 c001 c001 c001 c001     ................
   11254:	c003 801f 001f 0000 6854 7265 2065 7369     ........There is
   11264:	6e20 206f 6e61 2079 6564 6966 656e 4120      no any define A
   11274:	4353 5f32 3231 3830 2620 2026 5341 3243     SC2_1208 && ASC2
   11284:	325f 3134 2032 2626 4120 4353 5f32 3432     _2412 && ASC2_24
   11294:	3631 2620 2026 5341 3243 335f 3132 2036     16 && ASC2_3216 
   112a4:	0021 0000 6f66 746e 7320 7a69 2865 6425     !...font size(%d
   112b4:	2029 7369 6e20 746f 7320 7075 6f70 7472     ) is not support
   112c4:	0021 0000 656b 2079 6e69 7469 6520 7272     !...key init err
   112d4:	726f 0a0d 0000 0000 656b 2079 6e69 7469     or......key init
   112e4:	7320 6375 6563 7373 0d21 000a 6874 6572      success!...thre
   112f4:	6461 735f 6d65 2061 6e69 7469 7320 6375     ad_sema init suc
   11304:	6563 7373 0d21 000a 6550 6972 6870 7265     cess!...Peripher
   11314:	6c61 6920 696e 2074 7573 6363 7365 2173     al init success!
   11324:	0a0d 0000 7250 7365 2073 6157 656b 555f     ....Press Wake_U
   11334:	0070 0000 6f54 4d20 6961 4d6e 6e65 0075     p...To MainMenu.
   11344:	6974 6b63 3d20 2520 0d64 000a 6661 6574     tick = %d...afte
   11354:	2072 6564 616c 2079 3032 6d30 0d73 000a     r delay 200ms...
   11364:	6854 6572 6873 6f56 746c 3d20 2520 0d64     ThreshVolt = %d.
   11374:	000a 0000 6143 206e 6f6e 2074 6966 646e     ....Can not find
   11384:	7020 6e69 645f 7665 0d21 000a 6f43 746e      pin_dev!...Cont
   11394:	6f72 206c 7245 6f72 2172 0a0d 0000 0000     rol Error!......
   113a4:	6544 6976 6563 6f20 6570 206e 7245 6f72     Device open Erro
   113b4:	2172 0a0d 0000 0000 0a0d 4d20 5543 203a     r!........ MCU: 
   113c4:	4843 3233 3356 3730 0a0d 0000 5320 7379     CH32V307.... Sys
   113d4:	6c43 3a6b 2520 4864 0d7a 000a 4320 6968     Clk: %dHz... Chi
   113e4:	4970 3a44 2520 3830 0d78 000a 7720 7777     pID: %08x... www
   113f4:	772e 6863 632e 0d6e 000a 0000 7072 0000     .wch.cn.....rp..
   11404:	71d4 0000 71f6 0000 71b0 0000 718a 0000     .q...q...q...q..
   11414:	7170 0000 729a 0000 7266 0000 724c 0000     pq...r..fr..Lr..
   11424:	7232 0000 7280 0000 0000 3f00 47ae 7ae1     2r...r.....?.G.z
   11434:	ae14 3fef 147b 47ae 7ae1 3f84 999a 9999     ...?{..G.z.?....
   11444:	9999 3fb9 654d 756e 0d21 000a 6f4d 6964     ...?Menu!...Modi
   11454:	7966 4420 6e6f 0065 6554 706d 616c 6574     fy Done.Template
   11464:	252d 2064 7254 6961 696e 676e 0000 0000     -%d Training....
   11474:	6f4e 5420 6d65 6c70 7461 2065 6144 6174     No Template Data
   11484:	0021 0000 6f44 5420 6172 6e69 6e69 2067     !...Do Training 
   11494:	6946 7372 2174 0000 6554 706d 616c 6574     First!..Template
   114a4:	4320 6f68 6573 006e 6554 706d 616c 6574      Chosen.Template
   114b4:	252d 2064 6553 656c 7463 6465 0000 0000     -%d Selected....
   114c4:	4f4e 2054 6e65 756f 6867 5220 4d41 0000     NOT enough RAM..
   114d4:	7552 6e6e 6e69 2067 5444 0057 6e69 7469     Running DTW.init
   114e4:	7020 6f72 6563 7373 0a0d 0000 656b 2d79      process....key-
   114f4:	6f6c 6b63 0000 0000 656d 756e 6c2d 636f     lock....menu-loc
   11504:	006b 0000 5444 2d57 756d 6574 0078 0000     k...DTW-mutex...
   11514:	6573 206d 6e69 7469 0a0d 0000 4554 5453     sem init....TEST
   11524:	7320 6174 7472 7075 0d21 000a 434c 0044      startup!...LCD.
   11534:	434c 2d44 6874 6572 6461 6920 696e 2d74     LCD-thread init-
   11544:	7265 2072 0a0d 0000 5444 2d57 6874 6572     err ....DTW-thre
   11554:	6461 6920 696e 2d74 7265 2072 0a0d 0000     ad init-err ....
   11564:	6e65 2064 7270 636f 7365 0d73 000a 0000     end process.....
   11574:	923a ffff 9160 ffff 9234 ffff 9168 ffff     :...`...4...h...
   11584:	9234 ffff 912e ffff 9234 ffff 9168 ffff     4.......4...h...
   11594:	9160 ffff 9160 ffff 912e ffff 9168 ffff     `...`.......h...
   115a4:	916e ffff 916e ffff 916e ffff 912e ffff     n...n...n.......
   115b4:	9120 ffff 9120 ffff 91f4 ffff 92d0 ffff      ... ...........
   115c4:	91f4 ffff 90ee ffff 91f4 ffff 92d0 ffff     ................
   115d4:	9120 ffff 9120 ffff 90ee ffff 92d0 ffff      ... ...........
   115e4:	912e ffff 912e ffff 912e ffff 90ee ffff     ................
   115f4:	94bc ffff 940a ffff 940a ffff 9408 ffff     ................
   11604:	940e ffff 940e ffff 93de ffff 9408 ffff     ................
   11614:	940e ffff 93de ffff 940e ffff 9408 ffff     ................
   11624:	94aa ffff 94aa ffff 94aa ffff 93de ffff     ................

00011634 <__clz_tab>:
   11634:	0100 0202 0303 0303 0404 0404 0404 0404     ................
   11644:	0505 0505 0505 0505 0505 0505 0505 0505     ................
   11654:	0606 0606 0606 0606 0606 0606 0606 0606     ................
   11664:	0606 0606 0606 0606 0606 0606 0606 0606     ................
   11674:	0707 0707 0707 0707 0707 0707 0707 0707     ................
   11684:	0707 0707 0707 0707 0707 0707 0707 0707     ................
   11694:	0707 0707 0707 0707 0707 0707 0707 0707     ................
   116a4:	0707 0707 0707 0707 0707 0707 0707 0707     ................
   116b4:	0808 0808 0808 0808 0808 0808 0808 0808     ................
   116c4:	0808 0808 0808 0808 0808 0808 0808 0808     ................
   116d4:	0808 0808 0808 0808 0808 0808 0808 0808     ................
   116e4:	0808 0808 0808 0808 0808 0808 0808 0808     ................
   116f4:	0808 0808 0808 0808 0808 0808 0808 0808     ................
   11704:	0808 0808 0808 0808 0808 0808 0808 0808     ................
   11714:	0808 0808 0808 0808 0808 0808 0808 0808     ................
   11724:	0808 0808 0808 0808 0808 0808 0808 0808     ................

00011734 <__sf_fake_stderr>:
	...

00011754 <__sf_fake_stdin>:
	...

00011774 <__sf_fake_stdout>:
	...
   11794:	2d23 2b30 0020 0000 6c68 004c 6665 4567     #-0+ ...hlL.efgE
   117a4:	4746 0000 3130 3332 3534 3736 3938 4241     FG..0123456789AB
   117b4:	4443 4645 0000 0000 3130 3332 3534 3736     CDEF....01234567
   117c4:	3938 6261 6463 6665 0000 0000               89abcdef....

000117d0 <__fsym_list_mem>:
   117d0:	ce5c 0000 ce3c 0000 15a0 0000               \...<.......

000117dc <__fsym_list>:
   117dc:	d354 0000 d338 0000 28d2 0000               T...8....(..

000117e8 <__fsym___cmd_list_device>:
   117e8:	d374 0000 d35c 0000 2742 0000               t...\...B'..

000117f4 <__fsym_list_device>:
   117f4:	d3a0 0000 d388 0000 2742 0000               ........B'..

00011800 <__fsym___cmd_list_timer>:
   11800:	d3c4 0000 d3ac 0000 2820 0000               ........ (..

0001180c <__fsym_list_timer>:
   1180c:	d3f0 0000 d3d8 0000 2820 0000               ........ (..

00011818 <__fsym___cmd_list_msgqueue>:
   11818:	d41c 0000 d3fc 0000 2686 0000               .........&..

00011824 <__fsym_list_msgqueue>:
   11824:	d450 0000 d430 0000 2686 0000               P...0....&..

00011830 <__fsym___cmd_list_mailbox>:
   11830:	d478 0000 d460 0000 25c6 0000               x...`....%..

0001183c <__fsym_list_mailbox>:
   1183c:	d4a4 0000 d48c 0000 25c6 0000               .........%..

00011848 <__fsym___cmd_list_mutex>:
   11848:	d4cc 0000 d4b4 0000 252a 0000               ........*%..

00011854 <__fsym_list_mutex>:
   11854:	d4f8 0000 d4e0 0000 252a 0000               ........*%..

00011860 <__fsym___cmd_list_event>:
   11860:	d51c 0000 d504 0000 2470 0000               ........p$..

0001186c <__fsym_list_event>:
   1186c:	d548 0000 d530 0000 2470 0000               H...0...p$..

00011878 <__fsym___cmd_list_sem>:
   11878:	d570 0000 d554 0000 23b4 0000               p...T....#..

00011884 <__fsym_list_sem>:
   11884:	d59c 0000 d580 0000 23b4 0000               .........#..

00011890 <__fsym___cmd_list_thread>:
   11890:	d5b4 0000 d5a8 0000 227e 0000               ........~"..

0001189c <__fsym_list_thread>:
   1189c:	d5d4 0000 d5c8 0000 227e 0000               ........~"..

000118a8 <__fsym___cmd_clear>:
   118a8:	d5f4 0000 d5e0 0000 21e8 0000               .........!..

000118b4 <__fsym_clear>:
   118b4:	d614 0000 d600 0000 21e8 0000               .........!..

000118c0 <__fsym___cmd_reboot>:
   118c0:	d630 0000 d61c 0000 21d6 0000               0........!..

000118cc <__fsym_reboot>:
   118cc:	d654 0000 d640 0000 21d6 0000               T...@....!..

000118d8 <__fsym___cmd_help>:
   118d8:	d804 0000 d7ec 0000 2922 0000               ........")..

000118e4 <__fsym___cmd_free>:
   118e4:	d834 0000 d810 0000 2c74 0000               4.......t,..

000118f0 <__fsym___cmd_ps>:
   118f0:	d85c 0000 d840 0000 2c66 0000               \...@...f,..

000118fc <__fsym_pinRead>:
   118fc:	d8f4 0000 d8d4 0000 36fc 0000               .........6..

00011908 <__fsym_pinWrite>:
   11908:	d918 0000 d8fc 0000 36e2 0000               .........6..

00011914 <__fsym_pinMode>:
   11914:	d93c 0000 d924 0000 36c8 0000               <...$....6..

00011920 <__rt_init_rti_start>:
   11920:	0516 0000                                   ....

00011924 <__rt_init_rti_board_start>:
   11924:	055a 0000                                   Z...

00011928 <__rt_init_rt_hw_pin_init>:
   11928:	3d64 0000                                   d=..

0001192c <__rt_init_rt_hw_user_timer_init>:
   1192c:	4054 0000                                   T@..

00011930 <__rt_init_rt_hw_usart_init>:
   11930:	418c 0000                                   .A..

00011934 <__rt_init_rti_board_end>:
   11934:	055e 0000                                   ^...

00011938 <__rt_init_finsh_system_init>:
   11938:	2c94 0000                                   .,..

0001193c <__rt_init_rti_end>:
   1193c:	0556 0000                                   V...
